 dmcr

 Timestamp is 41f12625 (Fri Jan 21 17:56:21 2005)

 Preferred load address is 00400000

 Start         Length     Name                   Class
 0001:00000000 001c5d30H .text                   CODE
 0001:001c5d30 0000267aH .text$x                 CODE
 0002:00000000 00000328H .idata$5                DATA
 0002:00000330 000011f0H .rdata                  DATA
 0002:00001520 00008a28H .xdata$x                DATA
 0002:00009f48 000000f0H .idata$2                DATA
 0002:0000a038 00000014H .idata$3                DATA
 0002:0000a04c 00000328H .idata$4                DATA
 0002:0000a374 00000bf8H .idata$6                DATA
 0002:0000af70 00005184H .edata                  DATA
 0003:00000000 00000004H .CRT$XCA                DATA
 0003:00000004 0000023cH .CRT$XCU                DATA
 0003:00000240 00000004H .CRT$XCZ                DATA
 0003:00000244 00000004H .CRT$XIA                DATA
 0003:00000248 0000000cH .CRT$XIC                DATA
 0003:00000254 00000004H .CRT$XIY                DATA
 0003:00000258 00000004H .CRT$XIZ                DATA
 0003:0000025c 00000004H .CRT$XPA                DATA
 0003:00000260 00000004H .CRT$XPX                DATA
 0003:00000264 00000004H .CRT$XPZ                DATA
 0003:00000268 00000004H .CRT$XTA                DATA
 0003:0000026c 00000004H .CRT$XTB                DATA
 0003:00000270 00000004H .CRT$XTZ                DATA
 0003:00000280 0001c4c4H .data                   DATA
 0003:0001c750 0212b8e8H .bss                    DATA
 0004:00000000 00000148H .rsrc$01                DATA
 0004:00000150 00001440H .rsrc$02                DATA

  Address         Publics by Value              Rva+Base     Lib:Object

 0001:00000000       ?Hline@@YAXHHHE@Z          00401000 f   Lines.obj
 0001:00000100       ?Vline@@YAXHHHE@Z          00401100 f   Lines.obj
 0001:0000021a       ?Xbar@@YAXHHHHE@Z          0040121a f   Lines.obj
 0001:000002a9       ?GetXKind@@YAHH@Z          004012a9 f   Lines.obj
 0001:000002d4       ?GetYKind@@YAHH@Z          004012d4 f   Lines.obj
 0001:000002ff       ?DrawLine@@YAXHHHHE@Z      004012ff f   Lines.obj
 0001:000006c0       ??2@YAPAXI@Z               004016c0 f i Lines.obj
 0001:000006e0       ??3@YAXPAX@Z               004016e0 f i Lines.obj
 0001:00000700       ?SetStdShadow@RLCFont@@QAEXXZ 00401700 f i Lines.obj
 0001:00000730       ?SetShadowGP@RLCFont@@QAEXHHH@Z 00401730 f i Lines.obj
 0001:00000760       ??4RLCFont@@QAEAAV0@ABV0@@Z 00401760 f i Lines.obj
 0001:00000790       ??0Menu@@QAE@XZ            00401790 f   menu.obj
 0001:000007b5       ?MouseHandle@@YAXPAX@Z     004017b5 f   menu.obj
 0001:000008af       ?GetAmount@Menu@@QAEHXZ    004018af f   menu.obj
 0001:00000916       ?GetNstr@Menu@@QAEPBDH@Z   00401916 f   menu.obj
 0001:00000a01       ?GetLen@Menu@@QAEHPBD@Z    00401a01 f   menu.obj
 0001:00000a81       ?CreateMenu@Menu@@QAEXPBDPAVRLCFont@@1P6AXXZH@Z 00401a81 f   menu.obj
 0001:00000cc5       ?Show@Menu@@QAEXH@Z        00401cc5 f   menu.obj
 0001:00000db7       ?ShowModal@Menu@@QAEXXZ    00401db7 f   menu.obj
 0001:00000e0a       ?Close@Menu@@QAEXXZ        00401e0a f   menu.obj
 0001:00000e40       ??0CGSCarch@@QAE@ABV0@@Z   00401e40 f i Resfile.obj
 0001:00000ed0       ??4CGSCarch@@QAEAAV0@ABV0@@Z 00401ed0 f i Resfile.obj
 0001:00000f70       ??_GCGSCarch@@UAEPAXI@Z    00401f70 f i Resfile.obj
 0001:00000fa0       ??_ECGSCarch@@UAEPAXI@Z    00401fa0 f i Resfile.obj
 0001:00001020       ??0CGSCset@@QAE@ABV0@@Z    00402020 f i Resfile.obj
 0001:00001050       ??4CGSCset@@QAEAAV0@ABV0@@Z 00402050 f i Resfile.obj
 0001:00001070       ??_GCGSCset@@UAEPAXI@Z     00402070 f i Resfile.obj
 0001:000010a0       ??_ECGSCset@@UAEPAXI@Z     004020a0 f i Resfile.obj
 0001:0000114f       ?RResetEx@@YAPAXPBD@Z      0040214f f   Resfile.obj
 0001:000011ab       ?GetRarName@@YA_NPBDPAD@Z  004021ab f   Resfile.obj
 0001:00001259       ?AddFHandle@@YAXPAXPAD@Z   00402259 f   Resfile.obj
 0001:00001320       ?EraseFName@@YAXPAX@Z      00402320 f   Resfile.obj
 0001:0000140a       ?EraseAllFNames@@YAXXZ     0040240a f   Resfile.obj
 0001:00001443       ?RReset@@YAPAXPBD@Z        00402443 f   Resfile.obj
 0001:0000150c       ?RRewrite@@YAPAXPBD@Z      0040250c f   Resfile.obj
 0001:00001538       ?RFileSize@@YAKPAX@Z       00402538 f   Resfile.obj
 0001:0000155e       ?RSeek@@YAKPAXH@Z          0040255e f   Resfile.obj
 0001:0000158a       ?RBlockRead@@YAKPAX0K@Z    0040258a f   Resfile.obj
 0001:000015bb       ?RBlockWrite@@YAKPAX0K@Z   004025bb f   Resfile.obj
 0001:000015ec       ?IOresult@@YAKXZ           004025ec f   Resfile.obj
 0001:000015f3       ?RCloseEx@@YAXPAX@Z        004025f3 f   Resfile.obj
 0001:00001617       ?RClose@@YAXPAX@Z          00402617 f   Resfile.obj
 0001:00001645       ?FilesInit@@YAXXZ          00402645 f   Resfile.obj
 0001:000017a2       ?FilesExit@@YAXXZ          004027a2 f   Resfile.obj
 0001:000017c0       ??0CGSCarch@@QAE@XZ        004027c0 f   GSCarch.obj
 0001:000017d7       ??1CGSCarch@@UAE@XZ        004027d7 f   GSCarch.obj
 0001:000017eb       ?GSC_OpenError@@YAXXZ      004027eb f   GSCarch.obj
 0001:00001804       ?Open@CGSCarch@@QAEHPBD@Z  00402804 f   GSCarch.obj
 0001:000018f2       ?Close@CGSCarch@@QAEHXZ    004028f2 f   GSCarch.obj
 0001:0000192e       ?GetFileHandle@CGSCarch@@QAEPAUTGSCfile@@PBD@Z 0040292e f   GSCarch.obj
 0001:00001a1e       ?CloseFileHandle@CGSCarch@@QAEXPAUTGSCfile@@@Z 00402a1e f   GSCarch.obj
 0001:00001a45       ?MemDecrypt@CGSCarch@@AAEXPAEK@Z 00402a45 f   GSCarch.obj
 0001:00001a6c       ?GetFileSize@CGSCarch@@QAEKPAUTGSCfile@@@Z 00402a6c f   GSCarch.obj
 0001:00001a95       ?GetFilePos@CGSCarch@@QAEKPAUTGSCfile@@@Z 00402a95 f   GSCarch.obj
 0001:00001aa8       ?SetFilePos@CGSCarch@@QAEXPAUTGSCfile@@K@Z 00402aa8 f   GSCarch.obj
 0001:00001abe       ?ReadFile@CGSCarch@@QAEXPAUTGSCfile@@PAEK@Z 00402abe f   GSCarch.obj
 0001:00001b36       ?GetFileData@CGSCarch@@QAEPAEPAUTGSCfile@@@Z 00402b36 f   GSCarch.obj
 0001:00001b6a       ?FindFile@CGSCarch@@QAEPAUTGSCFindData@@PBD@Z 00402b6a f   GSCarch.obj
 0001:00001c9d       ?NextFile@CGSCarch@@QAEHPAUTGSCFindData@@@Z 00402c9d f   GSCarch.obj
 0001:00001d80       ??0CGSCset@@QAE@XZ         00402d80 f   GSCset.obj
 0001:00001d97       ??1CGSCset@@UAE@XZ         00402d97 f   GSCset.obj
 0001:00001dab       ?gOpenFile@CGSCset@@QAEPAUTGSCfile@@PBD_N@Z 00402dab f   GSCset.obj
 0001:00001f05       ?gCloseFile@CGSCset@@QAEXPAUTGSCfile@@@Z 00402f05 f   GSCset.obj
 0001:00001f3b       ?gReadFile@CGSCset@@QAEXPAUTGSCfile@@PAEK@Z 00402f3b f   GSCset.obj
 0001:00001f90       ?gSeekFile@CGSCset@@QAEXPAUTGSCfile@@K@Z 00402f90 f   GSCset.obj
 0001:00001fc8       ?gFilePos@CGSCset@@QAEKPAUTGSCfile@@@Z 00402fc8 f   GSCset.obj
 0001:00001ffb       ?AddItem@@YAXPAUTGSCFileList@@PBD@Z 00402ffb f   GSCset.obj
 0001:00002096       ?gFindFirst@CGSCset@@QAEPAUTGSCFindInfo@@PBD@Z 00403096 f   GSCset.obj
 0001:00002354       ?gFindNext@CGSCset@@QAEHPAUTGSCFindInfo@@@Z 00403354 f   GSCset.obj
 0001:000023db       ?gOpen@CGSCset@@QAEHXZ     004033db f   GSCset.obj
 0001:00002ea4       ?gClose@CGSCset@@QAEXXZ    00403ea4 f   GSCset.obj
 0001:00002f19       ?gFileSize@CGSCset@@QAEKPAUTGSCfile@@@Z 00403f19 f   GSCset.obj
 0001:00002f51       ?gMapFile@CGSCset@@QAEPAEPAUTGSCfile@@@Z 00403f51 f   GSCset.obj
 0001:00002f7d       ?gWriteFile@CGSCset@@QAEHPAUTGSCfile@@PAEK@Z 00403f7d f   GSCset.obj
 0001:00002fbb       ?gWriteOpen@CGSCset@@QAEPAUTGSCfile@@PBD@Z 00403fbb f   GSCset.obj
 0001:00003040       ??0GFSYSTEM@@QAE@XZ        00404040 f   gText.obj
 0001:00003061       ??1GFSYSTEM@@QAE@XZ        00404061 f   gText.obj
 0001:000030b8       ?GetFile@GFSYSTEM@@QAEPAVGFILE@@XZ 004040b8 f   gText.obj
 0001:00003164       ?FreeFile@GFSYSTEM@@QAEXPAVGFILE@@@Z 00404164 f   gText.obj
 0001:000031bd       ??0GFILE@@QAE@XZ           004041bd f   gText.obj
 0001:000031ef       ??1GFILE@@QAE@XZ           004041ef f   gText.obj
 0001:00003236       ?Open@GFILE@@QAE_NPAD@Z    00404236 f   gText.obj
 0001:000032f9       ?Close@GFILE@@QAEXXZ       004042f9 f   gText.obj
 0001:0000332f       ?ReadByte@GFILE@@QAEHXZ    0040432f f   gText.obj
 0001:00003447       ?CheckByte@GFILE@@QAEHXZ   00404447 f   gText.obj
 0001:00003549       ?Gscanf@GFILE@@QAEHPAD0@Z  00404549 f   gText.obj
 0001:0000391f       ?Ggetch@GFILE@@QAEHXZ      0040491f f   gText.obj
 0001:0000398a       ?Gopen@@YAPAVGFILE@@PAD0@Z 0040498a f   gText.obj
 0001:00003a27       ?Gscanf@@YAHPAVGFILE@@PADZZ 00404a27 f   gText.obj
 0001:00003a54       ?Ggetch@@YAHPAVGFILE@@@Z   00404a54 f   gText.obj
 0001:00003a61       ?Gprintf@@YAXPAVGFILE@@PBDZZ 00404a61 f   gText.obj
 0001:00003a90       ?Gclose@@YAXPAVGFILE@@@Z   00404a90 f   gText.obj
 0001:00003ad0       ?isiDecryptMem@@YAXPAEKE@Z 00404ad0 f   isiMasks.obj
 0001:00003aeb       ?isiEncryptMem@@YAXPAEKE@Z 00404aeb f   isiMasks.obj
 0001:00003b08       ?isiCalcHash@@YAKPAD@Z     00404b08 f   isiMasks.obj
 0001:00003b5f       ?isiMatchesMask@@YAHPAD0@Z 00404b5f f   isiMasks.obj
 0001:00003bea       ?isiFileExists@@YAHPAD@Z   00404bea f   isiMasks.obj
 0001:00003d12       ?SetupEBufs@@YAXXZ         00404d12 f   MPlayer.obj
 0001:00003dbd       ?UpdateEBufs@@YAXXZ        00404dbd f   MPlayer.obj
 0001:00004066       ?PresentEmptyBuf@@YA_NXZ   00405066 f   MPlayer.obj
 0001:000040c4       ?EnumPlayersCallback2@@YGHKKPBUDPNAME@@KPAX@Z 004050c4 f   MPlayer.obj
 0001:0000411a       ?IBEnumPlayersCallback2@@YGHKKPBUDPNAME@@KPAX@Z 0040511a f   MPlayer.obj
 0001:0000416f       ?IBEnumeratePlayers@@YAXPAPAVInputBox@@@Z 0040516f f   MPlayer.obj
 0001:000041e6       ?GetPIndex@@YAHK@Z         004051e6 f   MPlayer.obj
 0001:00004232       ?MPL_EnumPlayersCallback2@@YGHKKPBUDPNAME@@KPAX@Z 00405232 f   MPlayer.obj
 0001:00004266       ?MPL_CheckExistingPlayers@@YAXXZ 00405266 f   MPlayer.obj
 0001:000043a9       ?PIEnumPlayersCallback2@@YGHKKPBUDPNAME@@KPAX@Z 004053a9 f   MPlayer.obj
 0001:00004493       ?ClearPLIDS@@YAXXZ         00405493 f   MPlayer.obj
 0001:00004511       ?SortPLIDS@@YAXXZ          00405511 f   MPlayer.obj
 0001:000048b5       ?IPCORE_EnumProc@@YGHGPBD@Z 004058b5 f   MPlayer.obj
 0001:00004a11       ?PIEnumeratePlayers@@YA_NPAUPlayerInfo@@_N@Z 00405a11 f   MPlayer.obj
 0001:00004c6a       ?ClearFAILS@@YAXXZ         00405c6a f   MPlayer.obj
 0001:00004dc0       ?HandleApplicationMessage@@YAXPAUDPLAYINFO@@PAUDPMSG_GENERIC@@KKK@Z 00405dc0 f   MPlayer.obj
 0001:00005a1a       ?HandleSystemMessage@@YAXPAUDPLAYINFO@@PAUDPMSG_GENERIC@@KKK@Z 00406a1a f   MPlayer.obj
 0001:00005c40       ?ReceiveMessage@@YAJPAUDPLAYINFO@@@Z 00406c40 f   MPlayer.obj
 0001:00005f7a       ?ProcessReceive@@YAXXZ     00406f7a f   MPlayer.obj
 0001:00005fa8       ?ReceiveAll@@YAXXZ         00406fa8 f   MPlayer.obj
 0001:00005fea       ?SetupConnection@@YAJPAUHINSTANCE__@@PAUDPLAYINFO@@@Z 00406fea f   MPlayer.obj
 0001:000060e2       ?SetupMultiplayer@@YAXPAUHINSTANCE__@@@Z 004070e2 f   MPlayer.obj
 0001:00006102       ?ShutdownMultiplayer@@YAX_N@Z 00407102 f   MPlayer.obj
 0001:00006186       ?ShutdownConnection@@YAJPAUDPLAYINFO@@@Z 00407186 f   MPlayer.obj
 0001:00006234       ?InitMultiDialogs@@YAXXZ   00407234 f   MPlayer.obj
 0001:00006273       ?CreateDirectPlayInterface@@YAJPAPAUIDirectPlay3@@@Z 00407273 f   MPlayer.obj
 0001:000062b5       ?DirectPlayEnumConnectionsCallback@@YGHPBU_GUID@@PAXKPBUDPNAME@@K1@Z 004072b5 f   MPlayer.obj
 0001:00006350       ?CreateMultiplaterInterface@@YA_NXZ 00407350 f   MPlayer.obj
 0001:000064a3       ?EnumSessionsCallback@@YGHPBUDPSESSIONDESC2@@PAKKPAX@Z 004074a3 f   MPlayer.obj
 0001:0000652c       ?LBEnumSessionsCallback@@YGHPBUDPSESSIONDESC2@@PAKKPAX@Z 0040752c f   MPlayer.obj
 0001:00006669       ?SR_EnumSessionsCallback@@YGHPBUDPSESSIONDESC2@@PAKKPAX@Z 00407669 f   MPlayer.obj
 0001:00006734       ?NORMNICK1@@YAXPAD@Z       00407734 f   MPlayer.obj
 0001:00006785       ?FindSessionAndJoin@@YA_NPAD0_N@Z 00407785 f   MPlayer.obj
 0001:000069a3       ?LBEnumerateSessions@@YAXPAVListBox@@H@Z 004079a3 f   MPlayer.obj
 0001:00006a87       ?HostSession@@YAJPAUIDirectPlay3@@PAD1PAUDPLAYINFO@@K@Z 00407a87 f   MPlayer.obj
 0001:00006c01       ?DPL_CreatePlayer@@YA_NPAUIDirectPlay3@@PAU_GUID@@PAUDPNAME@@_N@Z 00407c01 f   MPlayer.obj
 0001:00006c67       ?StopConnectionToSession@@YAXPAUIDirectPlay3@@@Z 00407c67 f   MPlayer.obj
 0001:00006d01       ?JoinSession@@YAJPAUIDirectPlay3@@PAU_GUID@@PADPAUDPLAYINFO@@@Z 00407d01 f   MPlayer.obj
 0001:00006e49       ?CreateSession@@YA_NPAD0K_NH@Z 00407e49 f   MPlayer.obj
 0001:00006f6e       ?CreateNamedSession@@YA_NPADKH@Z 00407f6e f   MPlayer.obj
 0001:00007056       ?JoinNameToSession@@YA_NHPAD@Z 00408056 f   MPlayer.obj
 0001:0000709c       ??0NetCash@@QAE@XZ         0040809c f   MPlayer.obj
 0001:000070c7       ??1NetCash@@QAE@XZ         004080c7 f   MPlayer.obj
 0001:00007122       ?SendToAllPlayersEx@@YA_NKPAX_N@Z 00408122 f   MPlayer.obj
 0001:0000732c       ?SendToAllPlayersExNew@@YA_NKPAX_N@Z 0040832c f   MPlayer.obj
 0001:0000760a       ?SendToPlayerEx@@YA_NKPAXK@Z 0040860a f   MPlayer.obj
 0001:000077b3       ?SendToPlayerExNew@@YA_NKPAXK@Z 004087b3 f   MPlayer.obj
 0001:0000794f       ?AddOne@NetCash@@QAEXPAEHK@Z 0040894f f   MPlayer.obj
 0001:00007af7       ?AddWithDelay@NetCash@@QAEXPAEHKH@Z 00408af7 f   MPlayer.obj
 0001:00007bd7       ?Add@NetCash@@QAEXPAEHK@Z  00408bd7 f   MPlayer.obj
 0001:00007c5b       ?Process@NetCash@@QAEXXZ   00408c5b f   MPlayer.obj
 0001:00007de9       ?ProcessNetCash@@YAXXZ     00408de9 f   MPlayer.obj
 0001:00007df8       ?SendToAllPlayers@@YA_NKPAX@Z 00408df8 f   MPlayer.obj
 0001:00007e56       ?SendToAllPlayersWithDelay@@YA_NKPAXH@Z 00408e56 f   MPlayer.obj
 0001:00007e9b       ?SendToAllPlayers@@YA_NKPAX_N@Z 00408e9b f   MPlayer.obj
 0001:00007edc       ?SendToPlayer@@YA_NKPAXK@Z 00408edc f   MPlayer.obj
 0001:00007f1d       ?SendToServer@@YA_NKPAX@Z  00408f1d f   MPlayer.obj
 0001:00007fe0       ?FreePDatas@@YAXXZ         00408fe0 f   MPlayer.obj
 0001:00008038       ?ComeInGame@@YAXXZ         00409038 f   MPlayer.obj
 0001:000082a8       ?StartGame@@YA_NXZ         004092a8 f   MPlayer.obj
 0001:00008494       ?CreateStartTime@@YAXXZ    00409494 f   MPlayer.obj
 0001:0000856d       ?ReCreateStartTime@@YAXXZ  0040956d f   MPlayer.obj
 0001:000086ca       ?CheckSender@@YA_NXZ       004096ca f   MPlayer.obj
 0001:00008777       ?StartIGame@@YA_N_N@Z      00409777 f   MPlayer.obj
 0001:00008bc4       ?AnalyseMessages@@YAXXZ    00409bc4 f   MPlayer.obj
 0001:00008f73       ?xAnalyseMessages@@YAXXZ   00409f73 f   MPlayer.obj
 0001:0000900e       ?IAmLeft@@YAXXZ            0040a00e f   MPlayer.obj
 0001:0000907a       ?DumpDataTo@@YAXPADPAEH@Z  0040a07a f   MPlayer.obj
 0001:000090dd       ?ShowCString@@YAXHHPADPAVRLCFont@@@Z 0040a0dd f   MPlayer.obj
 0001:0000910e       ?SHOWDUMP@@YAXPADHHHPAEH@Z 0040a10e f   MPlayer.obj
 0001:000091e9       ?HandleMultiplayer@@YAXXZ  0040a1e9 f   MPlayer.obj
 0001:0000a57d       ?RetryNet@@YAX_N@Z         0040b57d f   MPlayer.obj
 0001:0000a67c       ?SendChat@@YAXPAD_N@Z      0040b67c f   MPlayer.obj
 0001:0000a6f5       ?CloseMPL@@YAXXZ           0040b6f5 f   MPlayer.obj
 0001:0000a760       ?SETPLAYERDATA@@YAXKPAXH_N@Z 0040b760 f   MPlayer.obj
 0001:0000a831       ?SETPLAYERNAME@@YAXPAUDPNAME@@_N@Z 0040b831 f   MPlayer.obj
 0001:0000a8ff       ?ProcessNewInternet@@YAXXZ 0040b8ff f   MPlayer.obj
 0001:0000a919       ?ProcessSyncroMain@@YA_NPAVSaveBuf@@@Z 0040b919 f   MPlayer.obj
 0001:0000afbc       ?ProcessSyncroChild@@YA_NPAVSaveBuf@@@Z 0040bfbc f   MPlayer.obj
 0001:0000b2e3       ?LoadSaveFileMain@@YAXPAD@Z 0040c2e3 f   MPlayer.obj
 0001:0000b3b0       ?LoadSaveFileChild@@YAXXZ  0040c3b0 f   MPlayer.obj
 0001:0000b449       ?LoadSaveFile@@YAXXZ       0040c449 f   MPlayer.obj
 0001:0000b464       ?SyncroDoctor@@YAXXZ       0040c464 f   MPlayer.obj
 0001:0000b501       ??0PingSumm@@QAE@XZ        0040c501 f   MPlayer.obj
 0001:0000b522       ??1PingSumm@@QAE@XZ        0040c522 f   MPlayer.obj
 0001:0000b57e       ?AddPing@PingSumm@@QAEXKKKK@Z 0040c57e f   MPlayer.obj
 0001:0000b79a       ?GetTimeDifference@PingSumm@@QAEHK@Z 0040c79a f   MPlayer.obj
 0001:0000b8e3       ?CreateDiffStr@@YAXPAD@Z   0040c8e3 f   MPlayer.obj
 0001:0000bbac       ?CheckPlayer@PingSumm@@QAEHK@Z 0040cbac f   MPlayer.obj
 0001:0000bc01       ?AddPlayer@PingSumm@@QAEXK@Z 0040cc01 f   MPlayer.obj
 0001:0000bcc8       ?ClearPingInfo@PingSumm@@QAEXXZ 0040ccc8 f   MPlayer.obj
 0001:0000bd37       ?SendPings@@YAXXZ          0040cd37 f   MPlayer.obj
 0001:0000be2f       ?CheckPingsReady@@YA_NXZ   0040ce2f f   MPlayer.obj
 0001:0000be95       ?CheckExistConn@@YA_NXZ    0040ce95 f   MPlayer.obj
 0001:0000befa       ?PrintBadConn@@YAXPAD@Z    0040cefa f   MPlayer.obj
 0001:0000bfb5       ?GetReadyPercent@@YAHXZ    0040cfb5 f   MPlayer.obj
 0001:0000c038       ?GetAveragePing@@YAHXZ     0040d038 f   MPlayer.obj
 0001:0000c14c       ?GetMaxRealPing@@YAHXZ     0040d14c f   MPlayer.obj
 0001:0000c241       ?GetPing@@YAHK@Z           0040d241 f   MPlayer.obj
 0001:0000c34d       ??0PLAYERSBACKUP@@QAE@XZ   0040d34d f   MPlayer.obj
 0001:0000c368       ??1PLAYERSBACKUP@@QAE@XZ   0040d368 f   MPlayer.obj
 0001:0000c3ba       ?Clear@PLAYERSBACKUP@@QAEXXZ 0040d3ba f   MPlayer.obj
 0001:0000c40c       ?AddInf@PLAYERSBACKUP@@QAEXPAEHKH@Z 0040d40c f   MPlayer.obj
 0001:0000c557       ?SendInfoAboutTo@PLAYERSBACKUP@@QAEXKKK@Z 0040d557 f   MPlayer.obj
 0001:0000c64f       ??0RETRANS@@QAE@XZ         0040d64f f   MPlayer.obj
 0001:0000c67a       ??1RETRANS@@QAE@XZ         0040d67a f   MPlayer.obj
 0001:0000c68d       ?Clear@RETRANS@@QAEXXZ     0040d68d f   MPlayer.obj
 0001:0000c6c3       ?AddOneRet@RETRANS@@QAEXKKK@Z 0040d6c3 f   MPlayer.obj
 0001:0000c7bb       ?AddSection@RETRANS@@QAEXKKK@Z 0040d7bb f   MPlayer.obj
 0001:0000c7fb       ?CheckRetr@RETRANS@@QAEXKK@Z 0040d7fb f   MPlayer.obj
 0001:0000c916       ??0LoosedPack@@QAE@XZ      0040d916 f   MPlayer.obj
 0001:0000c976       ??1LoosedPack@@QAE@XZ      0040d976 f   MPlayer.obj
 0001:0000c989       ?DeleteBadPlayers@LoosedPack@@QAEXXZ 0040d989 f   MPlayer.obj
 0001:0000caa7       ?GetLoosePercent@LoosedPack@@QAEHK@Z 0040daa7 f   MPlayer.obj
 0001:0000cb23       ?Clear@LoosedPack@@QAEXXZ  0040db23 f   MPlayer.obj
 0001:0000cbc2       ?Add@LoosedPack@@QAEXKH@Z  0040dbc2 f   MPlayer.obj
 0001:0000ce01       ?Remove@LoosedPack@@QAEXH@Z 0040de01 f   MPlayer.obj
 0001:0000cfa3       ?Process@LoosedPack@@QAEXXZ 0040dfa3 f   MPlayer.obj
 0001:0000d0fb       ?GetLastAnswerTime@LoosedPack@@QAEHK@Z 0040e0fb f   MPlayer.obj
 0001:0000d185       ?StartPing@@YAXKH@Z        0040e185 f   MPlayer.obj
 0001:0000d1a6       ?EndPing@@YAXH@Z           0040e1a6 f   MPlayer.obj
 0001:0000d1b9       ?GetLString@@YAPADK@Z      0040e1b9 f   MPlayer.obj
 0001:0000d207       ?GetLastAnswerT@@YAHK@Z    0040e207 f   MPlayer.obj
 0001:0000d21a       ?ShowTMT@@YAXXZ            0040e21a f   MPlayer.obj
 0001:0000d224       ?ClearLPACK@@YAXXZ         0040e224 f   MPlayer.obj
 0001:0000d233       ?DelBADPL@@YAXXZ           0040e233 f   MPlayer.obj
 0001:0000d242       ?DeepDeletePeer@@YAXK@Z    0040e242 f   MPlayer.obj
 0001:0000d256       ?CreateAnswerString@@YAXPAD@Z 0040e256 f   MPlayer.obj
 0001:0000d460       ?GetLx@SQPicture@@QAEHXZ   0040e460 f i MPlayer.obj
 0001:0000d490       ?GetLy@SQPicture@@QAEHXZ   0040e490 f i MPlayer.obj
 0001:0000d4c0       ??4SQPicture@@QAEAAV0@ABV0@@Z 0040e4c0 f i MPlayer.obj
 0001:0000d4e0       ??4SimpleDialog@@QAEAAV0@ABV0@@Z 0040e4e0 f i MPlayer.obj
 0001:0000d510       ??0Picture@@QAE@XZ         0040e510 f i MPlayer.obj
 0001:0000d530       ??4Picture@@QAEAAV0@ABV0@@Z 0040e530 f i MPlayer.obj
 0001:0000d560       ??0RLCPicture@@QAE@XZ      0040e560 f i MPlayer.obj
 0001:0000d580       ??4RLCPicture@@QAEAAV0@ABV0@@Z 0040e580 f i MPlayer.obj
 0001:0000d5b0       ??0GPPicture@@QAE@XZ       0040e5b0 f i MPlayer.obj
 0001:0000d5d0       ??4GPPicture@@QAEAAV0@ABV0@@Z 0040e5d0 f i MPlayer.obj
 0001:0000d600       ??4TextMessage@@QAEAAV0@ABV0@@Z 0040e600 f i MPlayer.obj
 0001:0000d630       ??0TextButton@@QAE@XZ      0040e630 f i MPlayer.obj
 0001:0000d650       ??4TextButton@@QAEAAV0@ABV0@@Z 0040e650 f i MPlayer.obj
 0001:0000d680       ??0GP_TextButton@@QAE@XZ   0040e680 f i MPlayer.obj
 0001:0000d6a0       ??4GP_TextButton@@QAEAAV0@ABV0@@Z 0040e6a0 f i MPlayer.obj
 0001:0000d6d0       ??0UniversalButton@@QAE@XZ 0040e6d0 f i MPlayer.obj
 0001:0000d6f0       ??4UniversalButton@@QAEAAV0@ABV0@@Z 0040e6f0 f i MPlayer.obj
 0001:0000d720       ??0VideoButton@@QAE@XZ     0040e720 f i MPlayer.obj
 0001:0000d740       ??4VideoButton@@QAEAAV0@ABV0@@Z 0040e740 f i MPlayer.obj
 0001:0000d770       ?SetMaxPos@VScrollBar@@QAEXH@Z 0040e770 f i MPlayer.obj
 0001:0000d790       ?GetMaxPos@VScrollBar@@QAEHXZ 0040e790 f i MPlayer.obj
 0001:0000d7b0       ?GetPos@VScrollBar@@QAEHXZ 0040e7b0 f i MPlayer.obj
 0001:0000d7d0       ??0VScrollBar@@QAE@XZ      0040e7d0 f i MPlayer.obj
 0001:0000d7f0       ??4VScrollBar@@QAEAAV0@ABV0@@Z 0040e7f0 f i MPlayer.obj
 0001:0000d820       ??0BpxTextButton@@QAE@XZ   0040e820 f i MPlayer.obj
 0001:0000d840       ??4BpxTextButton@@QAEAAV0@ABV0@@Z 0040e840 f i MPlayer.obj
 0001:0000d870       ??0ComplexBox@@QAE@XZ      0040e870 f i MPlayer.obj
 0001:0000d890       ??4ComplexBox@@QAEAAV0@ABV0@@Z 0040e890 f i MPlayer.obj
 0001:0000d8c0       ??0Canvas@@QAE@XZ          0040e8c0 f i MPlayer.obj
 0001:0000d8e0       ??4Canvas@@QAEAAV0@ABV0@@Z 0040e8e0 f i MPlayer.obj
 0001:0000d910       ??0CustomBox@@QAE@XZ       0040e910 f i MPlayer.obj
 0001:0000d930       ??4CustomBox@@QAEAAV0@ABV0@@Z 0040e930 f i MPlayer.obj
 0001:0000d960       ??0ListBox@@QAE@XZ         0040e960 f i MPlayer.obj
 0001:0000d980       ??4ListBox@@QAEAAV0@ABV0@@Z 0040e980 f i MPlayer.obj
 0001:0000d9b0       ??0RLCListBox@@QAE@XZ      0040e9b0 f i MPlayer.obj
 0001:0000d9d0       ??4RLCListBox@@QAEAAV0@ABV0@@Z 0040e9d0 f i MPlayer.obj
 0001:0000da00       ??0InputBox@@QAE@XZ        0040ea00 f i MPlayer.obj
 0001:0000da20       ??4InputBox@@QAEAAV0@ABV0@@Z 0040ea20 f i MPlayer.obj
 0001:0000da50       ??0CheckBox@@QAE@XZ        0040ea50 f i MPlayer.obj
 0001:0000da70       ??4CheckBox@@QAEAAV0@ABV0@@Z 0040ea70 f i MPlayer.obj
 0001:0000daa0       ??0ColoredBar@@QAE@XZ      0040eaa0 f i MPlayer.obj
 0001:0000dac0       ??4ColoredBar@@QAEAAV0@ABV0@@Z 0040eac0 f i MPlayer.obj
 0001:0000daf0       ??0ChatViewer@@QAE@XZ      0040eaf0 f i MPlayer.obj
 0001:0000db10       ??4ChatViewer@@QAEAAV0@ABV0@@Z 0040eb10 f i MPlayer.obj
 0001:0000db40       ??0TextViewer@@QAE@XZ      0040eb40 f i MPlayer.obj
 0001:0000db60       ??4TextViewer@@QAEAAV0@ABV0@@Z 0040eb60 f i MPlayer.obj
 0001:0000db90       ??0BPXView@@QAE@XZ         0040eb90 f i MPlayer.obj
 0001:0000dbb0       ??4BPXView@@QAEAAV0@ABV0@@Z 0040ebb0 f i MPlayer.obj
 0001:0000dbe0       ??0WinComboBox@@QAE@XZ     0040ebe0 f i MPlayer.obj
 0001:0000dc00       ??4WinComboBox@@QAEAAV0@ABV0@@Z 0040ec00 f i MPlayer.obj
 0001:0000dc30       ??0ComboBox@@QAE@XZ        0040ec30 f i MPlayer.obj
 0001:0000dc50       ??4ComboBox@@QAEAAV0@ABV0@@Z 0040ec50 f i MPlayer.obj
 0001:0000dc80       ??0GP_Button@@QAE@XZ       0040ec80 f i MPlayer.obj
 0001:0000dca0       ??4GP_Button@@QAEAAV0@ABV0@@Z 0040eca0 f i MPlayer.obj
 0001:0000dcd0       ??0GP_PageControl@@QAE@XZ  0040ecd0 f i MPlayer.obj
 0001:0000dcf0       ??4GP_PageControl@@QAEAAV0@ABV0@@Z 0040ecf0 f i MPlayer.obj
 0001:0000dd20       ??0BorderEx@@QAE@XZ        0040ed20 f i MPlayer.obj
 0001:0000dd40       ??4BorderEx@@QAEAAV0@ABV0@@Z 0040ed40 f i MPlayer.obj
 0001:0000dd70       ??0CustomBorder@@QAE@XZ    0040ed70 f i MPlayer.obj
 0001:0000dd90       ??4CustomBorder@@QAEAAV0@ABV0@@Z 0040ed90 f i MPlayer.obj
 0001:0000ddc0       ??4DialogsSystem@@QAEAAV0@ABV0@@Z 0040edc0 f i MPlayer.obj
 0001:0000ddf0       ??4GP_Header@@QAEAAV0@ABV0@@Z 0040edf0 f i MPlayer.obj
 0001:0000de20       ??4GP_GlobalHeader@@QAEAAU0@ABU0@@Z 0040ee20 f i MPlayer.obj
 0001:0000de50       ??4UNIFONTS@@QAEAAV0@ABV0@@Z 0040ee50 f i MPlayer.obj
 0001:0000de70       ??4GP_System@@QAEAAV0@ABV0@@Z 0040ee70 f i MPlayer.obj
 0001:0000dea0       ??4LocalGP@@QAEAAV0@ABV0@@Z 0040eea0 f i MPlayer.obj
 0001:0000dec0       ?IsServer@CCommCore@@QAEHXZ 0040eec0 f i MPlayer.obj
 0001:0000dee0       ??8@YAHABU_GUID@@0@Z       0040eee0 f i MPlayer.obj
 0001:0000df00       ?GetPeerID@CCommCore@@QAEGXZ 0040ef00 f i MPlayer.obj
 0001:0000df20       ?GetOptions@CCommCore@@QAEKXZ 0040ef20 f i MPlayer.obj
 0001:0000df40       ?CloseSession@CCommCore@@QAEXXZ 0040ef40 f i MPlayer.obj
 0001:0000df60       ?SetMaxPeers@CCommCore@@QAEXG@Z 0040ef60 f i MPlayer.obj
 0001:0000df80       ?SetOptions@CCommCore@@QAEXK@Z 0040ef80 f i MPlayer.obj
 0001:0000dfa0       ?IsClient@CCommCore@@QAEHXZ 0040efa0 f i MPlayer.obj
 0001:0000dfc0       ?GetMaxPeers@CCommCore@@QAEGXZ 0040efc0 f i MPlayer.obj
 0001:0000e01f       ?PEER_GetPlayerProfileIDCallback@@YAXPAXW4PEERBool@@PBDH0@Z 0040f01f f   PeerClass.obj
 0001:0000e098       ?Process@TotalPeerEngine@@QAEXXZ 0040f098 f   PeerClass.obj
 0001:0000e32a       ?SendGlobalChat@TotalPeerEngine@@QAEXPAD@Z 0040f32a f   PeerClass.obj
 0001:0000e3be       ?AddPlayer@TotalPeerEngine@@QAEXPAD@Z 0040f3be f   PeerClass.obj
 0001:0000e810       ?DelPlayer@TotalPeerEngine@@QAEXPAD@Z 0040f810 f   PeerClass.obj
 0001:0000e8f1       ?SetPing@TotalPeerEngine@@QAEXPADH@Z 0040f8f1 f   PeerClass.obj
 0001:0000e970       ??0TotalPeerEngine@@QAE@XZ 0040f970 f   PeerClass.obj
 0001:0000e99c       ??1TotalPeerEngine@@QAE@XZ 0040f99c f   PeerClass.obj
 0001:0000e9af       ?Disconnect@TotalPeerEngine@@QAEXXZ 0040f9af f   PeerClass.obj
 0001:0000ebba       ?PEER_DisconnectCallback@@YAXPAXPBD0@Z 0040fbba f   PeerClass.obj
 0001:0000ecbe       ?PEER_RoomMessageCallback@@YAXPAXW4RoomType@@PBD20@Z 0040fcbe f   PeerClass.obj
 0001:0000efd7       ?PEER_RoomNameChangedCallback@@YAXPAXW4RoomType@@0@Z 0040ffd7 f   PeerClass.obj
 0001:0000efe5       ?GetStrHASH2@@YAHPAD@Z     0040ffe5 f   PeerClass.obj
 0001:0000f1f7       ?PEER_PlayerMessageCallback@@YAXPAXPBD10@Z 004101f7 f   PeerClass.obj
 0001:0000fbe7       ?PEER_ReadyChangedCallback@@YAXPAXPBDW4PEERBool@@0@Z 00410be7 f   PeerClass.obj
 0001:0000fc30       ?PEER_GameStartedCallback@@YAXPAXIPBD0@Z 00410c30 f   PeerClass.obj
 0001:0000fc54       ?PEER_PlayerJoinedCallback@@YAXPAXW4RoomType@@PBD0@Z 00410c54 f   PeerClass.obj
 0001:0000fc6e       ?PEER_PlayerLeftCallback@@YAXPAXW4RoomType@@PBD0@Z 00410c6e f   PeerClass.obj
 0001:0000fc88       ?PEER_PlayerChangedNickCallback@@YAXPAXW4RoomType@@PBD20@Z 00410c88 f   PeerClass.obj
 0001:0000fc8d       ?PEER_PingCallback@@YAXPAXPBDH0@Z 00410c8d f   PeerClass.obj
 0001:0000fce2       ?PEER_CrossPingCallback@@YAXPAXPBD1H0@Z 00410ce2 f   PeerClass.obj
 0001:0000fcf0       ?PEER_GOABasic@@YAXPAXW4PEERBool@@PADH0@Z 00410cf0 f   PeerClass.obj
 0001:0000fd1b       ?PEER_GOAInfo@@YAXPAXW4PEERBool@@PADH0@Z 00410d1b f   PeerClass.obj
 0001:0000fddf       ?GetCEW@@YAHPAUGServerImplementation@@H@Z 00410ddf f   PeerClass.obj
 0001:0000fe4f       ?PEER_GOAPlayers@@YAXPAXW4PEERBool@@PADH0@Z 00410e4f f   PeerClass.obj
 0001:0000fe5d       ?PEER_GOARules@@YAXPAXW4PEERBool@@PADH0@Z 00410e5d f   PeerClass.obj
 0001:0000fe6b       ?NormName@@YA_NPAD@Z       00410e6b f   PeerClass.obj
 0001:0000ff22       ?PEER_NickErrorCallback@@YAXPAXHPBD0@Z 00410f22 f   PeerClass.obj
 0001:00010125       ?PEER_EnumPlayersCallback@@YAXPAXW4PEERBool@@W4RoomType@@HPBD10@Z 00411125 f   PeerClass.obj
 0001:0001014b       ?PEER_ListingGamesCallback@@YAXPAXW4PEERBool@@PBDPAUGServerImplementation@@1HH0@Z 0041114b f   PeerClass.obj
 0001:000101d6       ?CheckFirewall@@YA_NK@Z    004111d6 f   PeerClass.obj
 0001:00010263       ?PEER_JoinRoomCallback@@YAXPAXW4PEERBool@@W4RoomType@@0@Z 00411263 f   PeerClass.obj
 0001:000102f4       ?PEER_ConnectCallback@@YAXPAXW4PEERBool@@0@Z 004112f4 f   PeerClass.obj
 0001:000103fb       _BLOCKFN                   004113fb f   PeerClass.obj
 0001:0001040a       ?Connect@TotalPeerEngine@@QAEXPAD@Z 0041140a f   PeerClass.obj
 0001:00010563       ?RefreshPlayers@TotalPeerEngine@@QAEXXZ 00411563 f   PeerClass.obj
 0001:00010791       ?Clear@ChatQueue@@QAEXXZ   00411791 f   PeerClass.obj
 0001:0001080f       ?Add@ChatQueue@@QAEXPAD0@Z 0041180f f   PeerClass.obj
 0001:000108f6       ?PEER_EnumPlayersCallback2@@YAXPAXW4PEERBool@@W4RoomType@@HPBD10@Z 004118f6 f   PeerClass.obj
 0001:00010939       ?PEER_EnumPlayersCallback3@@YAXPAXW4PEERBool@@W4RoomType@@HPBD10@Z 00411939 f   PeerClass.obj
 0001:000109a0       ?PEER_JoinRoomCallback2@@YAXPAXW4PEERBool@@W4RoomType@@0@Z 004119a0 f   PeerClass.obj
 0001:00010a14       ?PEER_JoinRoomCallback3@@YAXPAXW4PEERBool@@W4RoomType@@0@Z 00411a14 f   PeerClass.obj
 0001:00010a7a       ?CreateStagingRoom@TotalPeerEngine@@QAEXPAD0HHH@Z 00411a7a f   PeerClass.obj
 0001:00010bcc       ?AddServer@TotalPeerEngine@@QAEXPADPAUGServerImplementation@@@Z 00411bcc f   PeerClass.obj
 0001:00010d82       ?DelServer@TotalPeerEngine@@QAEXPADPAUGServerImplementation@@@Z 00411d82 f   PeerClass.obj
 0001:00010e77       ?UpdateServer@TotalPeerEngine@@QAEXPADPAUGServerImplementation@@@Z 00411e77 f   PeerClass.obj
 0001:00010e84       ?ClearServers@TotalPeerEngine@@QAEXXZ 00411e84 f   PeerClass.obj
 0001:00010eb0       ?AddPlayer@TPE_MyRoom@@QAEXPAD@Z 00411eb0 f   PeerClass.obj
 0001:00011290       ?DelPlayer@TPE_MyRoom@@QAEXPAD@Z 00412290 f   PeerClass.obj
 0001:00011360       ?SetPing@TPE_MyRoom@@QAEXPADH@Z 00412360 f   PeerClass.obj
 0001:000113d1       ?SetReady@TPE_MyRoom@@QAEXPAD_N@Z 004123d1 f   PeerClass.obj
 0001:0001145d       ?Refresh@TPE_MyRoom@@QAEXXZ 0041245d f   PeerClass.obj
 0001:00011793       ?RefreshSessions@TotalPeerEngine@@QAEXXZ 00412793 f   PeerClass.obj
 0001:000117b9       ?SendLocalChat@TotalPeerEngine@@QAEXPAD@Z 004127b9 f   PeerClass.obj
 0001:00011810       ?JoinRoom@TotalPeerEngine@@QAEXPAVTPE_Room@@PAD@Z 00412810 f   PeerClass.obj
 0001:000118f3       ?LeaveMyRoom@TotalPeerEngine@@QAEXXZ 004128f3 f   PeerClass.obj
 0001:000119bd       ?ChangeMyReady@TPE_MyRoom@@QAEXXZ 004129bd f   PeerClass.obj
 0001:00011a4c       ?ResetMyReady@TPE_MyRoom@@QAEXXZ 00412a4c f   PeerClass.obj
 0001:00011ad6       ?SetMyReady@TPE_MyRoom@@QAEX_N@Z 00412ad6 f   PeerClass.obj
 0001:00011afe       ?RunGame@TPE_MyRoom@@QAEXXZ 00412afe f   PeerClass.obj
 0001:00011b54       ?ProcessFilter@TotalPeerEngine@@QAEXXZ 00412b54 f   PeerClass.obj
 0001:000120d2       ?CheckInFilter@TotalPeerEngine@@QAE_NPAVTPE_Room@@@Z 004130d2 f   PeerClass.obj
 0001:0001227f       ?CheckGInFilter@TotalPeerEngine@@QAE_NPAURoomInGame@@@Z 0041327f f   PeerClass.obj
 0001:0001234c       ?CompareGRooms@TotalPeerEngine@@QAEHPAURoomInGame@@0@Z 0041334c f   PeerClass.obj
 0001:000124ca       ?CompareRooms@TotalPeerEngine@@QAEHPAVTPE_Room@@0@Z 004134ca f   PeerClass.obj
 0001:00012967       ?PEER_EnumPlayersCallback4@@YAXPAXW4PEERBool@@W4RoomType@@HPBD10@Z 00413967 f   PeerClass.obj
 0001:000129ac       ?CreateMyRoomInfoString@TotalPeerEngine@@QAEXPAD@Z 004139ac f   PeerClass.obj
 0001:00012a02       ?AddRoomInGame@TotalPeerEngine@@QAEXPAD@Z 00413a02 f   PeerClass.obj
 0001:00012e42       ?ProcessRoomsInGame@TotalPeerEngine@@QAEXXZ 00413e42 f   PeerClass.obj
 0001:00013675       ?AddPlayer@AbsentPlayers@@QAEXPAD@Z 00414675 f   PeerClass.obj
 0001:00013861       ?DelPlayer@AbsentPlayers@@QAEXPAD@Z 00414861 f   PeerClass.obj
 0001:00013951       ?Clear@AbsentPlayers@@QAEXXZ 00414951 f   PeerClass.obj
 0001:000139db       ?Process@AbsentPlayers@@QAEXXZ 004149db f   PeerClass.obj
 0001:00013ad3       ?StartGame@TotalPeerEngine@@QAEX_N@Z 00414ad3 f   PeerClass.obj
 0001:00013c8f       ?MarkNameLikeUnical@@YAXH_N@Z 00414c8f f   PeerClass.obj
 0001:00013cfa       ?PEER_GetPlayerIPCallback@@YAXPAXW4PEERBool@@PBDI0@Z 00414cfa f   PeerClass.obj
 0001:00013d4f       ?GetPLIP@@YA_NPAD0@Z       00414d4f f   PeerClass.obj
 0001:00013db0       ?CheckBrIntegrity@@YAXXZ   00414db0 f   Brigade.obj
 0001:00013e5c       ?Init@Brigade@@QAEXPAVCity@@G@Z 00414e5c f   Brigade.obj
 0001:00013ed4       ?RemoveOne@Brigade@@QAE_NHPAV1@@Z 00414ed4 f   Brigade.obj
 0001:00014095       ?FreeMember@Brigade@@QAEXH@Z 00415095 f   Brigade.obj
 0001:0001425c       ?RemovePeasants@Brigade@@QAEXPAV1@@Z 0041525c f   Brigade.obj
 0001:00014316       ?AddObject@Brigade@@QAEXPAVOneObject@@@Z 00415316 f   Brigade.obj
 0001:0001444b       ?CheckMembers@Brigade@@QAEXPAVCity@@@Z 0041544b f   Brigade.obj
 0001:000146b9       ?RemoveObjects@Brigade@@QAEXHPAV1@@Z 004156b9 f   Brigade.obj
 0001:00014766       ?DeleteAll@Brigade@@QAEXXZ 00415766 f   Brigade.obj
 0001:000147dd       ?SetIndex@Brigade@@QAEXXZ  004157dd f   Brigade.obj
 0001:00014887       ?GetBrigade@OneObject@@QAEPAVBrigade@@XZ 00415887 f   Brigade.obj
 0001:000149f6       ?CreateOrder@Brigade@@QAEPAVBrigadeOrder@@EH@Z 004159f6 f   Brigade.obj
 0001:00014aa3       ?DeleteBOrder@Brigade@@QAEXXZ 00415aa3 f   Brigade.obj
 0001:00014add       ?ClearBOrders@Brigade@@QAEXXZ 00415add f   Brigade.obj
 0001:00014afb       ?CreateConvoy@Brigade@@QAEXE@Z 00415afb f   Brigade.obj
 0001:00014c7e       ?CorrectOnePosition@@YA_NPAH0@Z 00415c7e f   Brigade.obj
 0001:00014d5a       ?CheckTopPointPos@@YAXHHPAH0@Z 00415d5a f   Brigade.obj
 0001:00014f1b       ?CorrectPositions@@YA_NPAHG@Z 00415f1b f   Brigade.obj
 0001:00014ffa       ?SelectPeasants@Brigade@@QAEHE@Z 00415ffa f   Brigade.obj
 0001:00015375       ?GetTopology@@YAHHH@Z      00416375 f   Brigade.obj
 0001:000154eb       ?GetTopology@@YAHPAH0@Z    004164eb f   Brigade.obj
 0001:00015681       ?B_LocalSendToLink@@YAXPAVBrigade@@@Z 00416681 f   Brigade.obj
 0001:00015965       ?LinearLocalSendTo@Brigade@@QAE_NHHEE@Z 00416965 f   Brigade.obj
 0001:00015c92       ?LocalSendTo@Brigade@@QAE_NHHEE@Z 00416c92 f   Brigade.obj
 0001:00015ffe       ?B_WideLocalSendToLink@@YAXPAVBrigade@@@Z 00416ffe f   Brigade.obj
 0001:00016451       ?WideLocalSendTo@Brigade@@QAE_NHHEE@Z 00417451 f   Brigade.obj
 0001:00016653       ?AddInRadius@Brigade@@QAEHHHHPAUBrigMemb@@PAV1@@Z 00417653 f   Brigade.obj
 0001:0001681a       ?AddInRadius@Brigade@@QAEHHHHPAUBrigMemb@@@Z 0041781a f   Brigade.obj
 0001:00016c3e       ?B_GlobalSendToLink@@YAXPAVBrigade@@@Z 00417c3e f   Brigade.obj
 0001:00016e73       ?GlobalSendTo@Brigade@@QAE_NHHEE@Z 00417e73 f   Brigade.obj
 0001:00016ecd       ?AllowBuilder@@YAXPAVBrigade@@@Z 00417ecd f   Brigade.obj
 0001:00016f65       ?B_CaptureMineLink@@YAXPAVBrigade@@@Z 00417f65 f   Brigade.obj
 0001:00017684       ?CaptureMine@Brigade@@QAE_NHEE@Z 00418684 f   Brigade.obj
 0001:00017720       ?Rospusk@Brigade@@QAEXXZ   00418720 f   Brigade.obj
 0001:0001782d       ?B_MakeBattleLink@@YAXPAVBrigade@@@Z 0041882d f   Brigade.obj
 0001:00017b14       ?MakeBattle@Brigade@@QAEXXZ 00418b14 f   Brigade.obj
 0001:00017b70       ?CorrectMB@@YAPAVMineBase@@PAV1@@Z 00418b70 f   Brigade.obj
 0001:00017bc2       ?B_ProtectOrder@@YAXPAVBrigade@@@Z 00418bc2 f   Brigade.obj
 0001:00017bc7       ?ProtectFarMines@Brigade@@QAEXXZ 00418bc7 f   Brigade.obj
 0001:00017c65       ?GetCenter@Brigade@@QAE_NPAH0@Z 00418c65 f   Brigade.obj
 0001:00017d72       ?GetBrCenter@@YA_NPAVBrigade@@PAH1@Z 00418d72 f   Brigade.obj
 0001:00017e44       ?FindUnitsInCell@@YAHHHHHHEHPAG@Z 00418e44 f   Brigade.obj
 0001:00017fca       ?FindUnits@@YAHHHHHEHPAG@Z 00418fca f   Brigade.obj
 0001:00018114       ?CheckBrigadeDUP@@YAXPAVBrigade@@@Z 00419114 f   Brigade.obj
 0001:000181c8       ?FillFormation@@YAXPAVBrigade@@@Z 004191c8 f   Brigade.obj
 0001:000186da       ?CreateNearOfficer@Brigade@@QAE_NPAVOneObject@@GH@Z 004196da f   Brigade.obj
 0001:00018bda       ?FindCommandPlace@@YAHPAH0EPAVOneObject@@HPAVOrderDescription@@@Z 00419bda f   Brigade.obj
 0001:00018d2f       ?CreateOrderedPositions@Brigade@@QAEXHHD@Z 00419d2f f   Brigade.obj
 0001:000190bb       ?CreateSimpleOrderedPositions@Brigade@@QAEXHHD@Z 0041a0bb f   Brigade.obj
 0001:00019480       ?HumanCheckUnits@Brigade@@QAEXXZ 0041a480 f   Brigade.obj
 0001:0001953a       ?FilterDir@@YAFF@Z         0041a53a f   Brigade.obj
 0001:00019549       ?ApplySwap@@YAXPAVBrigade@@PAG@Z 0041a549 f   Brigade.obj
 0001:0001987a       ?HumanLocalSendToLink@@YAXPAVBrigade@@@Z 0041a87a f   Brigade.obj
 0001:00019c6a       ?HumanEscapeLink@@YAXPAVBrigade@@@Z 0041ac6a f   Brigade.obj
 0001:0001a026       ?HumanLocalSendTo@Brigade@@QAEXHHFEE@Z 0041b026 f   Brigade.obj
 0001:0001a13d       ?RotUnitLink@@YAXPAVOneObject@@@Z 0041b13d f   Brigade.obj
 0001:0001a1fe       ?RotUnit@@YAXPAVOneObject@@DE@Z 0041b1fe f   Brigade.obj
 0001:0001a24d       ?RotateUnit@@YA_NPAVOneObject@@D@Z 0041b24d f   Brigade.obj
 0001:0001a2a5       ?B_KeepPositionsLink@@YAXPAVBrigade@@@Z 0041b2a5 f   Brigade.obj
 0001:0001a58f       ?B_LeaveAttackLink@@YAXPAVBrigade@@@Z 0041b58f f   Brigade.obj
 0001:0001a72b       ?KeepPositions@Brigade@@QAEXEE@Z 0041b72b f   Brigade.obj
 0001:0001a848       ?DrawPlaneLine@@YAXHHHHE@Z 0041b848 f   Brigade.obj
 0001:0001a8d9       ?DrawMultiLine@@YAXHHHHE@Z 0041b8d9 f   Brigade.obj
 0001:0001a9b7       ?DrawRotLine@@YAXHHHHHHHHE@Z 0041b9b7 f   Brigade.obj
 0001:0001aa2c       ?DrawBorder@@YAXPAVBrigade@@@Z 0041ba2c f   Brigade.obj
 0001:0001aebc       ?OScale@@YAHH@Z            0041bebc f   Brigade.obj
 0001:0001aeca       ?FindCorrectTopPos@@YA_NHHPAH0@Z 0041beca f   Brigade.obj
 0001:0001aff2       ?FindCorrectTopPos1@@YA_NHHPAH0@Z 0041bff2 f   Brigade.obj
 0001:0001b169       ?OptimiseBrigadePosition@@YAXPAVBrigade@@@Z 0041c169 f   Brigade.obj
 0001:0001b6bb       ?CheckBDirectWay@@YA_NHHHH@Z 0041c6bb f   Brigade.obj
 0001:0001b7ef       ?CalcCenter@@YA_NPAVBrigade@@PAH1@Z 0041c7ef f   Brigade.obj
 0001:0001b8f6       ?B_HumanGlobalSendToLink@@YAXPAVBrigade@@@Z 0041c8f6 f   Brigade.obj
 0001:0001bbff       ?HumanGlobalSendTo@Brigade@@QAEXHHFEE@Z 0041cbff f   Brigade.obj
 0001:0001bcd2       ?EraseBrigade@@YAXPAVBrigade@@@Z 0041ccd2 f   Brigade.obj
 0001:0001c052       ?CheckMotionThroughEnemyAbility@@YAGPAVOneObject@@HH@Z 0041d052 f   Brigade.obj
 0001:0001c218       ?AddEnemXY@Brigade_Bitva@@QAEXHHHE@Z 0041d218 f   Brigade.obj
 0001:0001c5b1       ?B_BitvaLink@@YAXPAVBrigade@@@Z 0041d5b1 f   Brigade.obj
 0001:0001cf28       ?Bitva@Brigade@@QAEXXZ     0041df28 f   Brigade.obj
 0001:0001d237       ?CorrectBrigadesSelection@@YAXE@Z 0041e237 f   Brigade.obj
 0001:0001d49a       ?ImCorrectBrigadesSelection@@YAXE@Z 0041e49a f   Brigade.obj
 0001:0001d709       ?ArrangeAreas@@YAXHEH@Z    0041e709 f   Brigade.obj
 0001:0001d7a0       ?ResearchIslands@@YAXXZ    0041e7a0 f   Brigade.obj
 0001:0001ddc5       ?ResearchCurrentIsland@@YAXE@Z 0041edc5 f   Brigade.obj
 0001:0001e13d       ?ResearchBestPortToFish@@YAXE@Z 0041f13d f   Brigade.obj
 0001:0001e399       ?ProduceBattleShip@@YAXEG@Z 0041f399 f   Brigade.obj
 0001:0001e44e       ?ProduceLodka@@YAXEG@Z     0041f44e f   Brigade.obj
 0001:0001e504       ?ProduceByAI@@YAXEGG@Z     0041f504 f   Brigade.obj
 0001:0001e5c2       ?SearchMineToDestroy@@YAGPAVBrigade@@@Z 0041f5c2 f   Brigade.obj
 0001:0001ea7d       ?SearchEnemyToDestroy@@YAGPAVBrigade@@@Z 0041fa7d f   Brigade.obj
 0001:0001f147       ?TryToBeatByShips@@YAHPAVBrigade@@@Z 00420147 f   Brigade.obj
 0001:0001f5eb       ?TryToBeatByShipsWhenStand@@YAHPAVBrigade@@@Z 004205eb f   Brigade.obj
 0001:0001f604       ?LocalSendShipsLink@@YAXPAVBrigade@@@Z 00420604 f   Brigade.obj
 0001:0001f78f       ?ShowShipsDest@@YAXPAVBrigade@@@Z 0042078f f   Brigade.obj
 0001:0001f88d       ?LocalSendShipsOld@@YAXPAVBrigade@@HHE@Z 0042088d f   Brigade.obj
 0001:0001fec0       ?LocalSendShips@@YAXPAVBrigade@@HHE@Z 00420ec0 f   Brigade.obj
 0001:00020882       ?GetNearestBrig@@YAGPAVCity@@G@Z 00421882 f   Brigade.obj
 0001:00020965       ?GetNearestBrigToKillUnitsAndTowers@@YAGPAVCity@@G@Z 00421965 f   Brigade.obj
 0001:00020a59       ?GetNearestBrigToKillMines@@YAGPAVCity@@G@Z 00421a59 f   Brigade.obj
 0001:00020b4e       ?GetNearestBrigWithType@@YAGPAVCity@@GE@Z 00421b4e f   Brigade.obj
 0001:00020c49       ?MakeShipBattleLink@@YAXPAVBrigade@@@Z 00421c49 f   Brigade.obj
 0001:000216f3       ?DetermineWaterTopology@@YAGPAVBrigade@@@Z 004226f3 f   Brigade.obj
 0001:000219df       ?MakeShipBattle@@YAXPAVBrigade@@@Z 004229df f   Brigade.obj
 0001:00021a5e       ?RegisterWaterBrigade@City@@QAEXH@Z 00422a5e f   Brigade.obj
 0001:00021ab5       ?UnRegisterWaterBrigade@City@@QAEXH@Z 00422ab5 f   Brigade.obj
 0001:00021b08       ?CreateCostPlaces@@YAXXZ   00422b08 f   Brigade.obj
 0001:00021f6d       ?GetWarInCell@@YAHH@Z      00422f6d f   Brigade.obj
 0001:0002204c       ?CheckUnitsNearPoint@@YA_NHH@Z 0042304c f   Brigade.obj
 0001:0002215a       ?GetTrInCell@@YAHH@Z       0042315a f   Brigade.obj
 0001:00022220       ?CheckTransportNearPoint@@YAGHH@Z 00423220 f   Brigade.obj
 0001:00022324       ?ProcessCostPoints@@YAXXZ  00423324 f   Brigade.obj
 0001:00022431       ?ClearCostPlaces@@YAXXZ    00423431 f   Brigade.obj
 0001:00022440       ?DrawMetka@@YAXHHE@Z       00423440 f   Brigade.obj
 0001:0002250c       ?DrawNum@@YAXHHE@Z         0042350c f   Brigade.obj
 0001:000225c1       ?ShowCostPlaces@@YAXXZ     004235c1 f   Brigade.obj
 0001:000225c6       ?FindCostPoint@@YAHHHE@Z   004235c6 f   Brigade.obj
 0001:000226b0       ?FindCostPointEx@@YAHHHE@Z 004236b0 f   Brigade.obj
 0001:0002287e       ?MakeDiversionLink@@YAXPAVBrigade@@@Z 0042387e f   Brigade.obj
 0001:00023681       ?MakeDiversion@@YAXPAVBrigade@@@Z 00424681 f   Brigade.obj
 0001:00023712       ?CheckCap@@YAXXZ           00424712 f   Brigade.obj
 0001:000237ad       ?SearchArmyLink@@YAXPAVOneObject@@@Z 004247ad f   Brigade.obj
 0001:00024cfc       ?SearchArmy@@YAXPAVOneObject@@@Z 00425cfc f   Brigade.obj
 0001:00024d79       ?CalculateFreeUnits@@YAXPAVAI_Army@@@Z 00425d79 f   Brigade.obj
 0001:00025190       ?SafeTopRef@@YAGHH@Z       00426190 f i Brigade.obj
 0001:000251e0       ?Norma@@YAHHH@Z            004261e0 f i Brigade.obj
 0001:00025210       ?GetPX@@YAEHH@Z            00426210 f i Brigade.obj
 0001:00025260       ?SetPX@@YAXHHE@Z           00426260 f i Brigade.obj
 0001:000252b0       ?Clear@EnemyInfo@@QAEXXZ   004262b0 f   EinfoClass.obj
 0001:000252d3       ??0GlobalEnemyInfo@@QAE@XZ 004262d3 f   EinfoClass.obj
 0001:00025330       ??1GlobalEnemyInfo@@QAE@XZ 00426330 f   EinfoClass.obj
 0001:00025343       ?Setup@GlobalEnemyInfo@@QAEXXZ 00426343 f   EinfoClass.obj
 0001:0002551f       ?Clear@GlobalEnemyInfo@@QAEXXZ 0042651f f   EinfoClass.obj
 0001:000255b1       ?Process@GlobalEnemyInfo@@QAEXXZ 004265b1 f   EinfoClass.obj
 0001:0002577d       ?FindNearestEnemy@GlobalEnemyInfo@@QAE_NEPAH0_NH1@Z 0042677d f   EinfoClass.obj
 0001:00025c67       ?CreateListOfDangerObjects@EnemyInfo@@QAEXXZ 00426c67 f   EinfoClass.obj
 0001:00025e13       ?InitSuperMortiraCells@EnemyInfo@@QAEXXZ 00426e13 f   EinfoClass.obj
 0001:00025ea8       ?ResearchCellForSupermortira@EnemyInfo@@QAEGHHH@Z 00426ea8 f   EinfoClass.obj
 0001:00026318       ?SearchDangerousPlaceForEnemy@EnemyInfo@@QAEGPAH0HH@Z 00427318 f   EinfoClass.obj
 0001:00026600       ?FindSafePlace@EnemyInfo@@QAE_NPAH0@Z 00427600 f   EinfoClass.obj
 0001:000268a7       ?SearchBestEnemyAndPlaceForSupermortira@EnemyInfo@@QAEGPAVOneObject@@PAH1@Z 004278a7 f   EinfoClass.obj
 0001:00026a5f       ?CreateEnmBuildList@EnemyInfo@@QAEXXZ 00427a5f f   EinfoClass.obj
 0001:00026b96       ?CreateProtectionMap@EnemyInfo@@QAEXXZ 00427b96 f   EinfoClass.obj
 0001:00026ec9       ?CreateWallsList@EnemyInfo@@QAEXXZ 00427ec9 f   EinfoClass.obj
 0001:00027149       ?CheckTowersPresence@EnemyInfo@@QAE_NXZ 00428149 f   EinfoClass.obj
 0001:0002718d       ?InitInflMap@EnemyInfo@@QAEXXZ 0042818d f   EinfoClass.obj
 0001:000272be       ?ClearTow@EnemyInfo@@QAEXPAVOneObject@@@Z 004282be f   EinfoClass.obj
 0001:00027501       ?AddTow@EnemyInfo@@QAEXPAVOneObject@@@Z 00428501 f   EinfoClass.obj
 0001:00027650       ?ProcessTow@EnemyInfo@@QAEXXZ 00428650 f   EinfoClass.obj
 0001:00027cbe       ?AddTow@GlobalEnemyInfo@@QAEXPAVOneObject@@@Z 00428cbe f   EinfoClass.obj
 0001:00027d05       ?ClearTow@GlobalEnemyInfo@@QAEXPAVOneObject@@@Z 00428d05 f   EinfoClass.obj
 0001:00027d4c       ?InitBuildSafety@EnemyInfo@@QAEXXZ 00428d4c f   EinfoClass.obj
 0001:00027d6c       ?CreateBuildSafetyMap@EnemyInfo@@QAEXXZ 00428d6c f   EinfoClass.obj
 0001:000280b9       ?RefreshSafeMap@EnemyInfo@@QAEXXZ 004290b9 f   EinfoClass.obj
 0001:0002810c       ?GetSafeVal@EnemyInfo@@QAEEHH@Z 0042910c f   EinfoClass.obj
 0001:0002817b       ?ShowSafetyInfo@EnemyInfo@@QAEXHH@Z 0042917b f   EinfoClass.obj
 0001:00028188       ?AddSafePoint@EnemyInfo@@QAEXHHGGG@Z 00429188 f   EinfoClass.obj
 0001:000282da       ?ClearSafePoint@EnemyInfo@@QAEXHHG@Z 004292da f   EinfoClass.obj
 0001:00028380       ?InitSafeInfo@EnemyInfo@@QAEXXZ 00429380 f   EinfoClass.obj
 0001:000283ed       ?CloseSafeInfo@EnemyInfo@@QAEXXZ 004293ed f   EinfoClass.obj
 0001:0002845a       ?CheckSafeInfo@EnemyInfo@@QAEXXZ 0042945a f   EinfoClass.obj
 0001:000286fb       ?GetCellInfo@EnemyInfo@@QAEPAUSafeCellInfo@@HH@Z 004296fb f   EinfoClass.obj
 0001:000287a1       ?RegisterSafePoint@EnemyInfo@@QAEXPAVOneObject@@HH@Z 004297a1 f   EinfoClass.obj
 0001:0002885a       ?InitResearchSafeCell@EnemyInfo@@QAEXXZ 0042985a f   EinfoClass.obj
 0001:00028872       ?ResearchSafeObject@EnemyInfo@@QAEXPAVOneObject@@HHH@Z 00429872 f   EinfoClass.obj
 0001:00028b05       ?ResearchSafeCells@EnemyInfo@@QAEXHH@Z 00429b05 f   EinfoClass.obj
 0001:00028c7e       ?ResearchHumanAttackPlaces@EnemyInfo@@QAEXXZ 00429c7e f   EinfoClass.obj
 0001:0002939f       ?GetShipForce@@YAHE@Z      0042a39f f   EinfoClass.obj
 0001:00029416       ?ClearPlaces@EnemyInfo@@QAEXXZ 0042a416 f   EinfoClass.obj
 0001:0002942e       ?RegisterHumanShips@EnemyInfo@@QAEXXZ 0042a42e f   EinfoClass.obj
 0001:00029774       ?GetMaxForceOnTheWay@EnemyInfo@@QAEHHH@Z 0042a774 f   EinfoClass.obj
 0001:00029802       ?ResearchShipsGroups@EnemyInfo@@QAEXXZ 0042a802 f   EinfoClass.obj
 0001:00029b8d       ?GetShipsForce@EnemyInfo@@QAEHHHH@Z 0042ab8d f   EinfoClass.obj
 0001:00029c13       ?ClearIslands@EnemyInfo@@QAEXXZ 0042ac13 f   EinfoClass.obj
 0001:00029c50       ??0EnemyInfo@@QAE@XZ       0042ac50 f i EinfoClass.obj
 0001:00029c70       ?GetLI@@YAHHH@Z            0042ac70 f i EinfoClass.obj
 0001:00029c90       ??0Cell8x8@@QAE@XZ         0042ac90 f   Megapolis.obj
 0001:00029ccc       ?wer@@YAHE@Z               0042accc f   Megapolis.obj
 0001:00029ce6       ?TerrSpot@@YAXHHE@Z        0042ace6 f   Megapolis.obj
 0001:00029d26       ?CreateTerrMap@@YAXE@Z     0042ad26 f   Megapolis.obj
 0001:00029d2b       ?SetDefaults@Forces@@QAEXXZ 0042ad2b f   Megapolis.obj
 0001:00029dad       ?GetForces@@YAXXZ          0042adad f   Megapolis.obj
 0001:00029db2       ?FUNC1@@YAHPAH0HHE@Z       0042adb2 f   Megapolis.obj
 0001:00029db9       ?FUNC3@@YAHPAH0HHE@Z       0042adb9 f   Megapolis.obj
 0001:00029dc0       ?FUNC2@@YAHPAH0HHE@Z       0042adc0 f   Megapolis.obj
 0001:00029dc7       ?OccupyCell@@YAXHHE@Z      0042adc7 f   Megapolis.obj
 0001:00029dcc       ?FindPeasantInCell@@YAGHHE@Z 0042adcc f   Megapolis.obj
 0001:00029dd5       ?FindPeasant@@YAGHHE@Z     0042add5 f   Megapolis.obj
 0001:00029dde       ?FindWPeasantInCell@@YAGHHE@Z 0042adde f   Megapolis.obj
 0001:00029de7       ?FindWPeasant@@YAGHHE@Z    0042ade7 f   Megapolis.obj
 0001:00029df0       ?FreeCell@@YAXHHE@Z        0042adf0 f   Megapolis.obj
 0001:00029df5       ?CreateCity@City@@QAEXE@Z  0042adf5 f   Megapolis.obj
 0001:0002a3e8       ?GetNextPlaceForFarm@City@@QAEXPAH0@Z 0042b3e8 f   Megapolis.obj
 0001:0002a7b4       ?GetFreeBrigade@City@@QAEHXZ 0042b7b4 f   Megapolis.obj
 0001:0002a913       ?AddInform@City@@QAEXPAVInform@@P6AX0@Z@Z 0042b913 f   Megapolis.obj
 0001:0002a972       ?SearchInform@City@@QAEPAVInform@@GGPAV2@@Z 0042b972 f   Megapolis.obj
 0001:0002a9d0       ?SearchInform@City@@QAEPAVInform@@GPAV2@@Z 0042b9d0 f   Megapolis.obj
 0001:0002aa22       ?DelInform@City@@QAEXPAVInform@@@Z 0042ba22 f   Megapolis.obj
 0001:0002aa92       ?DelInform@City@@QAEXXZ    0042ba92 f   Megapolis.obj
 0001:0002aae8       ?PUSE@@YA_NPAVOneObject@@@Z 0042bae8 f   Megapolis.obj
 0001:0002ab47       ?CheckBuilders@@YAHPAVOneObject@@PAVCity@@@Z 0042bb47 f   Megapolis.obj
 0001:0002ac04       ?CheckFree@@YAHPAVOneObject@@PAVCity@@@Z 0042bc04 f   Megapolis.obj
 0001:0002acd6       ?CheckFieldWorker@@YAHPAVOneObject@@PAVCity@@@Z 0042bcd6 f   Megapolis.obj
 0001:0002ae97       ?GetAr@@YAPAUArea@@HH@Z    0042be97 f   Megapolis.obj
 0001:0002af1a       ?CheckPL@@YA_NHH@Z         0042bf1a f   Megapolis.obj
 0001:0002af49       ?CheckFreeArmy@@YAHPAVOneObject@@PAVCity@@@Z 0042bf49 f   Megapolis.obj
 0001:0002b2c3       ?CheckWoodWorker@@YAHPAVOneObject@@PAVCity@@@Z 0042c2c3 f   Megapolis.obj
 0001:0002b6a0       ?CheckStoneWorker@@YAHPAVOneObject@@PAVCity@@@Z 0042c6a0 f   Megapolis.obj
 0001:0002ba7d       ?CheckTZone@City@@QAE_NHHHH@Z 0042ca7d f   Megapolis.obj
 0001:0002ba8c       ?CloseCity@City@@QAEXXZ    0042ca8c f   Megapolis.obj
 0001:0002bcf4       ?TryToFindPlace@City@@QAE_NPAH0HHE@Z 0042ccf4 f   Megapolis.obj
 0001:0002bd03       ?RegisterNewUnit@City@@QAEXPAVOneObject@@@Z 0042cd03 f   Megapolis.obj
 0001:0002c1f1       ?UnRegisterNewUnit@City@@QAEXPAVOneObject@@@Z 0042d1f1 f   Megapolis.obj
 0001:0002c58c       ?EnumUnits@City@@QAEXXZ    0042d58c f   Megapolis.obj
 0001:0002ceeb       ?AddProp@City@@QAEXEGPAVGeneralObject@@GG@Z 0042deeb f   Megapolis.obj
 0001:0002cf8b       ?AddUpgr@City@@QAEXEGGG@Z  0042df8b f   Megapolis.obj
 0001:0002d089       ?EnumProp@City@@QAEXXZ     0042e089 f   Megapolis.obj
 0001:0002d4d5       ?FindNeedProject@City@@QAEGXZ 0042e4d5 f   Megapolis.obj
 0001:0002d9e7       ?RefreshAbility@City@@QAEXXZ 0042e9e7 f   Megapolis.obj
 0001:0002dd2a       ?RepairControl@@YAXPAVCity@@@Z 0042ed2a f   Megapolis.obj
 0001:0002dee5       ?FindApproximateBuildingPlace@City@@QAE_NPAVGeneralObject@@@Z 0042eee5 f   Megapolis.obj
 0001:0002e3e6       ?MarkUnusablePlace@City@@QAEXXZ 0042f3e6 f   Megapolis.obj
 0001:0002e518       ?FindPreciseBuildingPlace@City@@QAE_NPAVGeneralObject@@@Z 0042f518 f   Megapolis.obj
 0001:0002e5e2       ?SearchPeasants@@YAHHH_NEPAGH@Z 0042f5e2 f   Megapolis.obj
 0001:0002e7c0       ?SearchPeasantsInSquare@@YAHHHHE_NPAGH@Z 0042f7c0 f   Megapolis.obj
 0001:0002ea2a       ?CreateTeamOfPeasants@@YAHEHHHH@Z 0042fa2a f   Megapolis.obj
 0001:0002ee38       ?AddConstruction@City@@QAEXPAVOneObject@@@Z 0042fe38 f   Megapolis.obj
 0001:0002eec3       ?HandleConstructions@City@@QAEXXZ 0042fec3 f   Megapolis.obj
 0001:0002f308       ?MakeZasev@City@@QAEXXZ    00430308 f   Megapolis.obj
 0001:0002f595       ?MakeSlowZasev@City@@QAEXXZ 00430595 f   Megapolis.obj
 0001:0002f83d       ?HandleFields@City@@QAEXXZ 0043083d f   Megapolis.obj
 0001:0002fa38       ?HandleBrigades@City@@QAEXH@Z 00430a38 f   Megapolis.obj
 0001:0002ff5f       ?ProcessCreation@City@@QAEXXZ 00430f5f f   Megapolis.obj
 0001:00031361       ?OutCInf@@YAXEE@Z          00432361 f   Megapolis.obj
 0001:00031366       ?HelpMe@City@@QAEXG@Z      00432366 f   Megapolis.obj
 0001:0003141a       ?FindObjToAtt@@YAGXZ       0043241a f   Megapolis.obj
 0001:00031423       ?HandleFly@City@@QAEXXZ    00432423 f   Megapolis.obj
 0001:000314de       ?AddTo@Branch@@QAEXEH@Z    004324de f   Megapolis.obj
 0001:000315be       ?AddPerc@Branch@@QAEXEHH@Z 004325be f   Megapolis.obj
 0001:0003168a       ?AddEntire@Branch@@QAEXEH@Z 0043268a f   Megapolis.obj
 0001:000316db       ?Check@Branch@@QAEXE@Z     004326db f   Megapolis.obj
 0001:0003174e       ?Init@Branch@@QAEXXZ       0043274e f   Megapolis.obj
 0001:000317a8       ?GetMonsterCostPercent@Branch@@QAEHEG@Z 004327a8 f   Megapolis.obj
 0001:0003185f       ?GetUpgradeCostPercent@Branch@@QAEHEG@Z 0043285f f   Megapolis.obj
 0001:00031972       ?AddResource@Nation@@QAEXEH@Z 00432972 f   Megapolis.obj
 0001:000319d7       ?ControlProduce@Nation@@QAEXEEH@Z 004329d7 f   Megapolis.obj
 0001:00031bc4       ?CheckIdeas@@YAXPAVCity@@@Z 00432bc4 f   Megapolis.obj
 0001:00031c4d       ?AddIdea@City@@QAEPAVIdea@@P6AXPAV2@@Z_N@Z 00432c4d f   Megapolis.obj
 0001:00031d86       ?ClearIdea@Idea@@QAEXXZ    00432d86 f   Megapolis.obj
 0001:00031e28       ?DelIdeas@City@@QAEXXZ     00432e28 f   Megapolis.obj
 0001:00031e84       ?HandleIdeas@City@@QAEXXZ  00432e84 f   Megapolis.obj
 0001:00031eec       ?GetBMIndex@@YAHPAVOneObject@@@Z 00432eec f   Megapolis.obj
 0001:00031f28       ?ExecuteBrigades@City@@QAEXXZ 00432f28 f   Megapolis.obj
 0001:000322db       ?DetermineMineBySprite@@YAPAVOneObject@@H@Z 004332db f   Megapolis.obj
 0001:00032381       ?TakeNewMineBrain@@YAXPAVIdea@@@Z 00433381 f   Megapolis.obj
 0001:00032a59       ?TakeNewMine@City@@QAEXXZ  00433a59 f   Megapolis.obj
 0001:00032b47       ?UpgradeSomeMine@City@@QAEXXZ 00433b47 f   Megapolis.obj
 0001:00032b52       ?CreateWallNearMine@City@@QAEXXZ 00433b52 f   Megapolis.obj
 0001:00032b5d       ?BuildTower@City@@QAEXXZ   00433b5d f   Megapolis.obj
 0001:00032b68       ?UpgradeMineBrain@@YAXPAVIdea@@@Z 00433b68 f   Megapolis.obj
 0001:00032de8       ?GetMineMult@@YAHH@Z       00433de8 f   Megapolis.obj
 0001:00032e04       ?GetMaxCostPercent@@YAHEPAG@Z 00433e04 f   Megapolis.obj
 0001:00032eb6       ?UpgradeMines@City@@QAEXXZ 00433eb6 f   Megapolis.obj
 0001:00033667       ?FindNearestWall@@YA_NPAH0E@Z 00434667 f   Megapolis.obj
 0001:00033a17       ?SendAgressors@City@@QAEXXZ 00434a17 f   Megapolis.obj
 0001:00033afa       ?ProtectMine@City@@QAEXXZ  00434afa f   Megapolis.obj
 0001:00033ccb       ?CalculateBalance@City@@QAEXXZ 00434ccb f   Megapolis.obj
 0001:00033e8c       ?CheckGateUpXY@@YA_NHH@Z   00434e8c f   Megapolis.obj
 0001:00033ef8       ?BuildWallBrain@@YAXPAVIdea@@@Z 00434ef8 f   Megapolis.obj
 0001:00033efd       ?CreateWallBar@@YAXHHHPAVCity@@@Z 00434efd f   Megapolis.obj
 0001:00033f02       ?BuildWallsNearMines@City@@QAEXXZ 00434f02 f   Megapolis.obj
 0001:00033f0d       ?HandleGeology@@YAXXZ      00434f0d f   Megapolis.obj
 0001:00034036       ?HandleDefending@City@@QAEXXZ 00435036 f   Megapolis.obj
 0001:0003449c       ?CheckDefending@City@@QAEHEE@Z 0043549c f   Megapolis.obj
 0001:00034518       ?AddDefending@City@@QAEXEEE@Z 00435518 f   Megapolis.obj
 0001:000345e5       ?AddUnitDefender@City@@QAEXPAVOneObject@@@Z 004355e5 f   Megapolis.obj
 0001:00034687       ?AddUnit@DefendInfo@@QAEXPAVOneObject@@@Z 00435687 f   Megapolis.obj
 0001:0003476f       ?CheckArmies@@YAXPAVCity@@@Z 0043576f f   Megapolis.obj
 0001:00034a2c       ?InitArmy@AI_Army@@QAEXPAVCity@@@Z 00435a2c f   Megapolis.obj
 0001:00034ab2       ?ClearArmy@AI_Army@@QAEXXZ 00435ab2 f   Megapolis.obj
 0001:00034b5b       ?CheckMinArmyCreationAbility@@YAHPAVBrigade@@@Z 00435b5b f   Megapolis.obj
 0001:00034cd7       ?CheckSuperMinArmyCreationAbility@@YAHPAVBrigade@@@Z 00435cd7 f   Megapolis.obj
 0001:00034dfa       ?CreateMinimalArmyFromBrigade@AI_Army@@QAEXPAVBrigade@@H@Z 00435dfa f   Megapolis.obj
 0001:00035294       ?AddBrigade@AI_Army@@QAEXPAVBrigade@@@Z 00436294 f   Megapolis.obj
 0001:00035807       ?CreateOrder@AI_Army@@QAEPAVArmyOrder@@EH@Z 00436807 f   Megapolis.obj
 0001:000358b4       ?DeleteAOrder@AI_Army@@QAEXXZ 004368b4 f   Megapolis.obj
 0001:000358ee       ?ClearAOrders@AI_Army@@QAEXXZ 004368ee f   Megapolis.obj
 0001:0003590c       ?GetFreeArmy@City@@QAEHXZ  0043690c f   Megapolis.obj
 0001:0003599b       ?CheckTopPos@@YAXHHPAH0@Z  0043699b f   Megapolis.obj
 0001:00035c8d       ?ArmyLocalSendToLink@@YAXPAVAI_Army@@@Z 00436c8d f   Megapolis.obj
 0001:00035de5       ?LocalSendTo@AI_Army@@QAEXHHEE@Z 00436de5 f   Megapolis.obj
 0001:00036066       ?WideLocalSendTo@AI_Army@@QAEXHHEE@Z 00437066 f   Megapolis.obj
 0001:00036296       ?ArmyConnectToArmyLink@@YAXPAVAI_Army@@@Z 00437296 f   Megapolis.obj
 0001:00036449       ?ConnectToArmy@AI_Army@@QAEXHEE@Z 00437449 f   Megapolis.obj
 0001:000364b3       ?Parad@AI_Army@@QAEXXZ     004374b3 f   Megapolis.obj
 0001:000365c4       ?GetTopDanger@@YAHHE@Z     004375c4 f   Megapolis.obj
 0001:0003671c       ?GetTopDanger@@YAHHHH@Z    0043771c f   Megapolis.obj
 0001:00036873       ?CheckArmyDanger@@YA_NPAVAI_Army@@@Z 00437873 f   Megapolis.obj
 0001:00036a65       ?ArmyMakeBattleLink@@YAXPAVAI_Army@@@Z 00437a65 f   Megapolis.obj
 0001:00037a30       ?ArmyMakeDiversiaLink@@YAXPAVAI_Army@@@Z 00438a30 f   Megapolis.obj
 0001:0003819a       ?MakeBattle@AI_Army@@QAEXXZ 0043919a f   Megapolis.obj
 0001:000381f3       ?GetAmountOfBrigs@AI_Army@@QAEHE@Z 004391f3 f   Megapolis.obj
 0001:00038251       ?SHIP_DIVERSIA@@YAXPAVAI_Army@@@Z 00439251 f   Megapolis.obj
 0001:000382b7       ?SendGrenaders@AI_Army@@QAEXXZ 004392b7 f   Megapolis.obj
 0001:00038401       ?GetTopFast@@YAGHH@Z       00439401 f   Megapolis.obj
 0001:00038448       ?AddEnemXY@Army_Bitva@@QAEXHHHE@Z 00439448 f   Megapolis.obj
 0001:000387f1       ?A_BitvaLink@@YAXPAVAI_Army@@@Z 004397f1 f   Megapolis.obj
 0001:00039215       ?UpdateAttackR@@YAXPAVAdvCharacter@@@Z 0043a215 f   Megapolis.obj
 0001:000392e2       ?Bitva@AI_Army@@QAEXXZ     0043a2e2 f   Megapolis.obj
 0001:0003960e       ?FindStrongestUnitInCell@@YAHHPAHE@Z 0043a60e f   Megapolis.obj
 0001:00039723       ?FindStrongestUnit@@YAHHHE@Z 0043a723 f   Megapolis.obj
 0001:00039815       ?A_DiversiaLink@@YAXPAVAI_Army@@@Z 0043a815 f   Megapolis.obj
 0001:0003a576       ?Diversia@AI_Army@@QAEXXZ  0043b576 f   Megapolis.obj
 0001:0003a5da       ?CheckDiversants@@YAXPAVCity@@@Z 0043b5da f   Megapolis.obj
 0001:0003a804       ?SmartGamer@@YAXPAVCity@@@Z 0043b804 f   Megapolis.obj
 0001:0003add0       ?ClearZombi@AI_Army@@QAEXXZ 0043bdd0 f   Megapolis.obj
 0001:0003ae94       ?SetZombi@AI_Army@@QAEXXZ  0043be94 f   Megapolis.obj
 0001:0003af58       ?CheckPositionForDanger@@YAHHHH@Z 0043bf58 f   Megapolis.obj
 0001:0003aff7       ?FastCheckPosDanger@@YAHHH@Z 0043bff7 f   Megapolis.obj
 0001:0003b08f       ?GetArmyDanger@AI_Army@@QAEHHH@Z 0043c08f f   Megapolis.obj
 0001:0003b285       ?SendToMostSafePosition@AI_Army@@QAEXXZ 0043c285 f   Megapolis.obj
 0001:0003b3aa       ?GetTopDistance@@YAHHHHH@Z 0043c3aa f   Megapolis.obj
 0001:0003b59e       ?SearchGreAttObject@@YA_NPAH0HE@Z 0043c59e f   Megapolis.obj
 0001:0003b6f6       ?FastSearchGreAttObject@@YA_NPAH0HE@Z 0043c6f6 f   Megapolis.obj
 0001:0003b837       ?GetNearestArmy@@YAPAVAI_Army@@HHPAVCity@@@Z 0043c837 f   Megapolis.obj
 0001:0003b8ea       ?GrenaderSupermanLink@@YAXPAVOneObject@@@Z 0043c8ea f   Megapolis.obj
 0001:0003bbf4       ?GrenaderSuperman@@YAXPAVOneObject@@@Z 0043cbf4 f   Megapolis.obj
 0001:0003bd86       ?CheckArtillery@AI_Army@@QAE_NXZ 0043cd86 f   Megapolis.obj
 0001:0003c0b9       ?DeleteFromGroups@@YAXEG@Z 0043d0b9 f   Megapolis.obj
 0001:0003c23e       ?UnGroupSelectedUnits@@YAXE@Z 0043d23e f   Megapolis.obj
 0001:0003c444       ?GroupSelectedFormations@@YAXE@Z 0043d444 f   Megapolis.obj
 0001:0003c732       ?CorrectImSelectionInGroups@@YAXE@Z 0043d732 f   Megapolis.obj
 0001:0003cb0e       ?CheckGroupPossibility@@YA_NE@Z 0043db0e f   Megapolis.obj
 0001:0003cbea       ?CheckUnGroupPossibility@@YA_NE@Z 0043dbea f   Megapolis.obj
 0001:0003ceff       ?CheckWallForKilling@@YA_NPAVOneObject@@@Z 0043deff f   Megapolis.obj
 0001:0003d110       ?GetBestVictimForArchers@@YAHEHHHH@Z 0043e110 f   Megapolis.obj
 0001:0003da7b       ?HandleArchers@@YA_NPAVAI_Army@@H@Z 0043ea7b f   Megapolis.obj
 0001:0003dde0       ?ValidTXY@@YA_NHH@Z        0043ede0 f i Megapolis.obj
 0001:0003de30       ?CreateInfoMap@@YAXXZ      0043ee30 f   NewAI.obj
 0001:0003e28a       ?RenewInfoMap@@YAXHH@Z     0043f28a f   NewAI.obj
 0001:0003e49d       ?FreeInfoMap@@YAXXZ        0043f49d f   NewAI.obj
 0001:0003e4b0       ?CheckMelnica@@YA_NHH@Z    0043f4b0 f   NewAI.obj
 0001:0003e58a       ?CheckStoneSklad@@YA_NHH@Z 0043f58a f   NewAI.obj
 0001:0003e6e7       ?CheckWoodSklad@@YA_NHH@Z  0043f6e7 f   NewAI.obj
 0001:0003e844       ?CheckStoneWoodSklad@@YA_NHH@Z 0043f844 f   NewAI.obj
 0001:0003e9b6       ?CheckFarm@@YA_NHH@Z       0043f9b6 f   NewAI.obj
 0001:0003ea27       ?CheckBuilding@@YA_NHH@Z   0043fa27 f   NewAI.obj
 0001:0003eafb       ?CheckTower@@YA_NHH@Z      0043fafb f   NewAI.obj
 0001:0003ec22       ?CheckPort@@YA_NHH@Z       0043fc22 f   NewAI.obj
 0001:0003ee08       ?SearchPlace@@YA_NPAH0P6A_NHH@ZH@Z 0043fe08 f   NewAI.obj
 0001:0003f028       ?SearchTowerPlace@@YA_NPAH0P6A_NHH@ZHHHHH@Z 00440028 f   NewAI.obj
 0001:0003f284       ?FindCenter@@YA_NPAH0E@Z   00440284 f   NewAI.obj
 0001:0003f397       ?SetUnusable@@YAXHHE@Z     00440397 f   NewAI.obj
 0001:0003f400       ??0NetSample@@QAE@XZ       00440400 f   SafeNet.obj
 0001:0003f435       ??1NetSample@@QAE@XZ       00440435 f   SafeNet.obj
 0001:0003f48b       ??0SafeNet@@QAE@XZ         0044048b f   SafeNet.obj
 0001:0003f4d9       ??1SafeNet@@QAE@XZ         004404d9 f   SafeNet.obj
 0001:0003f524       ?CreateDiversantMap@NetSample@@QAEXE@Z 00440524 f   SafeNet.obj
 0001:0003fae3       ?CreateGrenadersMap@NetSample@@QAEXE@Z 00440ae3 f   SafeNet.obj
 0001:00040142       ?FindNextCell@SafeNet@@QAEGHHPAVNetSample@@@Z 00441142 f   SafeNet.obj
 0001:00040825       ?FindWayTo@SafeNet@@QAEGHHHPAVNetSample@@@Z 00441825 f   SafeNet.obj
 0001:00040d8d       ?GetNextSafeCell@@YAGEHHH@Z 00441d8d f   SafeNet.obj
 0001:00040de3       ?GetNextDivCell@@YAGEHH@Z  00441de3 f   SafeNet.obj
 0001:00040e35       ?GetNextGreCell@@YAGEHH@Z  00441e35 f   SafeNet.obj
 0001:00040e90       ?ResearchArmyDistribution@GlobalArmyInfo@@QAEXE@Z 00441e90 f   StrategyResearch.obj
 0001:00041300       ?Clear@GlobalArmyInfo@@QAEXXZ 00442300 f   StrategyResearch.obj
 0001:00041360       ??0GlobalArmyInfo@@QAE@XZ  00442360 f   StrategyResearch.obj
 0001:00041380       ??1GlobalArmyInfo@@QAE@XZ  00442380 f   StrategyResearch.obj
 0001:00041390       ?Show@GlobalArmyInfo@@QAEXHH@Z 00442390 f   StrategyResearch.obj
 0001:00041450       ?InitObjs3@@YAXXZ          00442450 f   3DBars.obj
 0001:00041513       ?ClearObjs3@@YAXXZ         00442513 f   3DBars.obj
 0001:000415af       ?AddObj3@@YAXHHG@Z         004425af f   3DBars.obj
 0001:00041739       ?DelObj3@@YAXHHG@Z         00442739 f   3DBars.obj
 0001:00041878       ?Add3DBar@@YAGHHHHFHG@Z    00442878 f   3DBars.obj
 0001:00041b0d       ?CureBars3D@@YAXXZ         00442b0d f   3DBars.obj
 0001:00041c06       ?Delete3DBar@@YAXG@Z       00442c06 f   3DBars.obj
 0001:00041ce1       ?GetBar3DHeight@@YAHHH@Z   00442ce1 f   3DBars.obj
 0001:00041e1d       ?CheckBars3D@@YAXXZ        00442e1d f   3DBars.obj
 0001:00041ee1       ?GetBar3DOwner@@YAHHH@Z    00442ee1 f   3DBars.obj
 0001:0004201c       ?xLine@@YAXHHHHE@Z         0044301c f   3DBars.obj
 0001:000420e7       ?DrawBar3D@@YAXPAUOneBar@@@Z 004430e7 f   3DBars.obj
 0001:00042378       ?ShowAllBars@@YAXXZ        00443378 f   3DBars.obj
 0001:000423c0       ?PrepareToRender@@YA_NHHH@Z 004433c0 f   3DGraph.obj
 0001:000425ac       ?addLine@@YAXHH@Z          004435ac f   3DGraph.obj
 0001:000426ab       ?RenderTriangle64@@YAXHPAE0@Z 004436ab f   3DGraph.obj
 0001:00042763       ?GetMax@@YAHHHH@Z          00443763 f   3DGraph.obj
 0001:00042792       ?GetMin@@YAHHHH@Z          00443792 f   3DGraph.obj
 0001:000427c1       ?PreRenderTri64@@YAXHHHHHHHHHHHHPAE0@Z 004437c1 f   3DGraph.obj
 0001:000428ec       ?ShowTriangle@@YAXHHPAE@Z  004438ec f   3DGraph.obj
 0001:0004297e       ?ShowClippedTriangle@@YAXHHPAE@Z 0044397e f   3DGraph.obj
 0001:00042b30       ?ShowClippedTriangleMMX@@YAXHHPAE@Z 00443b30 f   3DGraph.obj
 0001:00042cf9       ?RenderSmartTriangle64@@YAXHHHHHHHHHHHHHHHPAE0@Z 00443cf9 f   3DGraph.obj
 0001:00042f44       ?PrecPrepareToRender@@YA_NHHH@Z 00443f44 f   3DGraph.obj
 0001:00043138       ?AbsolutePrecPrepareToRender@@YA_NHHH@Z 00444138 f   3DGraph.obj
 0001:0004333a       ?PrecRenderTriangle64@@YAHHPAE0@Z 0044433a f   3DGraph.obj
 0001:00043408       ?PrecRenderTriangle128@@YAHHPAE0@Z 00444408 f   3DGraph.obj
 0001:000434d8       ?PrecRenderTriangle64Dithering@@YAHHPAE0@Z 004444d8 f   3DGraph.obj
 0001:000435db       ?PrecPreRenderTri64@@YAHHHHHHHHHHHHHHHHPAE0@Z 004445db f   3DGraph.obj
 0001:00043729       ?PrecPreRenderTri128@@YAHHHHHHHHHHHHHHHHPAE0@Z 00444729 f   3DGraph.obj
 0001:00043877       ?RenderBestTriangle64@@YAHHHHHHHHHHHHHHHHPAE0@Z 00444877 f   3DGraph.obj
 0001:00043b03       ?RenderBestTriangle128@@YAHHHHHHHHHHHHHHHHPAE0@Z 00444b03 f   3DGraph.obj
 0001:00043d89       ?DirectRenderTriangle64Dithering@@YAHHHHHPAE0@Z 00444d89 f   3DGraph.obj
 0001:00043ee0       ?DirectPreRenderTri64@@YAHHHHHHHHHHHHHHHHPAE0HHH@Z 00444ee0 f   3DGraph.obj
 0001:0004405f       ?DirectRenderTriangle64@@YAXHHHHHHHHHHHHHHHPAE0HHH@Z 0044505f f   3DGraph.obj
 0001:00044319       ?GetVTex@@YAHH@Z           00445319 f   3DGraph.obj
 0001:0004432c       ?Init3DMapSystem@@YAXXZ    0044532c f   3DGraph.obj
 0001:00044458       ?ClearRender@@YAXXZ        00445458 f   3DGraph.obj
 0001:00044467       ?Reset3D@@YAXXZ            00445467 f   3DGraph.obj
 0001:00044482       ?prp34@@YAHH@Z             00445482 f   3DGraph.obj
 0001:0004448c       ?GetHi@@YAHH@Z             0044548c f   3DGraph.obj
 0001:000444bd       ?GetTriX@@YAHH@Z           004454bd f   3DGraph.obj
 0001:00044506       ?GetTriY@@YAHH@Z           00445506 f   3DGraph.obj
 0001:0004454f       ?SetHi@@YAXHH@Z            0044554f f   3DGraph.obj
 0001:00044582       ?CreateTriBlob@@YAXHHHH@Z  00445582 f   3DGraph.obj
 0001:00044727       ?CreateEffect@@YAXHHHP6AHHHH@Z@Z 00445727 f   3DGraph.obj
 0001:00044865       ?CreateAveragePlane@@YAXHHH@Z 00445865 f   3DGraph.obj
 0001:00044b50       ?CreateRandomHMap@@YAXXZ   00445b50 f   3DGraph.obj
 0001:00044ba8       ?GetLighting@@YAHH@Z       00445ba8 f   3DGraph.obj
 0001:00044ddc       ?ShowRelief@@YAXXZ         00445ddc f   3DGraph.obj
 0001:00044de1       ?Loadtextures@@YAXXZ       00445de1 f   3DGraph.obj
 0001:0004565e       ?TestTriangle@@YAXXZ       0044665e f   3DGraph.obj
 0001:00045672       ?ClearRoads@@YAXXZ         00446672 f   3DGraph.obj
 0001:00045677       ?RoadLine@@YAXHHHH@Z       00446677 f   3DGraph.obj
 0001:00045748       ?CreateRoadsNet@@YAXXZ     00446748 f   3DGraph.obj
 0001:00045833       ??0OverTriangle@@QAE@XZ    00446833 f   3DGraph.obj
 0001:0004585f       ?Clear@OverTriangle@@QAEXXZ 0044685f f   3DGraph.obj
 0001:0004593c       ??1OverTriangle@@QAE@XZ    0044693c f   3DGraph.obj
 0001:0004594f       ?AddTriangle@OverTriangle@@QAEXH@Z 0044694f f   3DGraph.obj
 0001:00045fe5       ?CreateFullMap@OverTriangle@@QAEXXZ 00446fe5 f   3DGraph.obj
 0001:00046464       ?RenderSector@@YAHH_NPAE0@Z 00447464 f   3DGraph.obj
 0001:00047538       ?ShowElement@OverTriangle@@QAEXHH@Z 00448538 f   3DGraph.obj
 0001:0004763c       ?Show@OverTriangle@@QAEXXZ 0044863c f   3DGraph.obj
 0001:000478a6       ?ShowTrianglesOwerUnits@@YAXXZ 004488a6 f   3DGraph.obj
 0001:000478b5       ?DrawTriangleElement@@YAXHH@Z 004488b5 f   3DGraph.obj
 0001:000478cc       ?ClearTrianglesSystem@@YAXXZ 004488cc f   3DGraph.obj
 0001:000478db       ?CreateTrianglesSystem@@YAXXZ 004488db f   3DGraph.obj
 0001:000478ea       ?CheckPointInside@@YA_NHHPAF0H@Z 004488ea f   3DGraph.obj
 0001:000479df       ?SetTrianglesState@@YAXHHPAF0H_N@Z 004489df f   3DGraph.obj
 0001:00047b50       ?SetSectMap@@YAXHE@Z       00448b50 f i 3DGraph.obj
 0001:00047bfe       ?AddLockBar@@YAXGG@Z       00448bfe f   3DMapEd.obj
 0001:00047c4f       ?FastAddLockBar@@YAXGG@Z   00448c4f f   3DMapEd.obj
 0001:00047c68       ?FastAddUnLockBar@@YAXGG@Z 00448c68 f   3DMapEd.obj
 0001:00047c81       ?AddUnLockbar@@YAXGG@Z     00448c81 f   3DMapEd.obj
 0001:00047cd2       ?AddDefaultBar@@YAXGG@Z    00448cd2 f   3DMapEd.obj
 0001:00047cff       ?GetPSY@@YAHH@Z            00448cff f   3DMapEd.obj
 0001:00047d2b       ?GetPLY@@YAHH@Z            00448d2b f   3DMapEd.obj
 0001:00047d48       ?ConvScrY@@YAHHH@Z         00448d48 f   3DMapEd.obj
 0001:00047ef9       ?Norm@@YAHHH@Z             00448ef9 f   3DMapEd.obj
 0001:00047f2a       ?MarkTriangleToDraw@@YAXH@Z 00448f2a f   3DMapEd.obj
 0001:00047f58       ?MarkPointToDraw@@YAXH@Z   00448f58 f   3DMapEd.obj
 0001:000480c6       ?MarkLineToDraw@@YAXH@Z    004490c6 f   3DMapEd.obj
 0001:00048205       ?GetDivPoint@@YAXHHHHPAEPAUSelectionRequest@@@Z 00449205 f   3DMapEd.obj
 0001:0004840b       ?PutTexInPoint@@YAXHPAUSelectionRequest@@@Z 0044940b f   3DMapEd.obj
 0001:000488f0       ?SetTexturedRound@@YAXHHHE@Z 004498f0 f   3DMapEd.obj
 0001:00048a2a       ?SetTexture@@YAXHH@Z       00449a2a f   3DMapEd.obj
 0001:00048c0c       ?CreateMiniMapPart@@YAXHHHH@Z 00449c0c f   3DMapEd.obj
 0001:00048f11       ?PutMPPoint@@YAXHHE@Z      00449f11 f   3DMapEd.obj
 0001:00048f5c       ?CreateMapPreview@@YAXPAEHH@Z 00449f5c f   3DMapEd.obj
 0001:000495a2       ?CreateMiniMap@@YAXXZ      0044a5a2 f   3DMapEd.obj
 0001:00049926       ?ShowPen@@YAXHHHE@Z        0044a926 f   3DMapEd.obj
 0001:00049ad8       ?AddHi@@YAXHHHH@Z          0044aad8 f   3DMapEd.obj
 0001:00049c79       ?AddHiPlanar@@YAXHHHH@Z    0044ac79 f   3DMapEd.obj
 0001:00049e07       ?CreatePlane@@YAXHHH@Z     0044ae07 f   3DMapEd.obj
 0001:00049f9c       ?PlanarHi@@YAXHHH@Z        0044af9c f   3DMapEd.obj
 0001:0004a16f       ?AverageHi@@YAXHHH@Z       0044b16f f   3DMapEd.obj
 0001:0004a34d       ?RandomHi@@YAXHHHHH@Z      0044b34d f   3DMapEd.obj
 0001:0004a502       ?iab@@YAHH@Z               0044b502 f   3DMapEd.obj
 0001:0004a517       ?GetNormal@@YAXHHPAUVECTOR3D@@@Z 0044b517 f   3DMapEd.obj
 0001:0004a624       ?GetALP@@YAHPAUVECTOR3D@@@Z 0044b624 f   3DMapEd.obj
 0001:0004a693       ?GetTerrAngle@@YAHHH@Z     0044b693 f   3DMapEd.obj
 0001:0004a6bd       ?GetCoef@@YAHHH@Z          0044b6bd f   3DMapEd.obj
 0001:0004a6f1       ?SetLockMask@@YAXHHPAD@Z   0044b6f1 f   3DMapEd.obj
 0001:0004a77b       ?CreateLandLocking@@YAXH_N@Z 0044b77b f   3DMapEd.obj
 0001:0004aee3       ?CreateMapLocking@@YAXXZ   0044bee3 f   3DMapEd.obj
 0001:0004b088       ?CreateUnitsLocking@@YAXXZ 0044c088 f   3DMapEd.obj
 0001:0004b24e       ?CreateTotalLocking@@YAXXZ 0044c24e f   3DMapEd.obj
 0001:0004b294       ?CreateFastLocking@@YAXXZ  0044c294 f   3DMapEd.obj
 0001:0004b2ad       ?CheckCurve@@YA_NXZ        0044c2ad f   3DMapEd.obj
 0001:0004b2be       ?CheckCurveLinked@@YA_NHH@Z 0044c2be f   3DMapEd.obj
 0001:0004b36d       ?AddPointToCurve@@YAXHH_NE@Z 0044c36d f   3DMapEd.obj
 0001:0004b4d1       ?DrawCurves@@YAXXZ         0044c4d1 f   3DMapEd.obj
 0001:0004b610       ?DrawCurves1@@YAXXZ        0044c610 f   3DMapEd.obj
 0001:0004b836       ?CheckPointInside@@YA_NHH@Z 0044c836 f   3DMapEd.obj
 0001:0004b92c       ?GetCurveDistance@@YAHHH@Z 0044c92c f   3DMapEd.obj
 0001:0004ba7d       ?GetCurveDistance1@@YAHHH@Z 0044ca7d f   3DMapEd.obj
 0001:0004bc87       ?GetCurveDistance0@@YAHHH@Z 0044cc87 f   3DMapEd.obj
 0001:0004be94       ?GetCrossProportion@@YAHHHHH@Z 0044ce94 f   3DMapEd.obj
 0001:0004c070       ?PutTexInPointWithCurve@@YAXH@Z 0044d070 f   3DMapEd.obj
 0001:0004c5d9       ?SetSectionsInPoint@@YAXHHPAE@Z 0044d5d9 f   3DMapEd.obj
 0001:0004c8e3       ?SetTextureInCurve@@YAXXZ  0044d8e3 f   3DMapEd.obj
 0001:0004ca8a       ?FUN1@@YAHH@Z              0044da8a f   3DMapEd.obj
 0001:0004cae4       ?FUN2@@YAHH@Z              0044dae4 f   3DMapEd.obj
 0001:0004cb37       ?SetPlatoInCurve@@YAXXZ    0044db37 f   3DMapEd.obj
 0001:0004cda6       ?SetRoadInCurve@@YAXH@Z    0044dda6 f   3DMapEd.obj
 0001:0004d032       ?SoftRegion@@YAXXZ         0044e032 f   3DMapEd.obj
 0001:0004d515       ?ClearCurve@@YAXXZ         0044e515 f   3DMapEd.obj
 0001:0004d524       ?GetBezierVect@@YAXPAH0HH00@Z 0044e524 f   3DMapEd.obj
 0001:0004d58e       ?Normalise@@YAXPAH0H@Z     0044e58e f   3DMapEd.obj
 0001:0004d5d9       ?InterpolateCurve@@YAXXZ   0044e5d9 f   3DMapEd.obj
 0001:0004d966       ?SetPlatoInCurve@@YAXPAE0E@Z 0044e966 f   3DMapEd.obj
 0001:0004dbfc       ?SetHiInRegion@@YAXE@Z     0044ebfc f   3DMapEd.obj
 0001:0004dc01       ?SoftRegion@@YAXPAE@Z      0044ec01 f   3DMapEd.obj
 0001:0004e21e       ?PaintAllMap@@YAXPAE0PAVPaintHills@@H@Z 0044f21e f   3DMapEd.obj
 0001:0004e7d8       ?GenerateRandomRoad@@YAXH@Z 0044f7d8 f   3DMapEd.obj
 0001:0004e9fa       ?SHOWBARS@@YAXPAVBlockBars@@E@Z 0044f9fa f   3DMapEd.obj
 0001:0004eb13       ?ShowLockBars@@YAXXZ       0044fb13 f   3DMapEd.obj
 0001:0004eb39       ?GSU_Error@@YAXPAD@Z       0044fb39 f   3DMapEd.obj
 0001:0004eb76       ?GenerateStartUnits@@YA_NPADEHHH@Z 0044fb76 f   3DMapEd.obj
 0001:0004f1c0       ?GetSectMap@@YAHH@Z        004501c0 f i 3DMapEd.obj
 0001:0004f220       ?mrand@@YAHXZ              00450220 f   3DRandMap.obj
 0001:0004f260       ?CheckFirstLine@@YAXXZ     00450260 f   3DRandMap.obj
 0001:0004f290       ?Allocate@GenMap@@QAEXXZ   00450290 f   3DRandMap.obj
 0001:0004f2e0       ?Free@GenMap@@QAEXXZ       004502e0 f   3DRandMap.obj
 0001:0004f310       ?SetStateAround@GenMap@@QAEXHE@Z 00450310 f   3DRandMap.obj
 0001:0004f360       ?AddGArea@GenMap@@QAE_NHH@Z 00450360 f   3DRandMap.obj
 0001:0004f450       ?AddGLink@GenMap@@QAEXHH@Z 00450450 f   3DRandMap.obj
 0001:0004f530       ?CheckNet@@YAXPAVGenMap@@@Z 00450530 f   3DRandMap.obj
 0001:0004f5f0       ?CheckDeep@@YA_NHH@Z       004505f0 f   3DRandMap.obj
 0001:0004f630       ?CreateNet@GenMap@@QAEXXZ  00450630 f   3DRandMap.obj
 0001:0004fd20       ?InvHill@@YAXPAD@Z         00450d20 f   3DRandMap.obj
 0001:0004fd50       ?LoadTerrain@@YA_NPAD@Z    00450d50 f   3DRandMap.obj
 0001:00050020       ?LoadRandomHills@@YAXXZ    00451020 f   3DRandMap.obj
 0001:00050060       ??0GenMap@@QAE@XZ          00451060 f   3DRandMap.obj
 0001:00050330       ?InitBiSegment@@YAXPAUBiSegment@@HHHH@Z 00451330 f   3DRandMap.obj
 0001:00050390       ?GetBiFunction@@YANNNPANPAUBiSegment@@@Z 00451390 f   3DRandMap.obj
 0001:00050580       ?Clear@GenMap@@QAEXXZ      00451580 f   3DRandMap.obj
 0001:00050610       ??1GenMap@@QAE@XZ          00451610 f   3DRandMap.obj
 0001:00050620       ?Show@GenMap@@QAEXHH@Z     00451620 f   3DRandMap.obj
 0001:00050740       ?UnLockLine@@YAXHHHH@Z     00451740 f   3DRandMap.obj
 0001:00050890       ?MakeSoftArea@GenMap@@QAEXHH@Z 00451890 f   3DRandMap.obj
 0001:00050c70       ?MakeHillSpot@GenMap@@QAEXHHHPAE@Z 00451c70 f   3DRandMap.obj
 0001:00050ed0       ?MakeLinearHill@GenMap@@QAEXHH@Z 00451ed0 f   3DRandMap.obj
 0001:000512e0       ?CheckWebPoint@GenMap@@QAE_NH@Z 004522e0 f   3DRandMap.obj
 0001:00051340       ?GenerateHillLink@GenMap@@QAE_NH@Z 00452340 f   3DRandMap.obj
 0001:00051350       ?GenerateHillLink@GenMap@@QAE_NHH@Z 00452350 f   3DRandMap.obj
 0001:00051740       ?GenShow@@YAXXZ            00452740 f   3DRandMap.obj
 0001:00051750       ?InitHillAmp@@YAXXZ        00452750 f   3DRandMap.obj
 0001:00051970       ?InitHillAmp1@@YAXXZ       00452970 f   3DRandMap.obj
 0001:00051ba0       ?GetHillHi@@YANNNNN@Z      00452ba0 f   3DRandMap.obj
 0001:00051c50       ?DoGen@@YAXXZ              00452c50 f   3DRandMap.obj
 0001:00051c60       ?GenerateHill@@YAXH@Z      00452c60 f   3DRandMap.obj
 0001:00051ce0       ?GenerateRelief@@YAXH@Z    00452ce0 f   3DRandMap.obj
 0001:00051f30       ?CreateNationalMaskForRandomMap@@YAXPAD@Z 00452f30 f   3DRandMap.obj
 0001:00052060       ?CreateMapByName@@YAXPAD@Z 00453060 f   3DRandMap.obj
 0001:00052440       ?AddHill@@YAXXZ            00453440 f   3DRandMap.obj
 0001:00052470       ?CreateRandomMap@@YAXPAD@Z 00453470 f   3DRandMap.obj
 0001:00052620       ?CheckMapName@@YAXPAD@Z    00453620 f   3DRandMap.obj
 0001:00052690       ?CheckMapNameForStart@@YAXPAD@Z 00453690 f   3DRandMap.obj
 0001:00052700       ??0UndoSegment@@QAE@XZ     00453700 f   3DRandMap.obj
 0001:00052710       ?Close@UndoSegment@@QAEXXZ 00453710 f   3DRandMap.obj
 0001:00052740       ??1UndoSegment@@QAE@XZ     00453740 f   3DRandMap.obj
 0001:00052750       ?Add@UndoSegment@@QAEXE@Z  00453750 f   3DRandMap.obj
 0001:00052790       ?Add@UndoSegment@@QAEXF@Z  00453790 f   3DRandMap.obj
 0001:000527e0       ?Add@UndoSegment@@QAEXH@Z  004537e0 f   3DRandMap.obj
 0001:00052820       ?Read@UndoSegment@@QAE_NPAE@Z 00453820 f   3DRandMap.obj
 0001:00052850       ?Read@UndoSegment@@QAE_NPAF@Z 00453850 f   3DRandMap.obj
 0001:00052880       ?Read@UndoSegment@@QAE_NPAH@Z 00453880 f   3DRandMap.obj
 0001:000528f0       ?MakeUndo@@YAXXZ           004538f0 f   3DRandMap.obj
 0001:00052a90       ?ChangeSect@@YAXHE@Z       00453a90 f   3DRandMap.obj
 0001:00052b40       ?ChangeVert@@YAXHFE@Z      00453b40 f   3DRandMap.obj
 0001:00052ba0       ?ChangeObject@@YAXF@Z      00453ba0 f   3DRandMap.obj
 0001:00052bc0       ?ChangeSprite@@YAXH@Z      00453bc0 f   3DRandMap.obj
 0001:00052be0       ?CheckVertTex@@YA_NHHH@Z   00453be0 f   3DRandMap.obj
 0001:00052c90       ?RM_SaveVertices@@YAXPAXHHHHPAH1@Z 00453c90 f   3DRandMap.obj
 0001:00053170       ?RM_LoadVertices@@YAXPAXHH@Z 00454170 f   3DRandMap.obj
 0001:00053530       ?RM_LoadVerticesPos@@YAXPAXPAPAF1PAH@Z 00454530 f   3DRandMap.obj
 0001:00053610       ?RM_CalcVerticesPos@@YAXPAXPAF1@Z 00454610 f   3DRandMap.obj
 0001:00053730       ?RM_SaveSprites@@YAXPAXHHHHHH@Z 00454730 f   3DRandMap.obj
 0001:00053920       ?RM_LoadSprites@@YAXPAXHH@Z 00454920 f   3DRandMap.obj
 0001:00053a80       ?RM_SaveObj@@YAXPAXHHHHHH@Z 00454a80 f   3DRandMap.obj
 0001:00053c70       ?RM_LoadObj@@YAXPAXHH@Z    00454c70 f   3DRandMap.obj
 0001:00053df0       ?RM_SaveLock@@YAXPAXHHHHHH@Z 00454df0 f   3DRandMap.obj
 0001:00054070       ?RM_LoadLock@@YAXPAXHH@Z   00455070 f   3DRandMap.obj
 0001:00054160       ?RM_Save@@YAXPADHHHH@Z     00455160 f   3DRandMap.obj
 0001:000542f0       ?RM_Load@@YAXPADHH@Z       004552f0 f   3DRandMap.obj
 0001:000543f0       ?GetCenter@@YA_NPADPAF1@Z  004553f0 f   3DRandMap.obj
 0001:000544c0       ?RM_LoadVerticesOnly@@YAXPADPAPAF1PAH@Z 004554c0 f   3DRandMap.obj
 0001:00054580       ?RM_PreLoadOpen@@YAXXZ     00455580 f   3DRandMap.obj
 0001:00054590       ?RM_PreLoadClose@@YAXXZ    00455590 f   3DRandMap.obj
 0001:000545a0       ?RM_PreLoad@@YAXPADHH@Z    004555a0 f   3DRandMap.obj
 0001:000546c0       ?DelExt@@YAXXZ             004556c0 f   3DRandMap.obj
 0001:000546e0       ?ProcessRM_Load@@YAXHH@Z   004556e0 f   3DRandMap.obj
 0001:00054740       ?ProcessRM_LoadEx@@YAXHHPAD@Z 00455740 f   3DRandMap.obj
 0001:000547b0       ?ProcessRM_Save@@YAXHHHH@Z 004557b0 f   3DRandMap.obj
 0001:00054820       ?ProcessTexPiece@@YAXHH_N@Z 00455820 f   3DRandMap.obj
 0001:00054970       ?SetRandomPiece@@YAXPAD@Z  00455970 f   3DRandMap.obj
 0001:00054ad0       ?SetPieceInPoints@@YAXPADPAH1HPAEH@Z 00455ad0 f   3DRandMap.obj
 0001:00054c70       ?GenerateByStyle@@YAXPAD_N@Z 00455c70 f   3DRandMap.obj
 0001:00054e20       ?GenerateInPoints@@YAXPADPAH1HH@Z 00455e20 f   3DRandMap.obj
 0001:00054f60       ?DeleteInArea@@YAXHHHH@Z   00455f60 f   3DRandMap.obj
 0001:00055220       ?CheckInArea@@YA_NHHHH@Z   00456220 f   3DRandMap.obj
 0001:00055340       ?SaveInSquares@@YAXHHHHHHPAD@Z 00456340 f   3DRandMap.obj
 0001:000554e0       ?ProcessSaveInSquares@@YAXXZ 004564e0 f   3DRandMap.obj
 0001:00055630       ?SqInt@@YAHPAEHH@Z         00456630 f   3DRandMap.obj
 0001:00055720       ?CheckWaterOnMountains@@YAXXZ 00456720 f   3DRandMap.obj
 0001:00055730       ?CheckBright@@YAXXZ        00456730 f   3DRandMap.obj
 0001:00055740       ?CreateRandomTerrain@@YA_NPADHHHHHPAGH@Z 00456740 f   3DRandMap.obj
 0001:000562e0       ?SetupInfMessage@@YAXPAD@Z 004572e0 f   3DRandMap.obj
 0001:00056310       ?SetNextInfStage@@YAXPAD@Z 00457310 f   3DRandMap.obj
 0001:00056340       ?ShowProcessInfo@@YAXXZ    00457340 f   3DRandMap.obj
 0001:00056350       ?ShowProgressBar@@YAXPADHH@Z 00457350 f   3DRandMap.obj
 0001:00056490       ?ShowTable@@YAXPAD0@Z      00457490 f   3DRandMap.obj
 0001:000565b0       ?InitNatDeal@@YAXXZ        004575b0 f   3DRandMap.obj
 0001:000566b0       ?SetNatDealPoint@@YAXHHE@Z 004576b0 f   3DRandMap.obj
 0001:00056710       ?ExtendNatDealing@@YAXXZ   00457710 f   3DRandMap.obj
 0001:00056ac0       ?GetRandomPoint@@YA_NPAF0EE@Z 00457ac0 f   3DRandMap.obj
 0001:00056c00       ?ConditionalSetRandomPiece@@YA_NPADEEH@Z 00457c00 f   3DRandMap.obj
 0001:00056db0       ?ConditionalSetRandomPiece1@@YA_NPADEEH@Z 00457db0 f   3DRandMap.obj
 0001:00056e30       ??0PieceList@@QAE@XZ       00457e30 f   3DRandMap.obj
 0001:00056e40       ??1PieceList@@QAE@XZ       00457e40 f   3DRandMap.obj
 0001:00056e50       ?Clear@PieceList@@QAEXXZ   00457e50 f   3DRandMap.obj
 0001:00056ea0       ?Load@PieceList@@QAEXPAD@Z 00457ea0 f   3DRandMap.obj
 0001:00056f60       ??0PieceList@@QAE@PAD@Z    00457f60 f   3DRandMap.obj
 0001:00056f80       ?CreateNatDealing@@YAXHPAEPAF1@Z 00457f80 f   3DRandMap.obj
 0001:00056fd0       ?LimitZones@@YAXXZ         00457fd0 f   3DRandMap.obj
 0001:00057040       ?CreateCenterRound@@YAXHHH@Z 00458040 f   3DRandMap.obj
 0001:00057170       ?ClearCenterRound@@YAXHHH@Z 00458170 f   3DRandMap.obj
 0001:00057230       ?GetUnitActivity@@YAHPAVOneObject@@@Z 00458230 f   3DRandMap.obj
 0001:000572f0       ?CheckBuildPossibility@@YA_NEHH@Z 004582f0 f   3DRandMap.obj
 0001:000573c0       ?GenerateNationalResources@@YAXPAD00HHHHPAGH@Z 004583c0 f   3DRandMap.obj
 0001:00057a50       ?ClearAllRounds@@YAXXZ     00458a50 f   3DRandMap.obj
 0001:00057a90       ?ShowNatDeal@@YAXXZ        00458a90 f   3DRandMap.obj
 0001:00057aa0       ?DrawCordonPoint@@YAXHH@Z  00458aa0 f   3DRandMap.obj
 0001:00057b30       ?PictureCordons@@YAXXZ     00458b30 f   3DRandMap.obj
 0001:00057dd0       ??0RandomMapDesc@@QAE@XZ   00458dd0 f   3DRandMap.obj
 0001:00057df0       ?Close@RandomMapDesc@@QAEXXZ 00458df0 f   3DRandMap.obj
 0001:00057ed0       ??1RandomMapDesc@@QAE@XZ   00458ed0 f   3DRandMap.obj
 0001:00057ee0       ?ERRMP@@YAXPAD0@Z          00458ee0 f   3DRandMap.obj
 0001:00057f10       ?Load@RandomMapDesc@@QAEXPAD@Z 00458f10 f   3DRandMap.obj
 0001:00058410       ?TestGenMap@@YAXXZ         00459410 f   3DRandMap.obj
 0001:00058420       ?DelWhitePt@@YAXPAEHH@Z    00459420 f   3DRandMap.obj
 0001:00058490       ?ReadHiMap@@YAXPADPAPAEE@Z 00459490 f   3DRandMap.obj
 0001:00058500       ?DelWhiteSpot@@YAXPAEHH@Z  00459500 f   3DRandMap.obj
 0001:00058640       ?DelBorder@@YAXPAE@Z       00459640 f   3DRandMap.obj
 0001:000586b0       ?SoftZones@@YAXPADPAE@Z    004596b0 f   3DRandMap.obj
 0001:00058940       ?SoftAllMap@@YAXXZ         00459940 f   3DRandMap.obj
 0001:00058a20       ?GenerateMapForMission@@YAXPAD000@Z 00459a20 f   3DRandMap.obj
 0001:00059350       ??0SamplesSet@@QAE@XZ      0045a350 f   3DRandMap.obj
 0001:00059360       ?ClearAll@SamplesSet@@QAEXXZ 0045a360 f   3DRandMap.obj
 0001:000593d0       ?AddSquare@SamplesSet@@QAEXHH@Z 0045a3d0 f   3DRandMap.obj
 0001:000594d0       ?DelSquare@SamplesSet@@QAEXHH@Z 0045a4d0 f   3DRandMap.obj
 0001:00059670       ?EditRootParam@SamplesSet@@QAEXHH@Z 0045a670 f   3DRandMap.obj
 0001:00059e20       ?Draw@SamplesSet@@QAEXXZ   0045ae20 f   3DRandMap.obj
 0001:0005a060       ?NewSet@SamplesSet@@QAEXPAD@Z 0045b060 f   3DRandMap.obj
 0001:0005a100       ?SetActiveSet@SamplesSet@@QAEXPAD@Z 0045b100 f   3DRandMap.obj
 0001:0005a140       ?HandleSMSChat@@YAXPAD@Z   0045b140 f   3DRandMap.obj
 0001:0005a250       ?HandlwSMSMouse@@YAXXZ     0045b250 f   3DRandMap.obj
 0001:0005a2f0       ?AutoSMSSet@@YAXXZ         0045b2f0 f   3DRandMap.obj
 0001:0005a350       ?DrawSMS@@YAXXZ            0045b350 f   3DRandMap.obj
 0001:0005a370       ?SaveSMSInPieces@@YAXPAXHHHHHH@Z 0045b370 f   3DRandMap.obj
 0001:0005a6b0       ?SaveSMSInMap@@YAXPAX@Z    0045b6b0 f   3DRandMap.obj
 0001:0005a870       ?ClearSMS@@YAXXZ           0045b870 f   3DRandMap.obj
 0001:0005a890       ?LoadSMSInMap@@YAXPAX@Z    0045b890 f   3DRandMap.obj
 0001:0005aa40       ?AddLinkStart@LinkSys@@QAEXHHKE@Z 0045ba40 f   3DRandMap.obj
 0001:0005aad0       ?Init@LinkSys@@QAEXHH@Z    0045bad0 f   3DRandMap.obj
 0001:0005ab70       ?LoadOneLink@LinkSys@@QAEXPAD@Z 0045bb70 f   3DRandMap.obj
 0001:0005ade0       ?LoadSSet@LinkSys@@QAEXPAD@Z 0045bde0 f   3DRandMap.obj
 0001:0005ae40       ?GenerateRandomLink@LinkSys@@QAE_NH@Z 0045be40 f   3DRandMap.obj
 0001:0005ae90       ?GenerateLink@LinkSys@@QAE_NHHKEH@Z 0045be90 f   3DRandMap.obj
 0001:0005b410       ?TEST_GM@@YAXXZ            0045c410 f   3DRandMap.obj
 0001:0005b420       ?SetLockInMap@LinkSys@@QAEXHHHH@Z 0045c420 f   3DRandMap.obj
 0001:0005b4c0       ?CheckLockInMap@LinkSys@@QAE_NHHHH@Z 0045c4c0 f   3DRandMap.obj
 0001:0005b560       ?SetLockPt@LinkSys@@QAEXHHG@Z 0045c560 f   3DRandMap.obj
 0001:0005b5d0       ?GetLockPt@LinkSys@@QAEGHH@Z 0045c5d0 f   3DRandMap.obj
 0001:0005b610       ?DRAW_MAP_TMP@@YAXXZ       0045c610 f   3DRandMap.obj
 0001:0005b620       ?GenerateWithStyle@@YAXPAD@Z 0045c620 f   3DRandMap.obj
 0001:0005b810       ?AddStamp@LinkSys@@QAEXPADHH@Z 0045c810 f   3DRandMap.obj
 0001:0005b970       ?ClearStamps@LinkSys@@QAEXXZ 0045c970 f   3DRandMap.obj
 0001:0005b9d0       ?ExecuteStamps@LinkSys@@QAEXXZ 0045c9d0 f   3DRandMap.obj
 0001:0005bb60       ?FAST_RM_LoadVertices@@YAHPAVSaveBuf@@HHPAHH@Z 0045cb60 f   3DRandMap.obj
 0001:0005bd80       ?FAST_RM_LoadSprites@@YAXPAVSaveBuf@@HH@Z 0045cd80 f   3DRandMap.obj
 0001:0005be90       ?FAST_RM_LoadLock@@YAXPAVSaveBuf@@HH@Z 0045ce90 f   3DRandMap.obj
 0001:0005bf40       ?FAST_RM_LoadObj@@YAXPAVSaveBuf@@HH@Z 0045cf40 f   3DRandMap.obj
 0001:0005c090       ?FAST_RM_Load@@YAXPAVSaveBuf@@HH@Z 0045d090 f   3DRandMap.obj
 0001:0005c200       ?Draw1@@YAXHH@Z            0045d200 f   3DRandMap.obj
 0001:0005c2d0       ?Draw_GRASS@@YAXXZ         0045d2d0 f   3DRandMap.obj
 0001:0005c2e0       ?ProlongGrass@@YAXHH@Z     0045d2e0 f   3DRandMap.obj
 0001:0005c390       ?getr@@YAHXZ               0045d390 f   3DRandMap.obj
 0001:0005c3b0       ?DrawGrassNearUnit@@YAXHH@Z 0045d3b0 f   3DRandMap.obj
 0001:0005c3c0       ?DrawWaysToSel@@YAXXZ      0045d3c0 f   3DRandMap.obj
 0001:0005c3d0       ?Setup@GlobalProgress@@QAEXXZ 0045d3d0 f   3DRandMap.obj
 0001:0005c3e0       ?AddPosition@GlobalProgress@@QAEXHHH@Z 0045d3e0 f   3DRandMap.obj
 0001:0005c430       ?SetCurrentStage@GlobalProgress@@QAEXH@Z 0045d430 f   3DRandMap.obj
 0001:0005c470       ?SetCurrentPosition@GlobalProgress@@QAEXH@Z 0045d470 f   3DRandMap.obj
 0001:0005c4b0       ?GetCurProgress@GlobalProgress@@QAEHXZ 0045d4b0 f   3DRandMap.obj
 0001:0005c510       ??0GlobalProgress@@QAE@XZ  0045d510 f   3DRandMap.obj
 0001:0005c540       ?ExchangeTex@@YAEE@Z       0045d540 f   3DRandMap.obj
 0001:0005c5f0       ?MakeDesert@@YAXXZ         0045d5f0 f   3DRandMap.obj
 0001:0005c6c0       ?SetupRenderStack@@YAXXZ   0045d6c0 f   3DSurf.obj
 0001:0005c6c5       ?InitRenderStack@@YAXXZ    0045d6c5 f   3DSurf.obj
 0001:0005c78a       ?ReRenderMap@@YAXXZ        0045d78a f   3DSurf.obj
 0001:0005c7fb       ?SetStackSize@@YAXH@Z      0045d7fb f   3DSurf.obj
 0001:0005c808       ?xGetHeight@@YAFHH@Z       0045d808 f   3DSurf.obj
 0001:0005c870       ?SetLight@@YAXHHH@Z        0045d870 f   3DSurf.obj
 0001:0005c91a       ?SetAngLight@@YAXHH@Z      0045d91a f   3DSurf.obj
 0001:0005c9d0       ?RotateTeta@@YAXXZ         0045d9d0 f   3DSurf.obj
 0001:0005c9f8       ?RotateTetaI@@YAXXZ        0045d9f8 f   3DSurf.obj
 0001:0005ca20       ?RotatePhi@@YAXXZ          0045da20 f   3DSurf.obj
 0001:0005ca48       ?RotatePhiI@@YAXXZ         0045da48 f   3DSurf.obj
 0001:0005ca70       ?GetLight@@YAHHH@Z         0045da70 f   3DSurf.obj
 0001:0005cb6a       ?ClearRender@@YAXHH@Z      0045db6a f   3DSurf.obj
 0001:0005cb6f       ?AddHeight@@YAXHHH@Z       0045db6f f   3DSurf.obj
 0001:0005cc0f       ?CreateBlob@@YAXHHHH@Z     0045dc0f f   3DSurf.obj
 0001:0005cce6       ?InitRenderMap@@YAXXZ      0045dce6 f   3DSurf.obj
 0001:0005cd53       ?GetHig@@YAHHH@Z           0045dd53 f   3DSurf.obj
 0001:0005cd60       ?SaveArch24@@YA_NPADPAEHH@Z 0045dd60 f   ArchTool.obj
 0001:0005d535       ?ReadArch24@@YA_NPADPAUBMPformat@@PAPAE@Z 0045e535 f   ArchTool.obj
 0001:0005d990       ?SaveToBMP24@@YAXPADHHPAE@Z 0045e990 f   bmptool.obj
 0001:0005da98       ?ReadBMP24@@YA_NPADPAUBMPformat@@PAPAE@Z 0045ea98 f   bmptool.obj
 0001:0005dbbc       ?ReadBMP8@@YA_NPADPAUBMPformat@@PAPAE@Z 0045ebbc f   bmptool.obj
 0001:0005dcdc       ?ReadBMP8TOBPX@@YA_NPADPAPAE@Z 0045ecdc f   bmptool.obj
 0001:0005de0c       ?LoadBitmapLikeGrayscale@@YA_NPADPAH1PAPAE@Z 0045ee0c f   bmptool.obj
 0001:0005df12       ?GetResVal@@YAHPAEHHHHHH@Z 0045ef12 f   bmptool.obj
 0001:0005e0c9       ?GetSumm@@YAKPAD@Z         0045f0c9 f   bmptool.obj
 0001:0005e164       ?CheckIntegrity@@YAXXZ     0045f164 f   bmptool.obj
 0001:0005e2dc       ?_ExFree@@YAXPAX@Z         0045f2dc f   bmptool.obj
 0001:0005e353       ?_ExMalloc@@YAPAXH@Z       0045f353 f   bmptool.obj
 0001:0005e380       ?GetPaletteColor@@YAEHHH@Z 0045f380 f   Ddini.obj
 0001:0005e425       ?ClearRGB@@YAXXZ           0045f425 f   Ddini.obj
 0001:0005e494       ?FlipPages@@YAXXZ          0045f494 f   Ddini.obj
 0001:0005e65c       ?LockSurface@@YAXXZ        0045f65c f   Ddini.obj
 0001:0005e727       ?UnlockSurface@@YAXXZ      0045f727 f   Ddini.obj
 0001:0005e766       ?GetSDC@@YAPAUHDC__@@XZ    0045f766 f   Ddini.obj
 0001:0005e7dd       ?ModeCallback@@YGJPAU_DDSURFACEDESC@@PAX@Z 0045f7dd f   Ddini.obj
 0001:0005e8a1       ?EnumModesOnly@@YA_NXZ     0045f8a1 f   Ddini.obj
 0001:0005e994       ?CreateDDObjects@@YA_NPAUHWND__@@@Z 0045f994 f   Ddini.obj
 0001:0005ed2d       ?CreateRGBDDObjects@@YAHPAUHWND__@@@Z 0045fd2d f   Ddini.obj
 0001:0005f048       ?CreateRGB640DDObjects@@YAHPAUHWND__@@@Z 00460048 f   Ddini.obj
 0001:0005f366       ?LoadPalette@@YAXPBD@Z     00460366 f   Ddini.obj
 0001:0005f797       ?Susp@@YAXPAD@Z            00460797 f   Ddini.obj
 0001:0005f7a1       ?SetDarkPalette@@YAXXZ     004607a1 f   Ddini.obj
 0001:0005f87e       ?SlowLoadPalette@@YAXPBD@Z 0046087e f   Ddini.obj
 0001:0005fe9c       ?SlowUnLoadPalette@@YAXPBD@Z 00460e9c f   Ddini.obj
 0001:0005ffff       ?FreeDDObjects@@YAXXZ      00460fff f   Ddini.obj
 0001:0006006f       ?SetDebugMode@@YAXXZ       0046106f f   Ddini.obj
 0001:0006007e       ?NoDebugMode@@YAXXZ        0046107e f   Ddini.obj
 0001:0006008d       ?GetPalColor@@YAXEPAE00@Z  0046108d f   Ddini.obj
 0001:000600d0       ?ErrD@@YAXPBD@Z            004610d0 f   Dialogs.obj
 0001:00060132       ?SetCurPtr@@YAXH@Z         00461132 f   Dialogs.obj
 0001:0006013f       ?GetSound@@YAHPAD@Z        0046113f f   Dialogs.obj
 0001:000601c6       ??0DialogsSystem@@QAE@HH@Z 004611c6 f   Dialogs.obj
 0001:0006028a       ??0DialogsSystem@@QAE@XZ   0046128a f   Dialogs.obj
 0001:00060334       ?SetFonts@DialogsSystem@@QAEXPAVRLCFont@@000@Z 00461334 f   Dialogs.obj
 0001:00060371       ?Picture_OnMouseOver@@YA_NPAVSimpleDialog@@@Z 00461371 f   Dialogs.obj
 0001:0006039c       ?Picture_OnDraw@@YA_NPAVSimpleDialog@@@Z 0046139c f   Dialogs.obj
 0001:0006046c       ?addPicture@DialogsSystem@@QAEPAVPicture@@PAVSimpleDialog@@HHPAVSQPicture@@11@Z 0046146c f   Dialogs.obj
 0001:000605f9       ?CanvasDestroy@@YA_NPAVSimpleDialog@@@Z 004615f9 f   Dialogs.obj
 0001:00060621       ?CanvasDraw@@YA_NPAVSimpleDialog@@@Z 00461621 f   Dialogs.obj
 0001:00060b21       ?CheckSize@Canvas@@QAEXH@Z 00461b21 f   Dialogs.obj
 0001:00060b69       ?AddBar@Canvas@@QAEXHHHHE@Z 00461b69 f   Dialogs.obj
 0001:00060c4c       ?AddLine@Canvas@@QAEXHHHHE@Z 00461c4c f   Dialogs.obj
 0001:00060d2f       ?AddRect@Canvas@@QAEXHHHHE@Z 00461d2f f   Dialogs.obj
 0001:00060e12       ?AddSprite@Canvas@@QAEXHHHH@Z 00461e12 f   Dialogs.obj
 0001:00060ed4       ?AddText@Canvas@@QAEXHHPADPAVRLCFont@@@Z 00461ed4 f   Dialogs.obj
 0001:00060fb2       ?AddCText@Canvas@@QAEXHHPADPAVRLCFont@@@Z 00461fb2 f   Dialogs.obj
 0001:00061096       ?AddCanvas@DialogsSystem@@QAEPAVCanvas@@HHHH@Z 00462096 f   Dialogs.obj
 0001:000611e7       ?GPPicture_OnMouseOver@@YA_NPAVSimpleDialog@@@Z 004621e7 f   Dialogs.obj
 0001:000611ee       ?GPPicture_OnDraw@@YA_NPAVSimpleDialog@@@Z 004621ee f   Dialogs.obj
 0001:0006124e       ?addGPPicture@DialogsSystem@@QAEPAVGPPicture@@PAVSimpleDialog@@HHHH@Z 0046224e f   Dialogs.obj
 0001:000613ff       ?RLCPicture_OnDraw@@YA_NPAVSimpleDialog@@@Z 004623ff f   Dialogs.obj
 0001:000614fc       ?addRLCPicture@DialogsSystem@@QAEPAVRLCPicture@@PAVSimpleDialog@@HHPAPAUxRLCTable@@E1E1E@Z 004624fc f   Dialogs.obj
 0001:000616ab       ?GetRLen@@YAHPADPAVRLCFont@@@Z 004626ab f   Dialogs.obj
 0001:0006170a       ?DrawString@@YAXHHPADPAVRLCFont@@E@Z 0046270a f   Dialogs.obj
 0001:000617b7       ?TextButton_OnDraw@@YA_NPAVSimpleDialog@@@Z 004627b7 f   Dialogs.obj
 0001:0006190b       ?TextButton_OnMouseOver@@YA_NPAVSimpleDialog@@@Z 0046290b f   Dialogs.obj
 0001:00061936       ?TextButton_Destroy@@YA_NPAVSimpleDialog@@@Z 00462936 f   Dialogs.obj
 0001:0006195e       ?addTextButton@DialogsSystem@@QAEPAVTextButton@@PAVSimpleDialog@@HHPADPAVRLCFont@@22E@Z 0046295e f   Dialogs.obj
 0001:00061baf       ?GP_TextButton_OnDraw@@YA_NPAVSimpleDialog@@@Z 00462baf f   Dialogs.obj
 0001:00061e58       ?GP_TextButton_Destroy@@YA_NPAVSimpleDialog@@@Z 00462e58 f   Dialogs.obj
 0001:00061e86       ?addGP_TextButton@DialogsSystem@@QAEPAVGP_TextButton@@PAVSimpleDialog@@HHPADHHPAVRLCFont@@2@Z 00462e86 f   Dialogs.obj
 0001:000620bf       ?addGP_TextButtonLimited@DialogsSystem@@QAEPAVGP_TextButton@@PAVSimpleDialog@@HHPADHHHHPAVRLCFont@@2@Z 004630bf f   Dialogs.obj
 0001:00062302       ?GP_StdTextButton_OnDraw@@YA_NPAVSimpleDialog@@@Z 00463302 f   Dialogs.obj
 0001:00062559       ?addStdGP_TextButton@DialogsSystem@@QAEPAVGP_TextButton@@HHHPADHHPAVRLCFont@@1@Z 00463559 f   Dialogs.obj
 0001:0006279c       ?UniversalButton_OnDraw@@YA_NPAVSimpleDialog@@@Z 0046379c f   Dialogs.obj
 0001:00062beb       ?UniversalButton_Destroy@@YA_NPAVSimpleDialog@@@Z 00463beb f   Dialogs.obj
 0001:00062c0d       ?UniversalButton_OnKlick@@YA_NPAVSimpleDialog@@@Z 00463c0d f   Dialogs.obj
 0001:00062d2e       ?addUniversalButton@DialogsSystem@@QAEPAVUniversalButton@@HHHPADHPAHHH_NPAVRLCFont@@33@Z 00463d2e f   Dialogs.obj
 0001:00062f73       ?addTextureStrip@DialogsSystem@@QAEPAVUniversalButton@@HHHHHHHHH_N@Z 00463f73 f   Dialogs.obj
 0001:00063065       ?BpxTextButton_OnDraw@@YA_NPAVSimpleDialog@@@Z 00464065 f   Dialogs.obj
 0001:000631f9       ?BpxTextButton_OnMouseOver@@YA_NPAVSimpleDialog@@@Z 004641f9 f   Dialogs.obj
 0001:00063221       ?addBpxTextButton@DialogsSystem@@QAEPAVBpxTextButton@@PAVSimpleDialog@@HHPADPAVRLCFont@@22PAVSQPicture@@33@Z 00464221 f   Dialogs.obj
 0001:00063420       ?Video_OnDraw@@YA_NPAVSimpleDialog@@@Z 00464420 f   Dialogs.obj
 0001:000635bb       ?addVideoButton@DialogsSystem@@QAEPAVVideoButton@@PAVSimpleDialog@@HHHH@Z 004645bb f   Dialogs.obj
 0001:00063787       ?GP_Button_OnDraw@@YA_NPAVSimpleDialog@@@Z 00464787 f   Dialogs.obj
 0001:00063817       ?addGP_Button@DialogsSystem@@QAEPAVGP_Button@@PAVSimpleDialog@@HHHHH@Z 00464817 f   Dialogs.obj
 0001:000639a9       ?MouseIns@@YA_NHHHH@Z      004649a9 f   Dialogs.obj
 0001:000639de       ?MouseInsL@@YA_NHHHH@Z     004649de f   Dialogs.obj
 0001:00063a09       ?VScrollBar_Draw@@YA_NPAVSimpleDialog@@@Z 00464a09 f   Dialogs.obj
 0001:00063c25       ?VScrollBar_MouseOver@@YA_NPAVSimpleDialog@@@Z 00464c25 f   Dialogs.obj
 0001:0006403f       ?addVScrollBar@DialogsSystem@@QAEPAVVScrollBar@@PAVSimpleDialog@@HHHHPAVSQPicture@@11111111@Z 0046503f f   Dialogs.obj
 0001:000642a6       ?HScrollBar_Draw@@YA_NPAVSimpleDialog@@@Z 004652a6 f   Dialogs.obj
 0001:000644c0       ?HScrollBar_MouseOver@@YA_NPAVSimpleDialog@@@Z 004654c0 f   Dialogs.obj
 0001:000648da       ?addHScrollBar@DialogsSystem@@QAEPAVVScrollBar@@PAVSimpleDialog@@HHHHPAVSQPicture@@11111111@Z 004658da f   Dialogs.obj
 0001:00064b45       ?GP_ScrollBar_OnDraw@@YA_NPAVSimpleDialog@@@Z 00465b45 f   Dialogs.obj
 0001:00064f20       ?addGP_ScrollBar@DialogsSystem@@QAEPAVVScrollBar@@PAVSimpleDialog@@HHHHHHHHH@Z 00465f20 f   Dialogs.obj
 0001:000651b5       ?NewGP_VScrollBar_OnDraw@@YA_NPAVSimpleDialog@@@Z 004661b5 f   Dialogs.obj
 0001:0006564a       ?addNewGP_VScrollBar@DialogsSystem@@QAEPAVVScrollBar@@PAVSimpleDialog@@HHHHHHH@Z 0046664a f   Dialogs.obj
 0001:000658a3       ?addGP_ScrollBarL@DialogsSystem@@QAEPAVVScrollBar@@PAVSimpleDialog@@HHHHHHHHHH@Z 004668a3 f   Dialogs.obj
 0001:00065afd       ?ComplexBox_OnMouseOver@@YA_NPAVSimpleDialog@@@Z 00466afd f   Dialogs.obj
 0001:00065b95       ?ComplexBox_OnDraw@@YA_NPAVSimpleDialog@@@Z 00466b95 f   Dialogs.obj
 0001:00065e1f       ?addComplexBox@DialogsSystem@@QAEPAVComplexBox@@HHHHP6AXHHHHHEH@ZHH@Z 00466e1f f   Dialogs.obj
 0001:00065ff4       ?CustomBox_OnDraw@@YA_NPAVSimpleDialog@@@Z 00466ff4 f   Dialogs.obj
 0001:00066064       ?addCustomBox@DialogsSystem@@QAEPAVCustomBox@@HHHHP6AXHHHHHEH@Z@Z 00467064 f   Dialogs.obj
 0001:000661a8       ?GetItem@ListBox@@QAEPAUListBoxItem@@H@Z 004671a8 f   Dialogs.obj
 0001:000661ee       ?AddItem@ListBox@@QAEXPADH@Z 004671ee f   Dialogs.obj
 0001:00066357       ?AddStaticItem@ListBox@@QAEXPADH@Z 00467357 f   Dialogs.obj
 0001:00066426       ?ClearItems@ListBox@@QAEXXZ 00467426 f   Dialogs.obj
 0001:000664c2       ?SetFirstPos@ListBox@@QAEXH@Z 004674c2 f   Dialogs.obj
 0001:000664f5       ?SetCurrentItem@ListBox@@QAEXH@Z 004674f5 f   Dialogs.obj
 0001:00066590       ?ListBox_OnDraw@@YA_NPAVSimpleDialog@@@Z 00467590 f   Dialogs.obj
 0001:00066b81       ?ListBox_OnMouseOver@@YA_NPAVSimpleDialog@@@Z 00467b81 f   Dialogs.obj
 0001:00066c5b       ?GPListBox_OnMouseOver@@YA_NPAVSimpleDialog@@@Z 00467c5b f   Dialogs.obj
 0001:00066d3b       ?ListBox_Refresh@@YA_NPAVSimpleDialog@@@Z 00467d3b f   Dialogs.obj
 0001:00066de1       ?addListBox@DialogsSystem@@QAEPAVListBox@@PAVSimpleDialog@@HHHPAVSQPicture@@PAVRLCFont@@2PAVVScrollBar@@@Z 00467de1 f   Dialogs.obj
 0001:00067014       ?addListBox@DialogsSystem@@QAEPAVListBox@@PAVSimpleDialog@@HHHHHPAVRLCFont@@1PAVVScrollBar@@@Z 00468014 f   Dialogs.obj
 0001:00067215       ?addGP_ListBox@DialogsSystem@@QAEPAVListBox@@PAVSimpleDialog@@HHHHHHPAVRLCFont@@1PAVVScrollBar@@@Z 00468215 f   Dialogs.obj
 0001:0006743d       ?CutStringToLength@@YAXPADPAVRLCFont@@H@Z 0046843d f   Dialogs.obj
 0001:0006747c       ?InputBox_OnDraw@@YA_NPAVSimpleDialog@@@Z 0046847c f   Dialogs.obj
 0001:000677e4       ?InputBox_OnClick@@YA_NPAVSimpleDialog@@@Z 004687e4 f   Dialogs.obj
 0001:0006793f       ?InputBox_OnKeyDown@@YA_NPAVSimpleDialog@@@Z 0046893f f   Dialogs.obj
 0001:00067bae       ?addInputBox@DialogsSystem@@QAEPAVInputBox@@PAVSimpleDialog@@HHPADHPAVSQPicture@@PAVRLCFont@@3@Z 00468bae f   Dialogs.obj
 0001:00067d5c       ?addInputBox@DialogsSystem@@QAEPAVInputBox@@PAVSimpleDialog@@HHPADHHHPAVRLCFont@@2_N@Z 00468d5c f   Dialogs.obj
 0001:00067f11       ?addInputBox@DialogsSystem@@QAEPAVInputBox@@PAVSimpleDialog@@HHPADHHHPAVRLCFont@@2@Z 00468f11 f   Dialogs.obj
 0001:000680ac       ?CheckBox_OnDraw@@YA_NPAVSimpleDialog@@@Z 004690ac f   Dialogs.obj
 0001:000686a8       ?CheckBox_OnClick@@YA_NPAVSimpleDialog@@@Z 004696a8 f   Dialogs.obj
 0001:000687a5       ?CheckBox_Destroy@@YA_NPAVSimpleDialog@@@Z 004697a5 f   Dialogs.obj
 0001:000687c4       ?CheckBox_OnMouseOver@@YA_NPAVSimpleDialog@@@Z 004697c4 f   Dialogs.obj
 0001:000687d8       ?addCheckBox@DialogsSystem@@QAEPAVCheckBox@@PAVSimpleDialog@@HHPADH_NPAVSQPicture@@3PAVRLCFont@@4@Z 004697d8 f   Dialogs.obj
 0001:000689ff       ?addGP_CheckBox@DialogsSystem@@QAEPAVCheckBox@@PAVSimpleDialog@@HHPADPAVRLCFont@@2H_NHHHH@Z 004699ff f   Dialogs.obj
 0001:00068c56       ?CBar@@YAXHHHHE@Z          00469c56 f   Dialogs.obj
 0001:00068db8       ?ColoredBar_OnDraw@@YA_NPAVSimpleDialog@@@Z 00469db8 f   Dialogs.obj
 0001:00068e6c       ?addColoredBar@DialogsSystem@@QAEPAVColoredBar@@HHHHE@Z 00469e6c f   Dialogs.obj
 0001:00068f92       ?ColoredBar_OnDraw2@@YA_NPAVSimpleDialog@@@Z 00469f92 f   Dialogs.obj
 0001:0006900b       ?addViewPort2@DialogsSystem@@QAEPAVColoredBar@@HHHHE@Z 0046a00b f   Dialogs.obj
 0001:00069131       ?AssignScroll@TextViewer@@QAEXPAVVScrollBar@@@Z 0046a131 f   Dialogs.obj
 0001:0006915e       ?GetNextLine@TextViewer@@QAEXPAULineInfo@@@Z 0046a15e f   Dialogs.obj
 0001:000695be       ?CreateLinesList@TextViewer@@QAEXXZ 0046a5be f   Dialogs.obj
 0001:00069782       ?TextViewer_OnDestroy@@YA_NPAVSimpleDialog@@@Z 0046a782 f   Dialogs.obj
 0001:0006980e       ?TextViewer_OnDraw@@YA_NPAVSimpleDialog@@@Z 0046a80e f   Dialogs.obj
 0001:00069ca2       ?TextView_OnKeyDown@@YA_NPAVSimpleDialog@@@Z 0046aca2 f   Dialogs.obj
 0001:00069dea       ?TextView_OnClick@@YA_NPAVSimpleDialog@@@Z 0046adea f   Dialogs.obj
 0001:00069e1d       ?LoadFile@TextViewer@@QAEXPAD@Z 0046ae1d f   Dialogs.obj
 0001:00069f5a       ?addTextViewer@DialogsSystem@@QAEPAVTextViewer@@PAVSimpleDialog@@HHHHPADPAVRLCFont@@@Z 0046af5a f   Dialogs.obj
 0001:0006a1c7       ?ChatViewer_OnDraw@@YA_NPAVSimpleDialog@@@Z 0046b1c7 f   Dialogs.obj
 0001:0006a4ea       ?addChatViewer@DialogsSystem@@QAEPAVChatViewer@@PAVSimpleDialog@@HHHHHPAPAPAD1PAH@Z 0046b4ea f   Dialogs.obj
 0001:0006a664       ?BPXView_OnDraw@@YA_NPAVSimpleDialog@@@Z 0046b664 f   Dialogs.obj
 0001:0006aa96       ?BPXView_OnKeyDown@@YA_NPAVSimpleDialog@@@Z 0046ba96 f   Dialogs.obj
 0001:0006aa9d       ?BPXView_OnMouseOver@@YA_NPAVSimpleDialog@@@Z 0046ba9d f   Dialogs.obj
 0001:0006ac76       ?BPXView_OnDestroy@@YA_NPAVSimpleDialog@@@Z 0046bc76 f   Dialogs.obj
 0001:0006ac98       ?addBPXView@DialogsSystem@@QAEPAVBPXView@@PAVSimpleDialog@@HHHHHHHPAEPAVVScrollBar@@@Z 0046bc98 f   Dialogs.obj
 0001:0006af09       ?RLCListBox_OnDraw@@YA_NPAVSimpleDialog@@@Z 0046bf09 f   Dialogs.obj
 0001:0006b0c5       ?RLCListBox_OnKeyDown@@YA_NPAVSimpleDialog@@@Z 0046c0c5 f   Dialogs.obj
 0001:0006b0d5       ?RLCListBox_OnMouseOver@@YA_NPAVSimpleDialog@@@Z 0046c0d5 f   Dialogs.obj
 0001:0006b21a       ?RLCListBox_OnDestroy@@YA_NPAVSimpleDialog@@@Z 0046c21a f   Dialogs.obj
 0001:0006b242       ?addRLCListBox@DialogsSystem@@QAEPAVRLCListBox@@PAVSimpleDialog@@HHHHHEE@Z 0046c242 f   Dialogs.obj
 0001:0006b47c       ?ComboBox_OnDraw@@YA_NPAVSimpleDialog@@@Z 0046c47c f   Dialogs.obj
 0001:0006b93e       ?ComboBox_OnDrawActiveRuler@@YA_NPAVSimpleDialog@@@Z 0046c93e f   Dialogs.obj
 0001:0006c204       ?ComboBox_MouseOverActiveRuler@@YA_NPAVSimpleDialog@@HHH@Z 0046d204 f   Dialogs.obj
 0001:0006c520       ?ComboBox_OnDrawActive@@YA_NPAVSimpleDialog@@@Z 0046d520 f   Dialogs.obj
 0001:0006ce15       ?ComboBox_OnMouseOver@@YA_NPAVSimpleDialog@@@Z 0046de15 f   Dialogs.obj
 0001:0006cfd4       ?ComboBox_MouseOverActiveZone@@YA_NPAVSimpleDialog@@HHH@Z 0046dfd4 f   Dialogs.obj
 0001:0006d323       ?ComboBox_OnDestroy@@YA_NPAVSimpleDialog@@@Z 0046e323 f   Dialogs.obj
 0001:0006d33b       ?AssignScroll@ComboBox@@QAEXPAVDialogsSystem@@PAPAVVScrollBar@@HHH@Z 0046e33b f   Dialogs.obj
 0001:0006d426       ?CreateRuler@ComboBox@@QAEXHH@Z 0046e426 f   Dialogs.obj
 0001:0006d45d       ?addComboBox@DialogsSystem@@QAEPAVComboBox@@PAVSimpleDialog@@HHHHHEEPAVRLCFont@@1PAD@Z 0046e45d f   Dialogs.obj
 0001:0006d6cb       ?addGP_ComboBox@DialogsSystem@@QAEPAVComboBox@@PAVSimpleDialog@@HHHHHHPAVRLCFont@@1PAD@Z 0046e6cb f   Dialogs.obj
 0001:0006d99e       ?addGP_ComboBoxDLX@DialogsSystem@@QAEPAVComboBox@@PAVSimpleDialog@@HHHHHHHPAVRLCFont@@1PAD@Z 0046e99e f   Dialogs.obj
 0001:0006dc7f       ?Clear@ComboBox@@QAEXXZ    0046ec7f f   Dialogs.obj
 0001:0006dd15       ?AddLine@ComboBox@@QAEXPAD@Z 0046ed15 f   Dialogs.obj
 0001:0006de35       ?AddComplexLine@ComboBox@@QAEXPAD@Z 0046ee35 f   Dialogs.obj
 0001:0006deff       ?WinComboBox_OnDraw@@YA_NPAVSimpleDialog@@@Z 0046eeff f   Dialogs.obj
 0001:0006e45b       ?WinComboBox_OnDestroy@@YA_NPAVSimpleDialog@@@Z 0046f45b f   Dialogs.obj
 0001:0006e473       ?addWinComboBox@DialogsSystem@@QAEPAVWinComboBox@@PAVSimpleDialog@@PADHHHHHHHHPAVRLCFont@@2PAPAV2@HH@Z 0046f473 f   Dialogs.obj
 0001:0006e67c       ?AddLine@WinComboBox@@QAEXPAD@Z 0046f67c f   Dialogs.obj
 0001:0006e784       ?Clear@WinComboBox@@QAEXXZ 0046f784 f   Dialogs.obj
 0001:0006e801       ?GP_PageControl_OnDraw@@YA_NPAVSimpleDialog@@@Z 0046f801 f   Dialogs.obj
 0001:0006e8f6       ?addPageControl@DialogsSystem@@QAEPAVGP_PageControl@@PAVSimpleDialog@@HHHH@Z 0046f8f6 f   Dialogs.obj
 0001:0006ea81       ?AddPage@GP_PageControl@@QAEXHHHHH@Z 0046fa81 f   Dialogs.obj
 0001:0006eb2c       ?BorderEx_OnDraw@@YA_NPAVSimpleDialog@@@Z 0046fb2c f   Dialogs.obj
 0001:0006ec71       ?addBorder@DialogsSystem@@QAEPAVBorderEx@@HHHHHE@Z 0046fc71 f   Dialogs.obj
 0001:0006edc4       ?CustomBorder_OnDraw@@YA_NPAVSimpleDialog@@@Z 0046fdc4 f   Dialogs.obj
 0001:0006eed9       ?addCustomBorder@DialogsSystem@@QAEPAVCustomBorder@@HHHHHPAH0HH@Z 0046fed9 f   Dialogs.obj
 0001:0006f060       ??0SimpleDialog@@QAE@XZ    00470060 f   Dialogs.obj
 0001:0006f1ce       ?AssignSound@SimpleDialog@@QAEXHH@Z 004701ce f   Dialogs.obj
 0001:0006f20f       ?AssignSound@SimpleDialog@@QAEXPADH@Z 0047020f f   Dialogs.obj
 0001:0006f283       ?CopyToScreen@@YAXHHHH@Z   00470283 f   Dialogs.obj
 0001:0006f3aa       ?CopyToOffScreen@@YAXHHHHPAE@Z 004703aa f   Dialogs.obj
 0001:0006f4bb       ?CopyToRealScreen@@YAXHHHHPAE@Z 004704bb f   Dialogs.obj
 0001:0006f5cc       ?CopyToRealScreenMMX@@YAXHHHHPAE@Z 004705cc f   Dialogs.obj
 0001:0006f6de       ?Draw@SQPicture@@QAEXHH@Z  004706de f   Dialogs.obj
 0001:0006f7be       ?DrawTransparent@SQPicture@@QAEXHH@Z 004707be f   Dialogs.obj
 0001:0006f887       ?LoadPicture@SQPicture@@QAEXPAD@Z 00470887 f   Dialogs.obj
 0001:0006fad2       ??1SQPicture@@QAE@XZ       00470ad2 f   Dialogs.obj
 0001:0006fafc       ??0SQPicture@@QAE@XZ       00470afc f   Dialogs.obj
 0001:0006fb13       ??0SQPicture@@QAE@PAD@Z    00470b13 f   Dialogs.obj
 0001:0006fb38       ?DrawSD@@YAXPAVSimpleDialog@@@Z 00470b38 f   Dialogs.obj
 0001:0006fbbb       ?ProcessDialogs@DialogsSystem@@QAEXXZ 00470bbb f   Dialogs.obj
 0001:00070b49       ?RefreshView@DialogsSystem@@QAEXXZ 00471b49 f   Dialogs.obj
 0001:00070be8       ?CloseDialogs@DialogsSystem@@QAEXXZ 00471be8 f   Dialogs.obj
 0001:00070cb3       ?MarkToDraw@DialogsSystem@@QAEXXZ 00471cb3 f   Dialogs.obj
 0001:00070d0d       ??1DialogsSystem@@QAE@XZ   00471d0d f   Dialogs.obj
 0001:00070d25       ?MakeTranspSnapshot@@YAXXZ 00471d25 f   Dialogs.obj
 0001:00070dd4       ?FreeTransBuffer@@YAXXZ    00471dd4 f   Dialogs.obj
 0001:00070e0e       ?EncodeLine@@YAXPAE0000@Z  00471e0e f   Dialogs.obj
 0001:00070e58       ?EncodeLine1@@YAXPAE000@Z  00471e58 f   Dialogs.obj
 0001:00070e9d       ?EncodeLine2@@YAXPAE000@Z  00471e9d f   Dialogs.obj
 0001:00070ee2       ?PerformTransMix@@YAXH@Z   00471ee2 f   Dialogs.obj
 0001:000713ac       ?StartMixing@@YAXXZ        004723ac f   Dialogs.obj
 0001:000713c1       ?ProcessMixing@@YAXXZ      004723c1 f   Dialogs.obj
 0001:00071430       ?PushWindow@@YAXPAUTempWindow@@@Z 00472430 f   DrawForms.obj
 0001:00071486       ?PopWindow@@YAXPAUTempWindow@@@Z 00472486 f   DrawForms.obj
 0001:000714dc       ?IntersectWindows@@YAXHHHH@Z 004724dc f   DrawForms.obj
 0001:0007159d       ?DrawRect@@YAXHHHHPAUCorners@@H@Z 0047259d f   DrawForms.obj
 0001:0007188f       ?DrawRect1@@YAXHHHHPAUCorners@@H@Z 0047288f f   DrawForms.obj
 0001:00071bf9       ?DrawRect3@@YAXHHHHPAUCorners@@H@Z 00472bf9 f   DrawForms.obj
 0001:00071f2a       ?DrawRect4@@YAXHHHHPAUCorners@@H@Z 00472f2a f   DrawForms.obj
 0001:000724c8       ?DrawFilledRect@@YAXHHHHPAUCorners@@HHH@Z 004734c8 f   DrawForms.obj
 0001:000725cd       ?DrawFilledRect1@@YAXHHHHPAUCorners@@HHH@Z 004735cd f   DrawForms.obj
 0001:000726d2       ?DrawFilledRect3@@YAXHHHHPAUCorners@@HHH@Z 004736d2 f   DrawForms.obj
 0001:000727dc       ?DrawHeader@@YAXHHHHH@Z    004737dc f   DrawForms.obj
 0001:0007292b       ?DrawVScroller@@YAXHHHHHHHH@Z 0047392b f   DrawForms.obj
 0001:00072a55       ?DrawHdrTable@@YAXHHHH@Z   00473a55 f   DrawForms.obj
 0001:00072a81       ?DrawStdRect2@@YAXHHHHH@Z  00473a81 f   DrawForms.obj
 0001:00072ab1       ?DrawStdBar2@@YAXHHHHH@Z   00473ab1 f   DrawForms.obj
 0001:00072ae5       ?DrawStdBar12@@YAXHHHHH@Z  00473ae5 f   DrawForms.obj
 0001:00072b19       ?DrawStdHeader@@YAXHHH@Z   00473b19 f   DrawForms.obj
 0001:00072b44       ?DrawStdRect@@YAXHHHH@Z    00473b44 f   DrawForms.obj
 0001:00072b76       ?DrawStdBar@@YAXHHHH@Z     00473b76 f   DrawForms.obj
 0001:00072bac       ?DrawStdBar1@@YAXHHHH@Z    00473bac f   DrawForms.obj
 0001:00072be2       ?DrawLeftRect@@YAXHHHH@Z   00473be2 f   DrawForms.obj
 0001:00072c14       ?DrawRightRect@@YAXHHHH@Z  00473c14 f   DrawForms.obj
 0001:00072c46       ?DrawUpRect@@YAXHHHH@Z     00473c46 f   DrawForms.obj
 0001:00072c78       ?DrawDnRect@@YAXHHHH@Z     00473c78 f   DrawForms.obj
 0001:00072caa       ?DrawTable@@YAXHHHH@Z      00473caa f   DrawForms.obj
 0001:00072d03       ?DrawDoubleTable@@YAXHHHHH@Z 00473d03 f   DrawForms.obj
 0001:00072d61       ?DrawDoubleTable2@@YAXHHHHH@Z 00473d61 f   DrawForms.obj
 0001:00072dbf       ?DrawScrollDoubleTable@@YAXHHHHH@Z 00473dbf f   DrawForms.obj
 0001:00072e19       ?DrawScrollDoubleTableF@@YAXHHHHH@Z 00473e19 f   DrawForms.obj
 0001:00072e77       ?DrawScrollDoubleTable1@@YAXHHHHH@Z 00473e77 f   DrawForms.obj
 0001:00072ed1       ?DrawPaperPanel@@YAXHHHH@Z 00473ed1 f   DrawForms.obj
 0001:00072f07       ?DrawPaperPanelShadow@@YAXHHHH@Z 00473f07 f   DrawForms.obj
 0001:00072f39       ?DrawHintPattern@@YAXHHHH@Z 00473f39 f   DrawForms.obj
 0001:00072ff7       ?DrawStatTable@@YAXHHHHHH@Z 00473ff7 f   DrawForms.obj
 0001:00073105       ?DrawStatTable1@@YAXHHHHH@Z 00474105 f   DrawForms.obj
 0001:00073159       ?DrawStHeader@@YAXHHH@Z    00474159 f   DrawForms.obj
 0001:00073184       ?LoadBorders@@YAXXZ        00474184 f   DrawForms.obj
 0001:000731c0       ??0RLCFont@@QAE@H@Z        004741c0 f   Fastdraw.obj
 0001:000731fd       ?SetGPIndex@RLCFont@@QAEXH@Z 004741fd f   Fastdraw.obj
 0001:0007322d       ??0RLCFont@@QAE@XZ         0047422d f   Fastdraw.obj
 0001:00073269       ??1RLCFont@@QAE@XZ         00474269 f   Fastdraw.obj
 0001:000732a2       ?InitRLCWindows@@YAXXZ     004742a2 f   Fastdraw.obj
 0001:000732f1       ?StoreWindow@@YAXXZ        004742f1 f   Fastdraw.obj
 0001:00073340       ?RestoreWindow@@YAXXZ      00474340 f   Fastdraw.obj
 0001:0007336e       ?SetWind@@YAXHHHH@Z        0047436e f   Fastdraw.obj
 0001:00073391       ?SetRLCWindow@@YAXHHHHH@Z  00474391 f   Fastdraw.obj
 0001:00073457       ?SetScreenPtr@@YAXXZ       00474457 f   Fastdraw.obj
 0001:00073472       ?ShowRLC@@YAXHHPAX@Z       00474472 f   Fastdraw.obj
 0001:00073759       ?ShowRLCi@@YAXHHPAX@Z      00474759 f   Fastdraw.obj
 0001:00073a38       ?ShowRLCpal@@YAXHHPAXPAE@Z 00474a38 f   Fastdraw.obj
 0001:00073d32       ?ShowRLCipal@@YAXHHPAXPAE@Z 00474d32 f   Fastdraw.obj
 0001:0007403e       ?ShowRLCfonpal@@YAXHHPAXPAE@Z 0047503e f   Fastdraw.obj
 0001:00074352       ?ShowRLCifonpal@@YAXHHPAXPAE@Z 00475352 f   Fastdraw.obj
 0001:00074667       ?ShowRLChtpal@@YAXHHPAXPAE@Z 00475667 f   Fastdraw.obj
 0001:00074976       ?ShowRLCihtpal@@YAXHHPAXPAE@Z 00475976 f   Fastdraw.obj
 0001:00074c94       ?ShowRLCp1@@YAXHHPAX@Z     00475c94 f   Fastdraw.obj
 0001:00074cb2       ?ShowRLCp2@@YAXHHPAX@Z     00475cb2 f   Fastdraw.obj
 0001:00074cd0       ?ShowRLCp3@@YAXHHPAX@Z     00475cd0 f   Fastdraw.obj
 0001:00074cee       ?ShowRLCp4@@YAXHHPAX@Z     00475cee f   Fastdraw.obj
 0001:00074d0c       ?ShowRLCp5@@YAXHHPAX@Z     00475d0c f   Fastdraw.obj
 0001:00074d2a       ?ShowRLCp6@@YAXHHPAX@Z     00475d2a f   Fastdraw.obj
 0001:00074d48       ?ShowRLCp7@@YAXHHPAX@Z     00475d48 f   Fastdraw.obj
 0001:00074d66       ?ShowRLCip1@@YAXHHPAX@Z    00475d66 f   Fastdraw.obj
 0001:00074d84       ?ShowRLCip2@@YAXHHPAX@Z    00475d84 f   Fastdraw.obj
 0001:00074da2       ?ShowRLCip3@@YAXHHPAX@Z    00475da2 f   Fastdraw.obj
 0001:00074dc0       ?ShowRLCip4@@YAXHHPAX@Z    00475dc0 f   Fastdraw.obj
 0001:00074dde       ?ShowRLCip5@@YAXHHPAX@Z    00475dde f   Fastdraw.obj
 0001:00074dfc       ?ShowRLCip6@@YAXHHPAX@Z    00475dfc f   Fastdraw.obj
 0001:00074e1a       ?ShowRLCip7@@YAXHHPAX@Z    00475e1a f   Fastdraw.obj
 0001:00074e38       ?ShowRLCShadow@@YAXHHPAX@Z 00475e38 f   Fastdraw.obj
 0001:00074e56       ?ShowRLCiShadow@@YAXHHPAX@Z 00475e56 f   Fastdraw.obj
 0001:00074e74       ?ShowRLCWhite@@YAXHHPAX@Z  00475e74 f   Fastdraw.obj
 0001:00074e92       ?ShowRLCDarkN@@YAXHHPAXH@Z 00475e92 f   Fastdraw.obj
 0001:00074eb7       ?ShowRLCiDarkN@@YAXHHPAXH@Z 00475eb7 f   Fastdraw.obj
 0001:00074edc       ?ShowRLCRedN@@YAXHHPAXH@Z  00475edc f   Fastdraw.obj
 0001:00074f01       ?ShowRLCiRedN@@YAXHHPAXH@Z 00475f01 f   Fastdraw.obj
 0001:00074f26       ?ShowRLCItemDarkN@@YAXHHPAPAUxRLCTable@@HH@Z 00475f26 f   Fastdraw.obj
 0001:00074f7b       ?ShowRLCItemPal@@YAXHHPAPAUxRLCTable@@HPAE@Z 00475f7b f   Fastdraw.obj
 0001:00074fd0       ?ShowRLCItemGrad@@YAXHHPAPAUxRLCTable@@HPAE@Z 00475fd0 f   Fastdraw.obj
 0001:00075025       ?ShowRLCItemRedN@@YAXHHPAPAUxRLCTable@@HH@Z 00476025 f   Fastdraw.obj
 0001:0007507a       ?ShowRLCWFog@@YAXHHPAX@Z   0047607a f   Fastdraw.obj
 0001:00075098       ?ShowRLCiWhite@@YAXHHPAX@Z 00476098 f   Fastdraw.obj
 0001:000750b6       ?ShowRLCiWFog@@YAXHHPAX@Z  004760b6 f   Fastdraw.obj
 0001:000750d4       ?ShowRLCiTrans8@@YAXHHPAX@Z 004760d4 f   Fastdraw.obj
 0001:000750f2       ?ShowRLCTrans8@@YAXHHPAX@Z 004760f2 f   Fastdraw.obj
 0001:00075110       ?ShowRLCDark@@YAXHHPAX@Z   00476110 f   Fastdraw.obj
 0001:0007512e       ?ShowRLCiDark@@YAXHHPAX@Z  0047612e f   Fastdraw.obj
 0001:0007514c       ?ShowRLCBlue@@YAXHHPAX@Z   0047614c f   Fastdraw.obj
 0001:0007516a       ?ShowRLCiBlue@@YAXHHPAX@Z  0047616a f   Fastdraw.obj
 0001:00075188       ?ShowRLCFire@@YAXHHPAX@Z   00476188 f   Fastdraw.obj
 0001:000751a6       ?ShowRLCiFire@@YAXHHPAX@Z  004761a6 f   Fastdraw.obj
 0001:000751c4       ?LoadRLC@@YA_NPBDPAPAUxRLCTable@@@Z 004761c4 f   Fastdraw.obj
 0001:00075313       ?ShowRLCItem@@YAXHHPAPAUxRLCTable@@HE@Z 00476313 f   Fastdraw.obj
 0001:00075643       ?ShowRLCItemTrans8@@YAXHHPAPAUxRLCTable@@H@Z 00476643 f   Fastdraw.obj
 0001:00075690       ?ShowRLCItemShadow@@YAXHHPAPAUxRLCTable@@H@Z 00476690 f   Fastdraw.obj
 0001:00075695       ?ShowRLCItemMutno@@YAXHHPAPAUxRLCTable@@H@Z 00476695 f   Fastdraw.obj
 0001:000756e2       ?ShowRLCItemDark@@YAXHHPAPAUxRLCTable@@H@Z 004766e2 f   Fastdraw.obj
 0001:0007572f       ?ShowRLCItemBlue@@YAXHHPAPAUxRLCTable@@H@Z 0047672f f   Fastdraw.obj
 0001:0007577c       ?ShowRLCItemFired@@YAXHHPAPAUxRLCTable@@H@Z 0047677c f   Fastdraw.obj
 0001:000757c9       ?GetRLCWidth@@YAHPAUxRLCTable@@E@Z 004767c9 f   Fastdraw.obj
 0001:00075841       ?GetCHEX@@YAHE@Z           00476841 f   Fastdraw.obj
 0001:000758c1       ?GetRLCWidthUNICODE@@YAHPAUxRLCTable@@PAEPAH@Z 004768c1 f   Fastdraw.obj
 0001:00075a1a       ?GetRLCHeight@@YAHPAUxRLCTable@@E@Z 00476a1a f   Fastdraw.obj
 0001:00075a73       ?RegisterRLCFont@@YAXPAVRLCFont@@PAUxRLCTable@@H@Z 00476a73 f   Fastdraw.obj
 0001:00075a9c       ?CheckFontColor@@YAXPAVRLCFont@@@Z 00476a9c f   Fastdraw.obj
 0001:00075adb       ?ShowChar@@YAXHHDPAVRLCFont@@@Z 00476adb f   Fastdraw.obj
 0001:00075b5c       ?ShowCharUNICODE@@YAXHHPAEPAVRLCFont@@@Z 00476b5c f   Fastdraw.obj
 0001:00075dc5       ?ShowString@@YAXHHPBDPAVRLCFont@@@Z 00476dc5 f   Fastdraw.obj
 0001:00075f1f       ?GetRLCStrWidth@@YAHPADPAVRLCFont@@@Z 00476f1f f   Fastdraw.obj
 0001:00075f9e       ?ShowShadString@@YAXHHPBDPAVRLCFont@@@Z 00476f9e f   Fastdraw.obj
 0001:00076079       ?LoadPalettes@@YAXXZ       00477079 f   Fastdraw.obj
 0001:000761df       ??0RLCFont@@QAE@PAD@Z      004771df f   Fastdraw.obj
 0001:0007623a       ?SetRedColor@RLCFont@@QAEXXZ 0047723a f   Fastdraw.obj
 0001:0007624c       ?SetWhiteColor@RLCFont@@QAEXXZ 0047724c f   Fastdraw.obj
 0001:0007625e       ?SetBlackColor@RLCFont@@QAEXXZ 0047725e f   Fastdraw.obj
 0001:00076270       ?SetColorTable@RLCFont@@QAEXH@Z 00477270 f   Fastdraw.obj
 0001:00076290       ?ClearFog@@YAXXZ           00477290 f   fog.obj
 0001:0007632c       ?LoadOptionalTable@@YAXHPAD@Z 0047732c f   fog.obj
 0001:000763b1       ?ProcessFog1_1@@YAXXZ      004773b1 f   fog.obj
 0001:0007648a       ?ProcessFog1_2@@YAXXZ      0047748a f   fog.obj
 0001:00076563       ?ProcessFog1_3@@YAXXZ      00477563 f   fog.obj
 0001:0007663d       ?ProcessFog1@@YAXXZ        0047763d f   fog.obj
 0001:00076674       ?LoadFog@@YAXH@Z           00477674 f   fog.obj
 0001:00076b3a       ?SetupFog@@YAXXZ           00477b3a f   fog.obj
 0001:00076b73       ?SetScreenFog16x16@@YAXXZ  00477b73 f   fog.obj
 0001:00076c5d       ?ProcessScreenFog16x16@@YAXXZ 00477c5d f   fog.obj
 0001:00076cf1       ?ShowSuperFluentFog32_160_16@@YAXHHHHHH@Z 00477cf1 f   fog.obj
 0001:00077074       ?ShowSuperFluentFog16_160@@YAXHHHHHH@Z 00478074 f   fog.obj
 0001:000772b3       ?ShowSuperFluentFog12_160@@YAXHHHHHH@Z 004782b3 f   fog.obj
 0001:00077518       ?makeFden@@YAXXZ           00478518 f   fog.obj
 0001:00077580       ?GetF@@YAHG@Z              00478580 f   fog.obj
 0001:000775b3       ?TurnFogOn@@YAXXZ          004785b3 f   fog.obj
 0001:000775c2       ?TurnFogOff@@YAXXZ         004785c2 f   fog.obj
 0001:000775d1       ?SetLightPoint@@YAXHH@Z    004785d1 f   fog.obj
 0001:00077698       ?UnitLight@@YAXPAVOneObject@@@Z 00478698 f   fog.obj
 0001:00077ce3       ?SetWF@@YAXHHG@Z           00478ce3 f   fog.obj
 0001:00077d23       ?CreateFogImage@@YAXXZ     00478d23 f   fog.obj
 0001:00078159       ?DrawFog@@YAXXZ            00479159 f   fog.obj
 0001:0007823f       ?FogSpot@@YAXHH@Z          0047923f f   fog.obj
 0001:000782c1       ?GetFog@@YAGHH@Z           004792c1 f   fog.obj
 0001:00078341       ?DrawMiniFog@@YAXXZ        00479341 f   fog.obj
 0001:00078450       ?CDGINIT_INIT3@@YGXXZ      00479450 f   GP_Draw.obj
 0001:0007845f       ??0GP_System@@QAE@XZ       0047945f f   GP_Draw.obj
 0001:000788cc       ??1GP_System@@QAE@XZ       004798cc f   GP_Draw.obj
 0001:00078a4b       ?GetGPWidth@GP_System@@QAEHHH@Z 00479a4b f   GP_Draw.obj
 0001:00078ac0       ?GetGPShift@GP_System@@QAEHHH@Z 00479ac0 f   GP_Draw.obj
 0001:00078b24       ?GetGPHeight@GP_System@@QAEHHH@Z 00479b24 f   GP_Draw.obj
 0001:00078b75       ?GetGPSize@GP_System@@QAE_NHHPAH0@Z 00479b75 f   GP_Draw.obj
 0001:00078bf7       ?GetCash@GP_System@@QAEPAEH@Z 00479bf7 f   GP_Draw.obj
 0001:00078d9f       ?PreLoadGPImage@GP_System@@QAEHPAD_N@Z 00479d9f f   GP_Draw.obj
 0001:00078db8       ?SetWhiteFont@GP_System@@QAEXH@Z 00479db8 f   GP_Draw.obj
 0001:00078df2       ?SetRedFont@GP_System@@QAEXH@Z 00479df2 f   GP_Draw.obj
 0001:00078e2c       ?SetBlackFont@GP_System@@QAEXH@Z 00479e2c f   GP_Draw.obj
 0001:00078e63       ?SetOptionalColor@GP_System@@QAEXHH@Z 00479e63 f   GP_Draw.obj
 0001:00078ea2       ?UnLoadGP@GP_System@@QAEXH@Z 00479ea2 f   GP_Draw.obj
 0001:000790da       ?GetLx@GP_Header@@QAEHXZ   0047a0da f   GP_Draw.obj
 0001:0007913c       ?GetLy@GP_Header@@QAEHXZ   0047a13c f   GP_Draw.obj
 0001:0007919e       ?GetDx@GP_Header@@QAEHXZ   0047a19e f   GP_Draw.obj
 0001:000791f7       ?GetDy@GP_Header@@QAEHXZ   0047a1f7 f   GP_Draw.obj
 0001:00079250       ?PreLoadGPImage@GP_System@@QAEHPAD@Z 0047a250 f   GP_Draw.obj
 0001:00079623       ?LoadGP@GP_System@@QAE_NH@Z 0047a623 f   GP_Draw.obj
 0001:00079f59       ?GP_ShowMaskedPict@@YAXHHPAVGP_Header@@PAE1@Z 0047af59 f   GP_Draw.obj
 0001:0007a3ff       ?GP_ShowMaskedPictInv@@YAXHHPAVGP_Header@@PAE1@Z 0047b3ff f   GP_Draw.obj
 0001:0007a896       ?GP_ShowMaskedPictShadow@@YAXHHPAVGP_Header@@PAE1@Z 0047b896 f   GP_Draw.obj
 0001:0007ad5a       ?GP_ShowMaskedPictShadowInv@@YAXHHPAVGP_Header@@PAE1@Z 0047bd5a f   GP_Draw.obj
 0001:0007b21e       ?GP_ShowMaskedPictOverpoint@@YAXHHPAVGP_Header@@PAE1@Z 0047c21e f   GP_Draw.obj
 0001:0007b72d       ?GP_ShowMaskedPictOverpointInv@@YAXHHPAVGP_Header@@PAE1@Z 0047c72d f   GP_Draw.obj
 0001:0007bbf1       ?GP_ShowMaskedPalPict@@YAXHHPAVGP_Header@@PAE1@Z 0047cbf1 f   GP_Draw.obj
 0001:0007c09d       ?GP_ShowMaskedPalPictInv@@YAXHHPAVGP_Header@@PAE1@Z 0047d09d f   GP_Draw.obj
 0001:0007c55b       ?GP_ShowMaskedMultiPalPict@@YAXHHPAVGP_Header@@PAE1@Z 0047d55b f   GP_Draw.obj
 0001:0007ca31       ?GP_ShowMaskedMultiPalPictInv@@YAXHHPAVGP_Header@@PAE1@Z 0047da31 f   GP_Draw.obj
 0001:0007cf13       ?GP_ShowMaskedMultiPalTPict@@YAXHHPAVGP_Header@@PAE1@Z 0047df13 f   GP_Draw.obj
 0001:0007d3dd       ?GP_ShowMaskedMultiPalTPictInv@@YAXHHPAVGP_Header@@PAE1@Z 0047e3dd f   GP_Draw.obj
 0001:0007d8b3       ?GP_ShowMaskedMirrorPict@@YAXHHPAVGP_Header@@PAEPAH@Z 0047e8b3 f   GP_Draw.obj
 0001:0007ddf7       ?GP_ShowMaskedMirrorPictInv@@YAXHHPAVGP_Header@@PAEPAH@Z 0047edf7 f   GP_Draw.obj
 0001:0007e339       ?ShowGP@GP_System@@QAEXHHHHE@Z 0047f339 f   GP_Draw.obj
 0001:0007f058       ?CheckGP@@YAXXZ            00480058 f   GP_Draw.obj
 0001:0007f0a0       ?ShowGPLayers@GP_System@@QAEXHHHHEH@Z 004800a0 f   GP_Draw.obj
 0001:0007fe9b       ?ShowGPTransparent@GP_System@@QAEXHHHHE@Z 00480e9b f   GP_Draw.obj
 0001:000804cd       ?ShowGPTransparentLayers@GP_System@@QAEXHHHHEH@Z 004814cd f   GP_Draw.obj
 0001:00080ba6       ?FreeRefs@GP_System@@QAEXH@Z 00481ba6 f   GP_Draw.obj
 0001:00080d79       ?ShowGPPal@GP_System@@QAEXHHHHEPAE@Z 00481d79 f   GP_Draw.obj
 0001:0008180e       ?ShowGPPalLayers@GP_System@@QAEXHHHHEPAEH@Z 0048280e f   GP_Draw.obj
 0001:0008239c       ?ShowGPRedN@GP_System@@QAEXHHHHEH@Z 0048339c f   GP_Draw.obj
 0001:000823d1       ?ShowGPDarkN@GP_System@@QAEXHHHHEH@Z 004833d1 f   GP_Draw.obj
 0001:00082406       ?ShowGPDark@GP_System@@QAEXHHHHE@Z 00483406 f   GP_Draw.obj
 0001:00082434       ?ShowGPFired@GP_System@@QAEXHHHHE@Z 00483434 f   GP_Draw.obj
 0001:00082462       ?ShowGPMutno@GP_System@@QAEXHHHHE@Z 00483462 f   GP_Draw.obj
 0001:00082490       ?ShowGPGrad@GP_System@@QAEXHHHHEPAE@Z 00483490 f   GP_Draw.obj
 0001:00082593       ?OvpBar1@@YAXHHHHE@Z       00483593 f   GP_Draw.obj
 0001:000825dd       ?OvpBar2@@YAXHHHHE@Z       004835dd f   GP_Draw.obj
 0001:00082627       ?ShowGradPicture@@YAXHHHHHHHHPAEH@Z 00483627 f   GP_Draw.obj
 0001:00082722       ??0WaterSpot@@QAE@XZ       00483722 f   GP_Draw.obj
 0001:00082875       ?WSpot@WaterSpot@@QAEXHHHH@Z 00483875 f   GP_Draw.obj
 0001:000829c0       ?Process@WaterSpot@@QAEXXZ 004839c0 f   GP_Draw.obj
 0001:00082a8e       ?Draw@WaterSpot@@QAEXHH@Z  00483a8e f   GP_Draw.obj
 0001:00082c76       ?TestGP@@YAXXZ             00483c76 f   GP_Draw.obj
 0001:00082c85       ?InitXShift@@YAXXZ         00483c85 f   GP_Draw.obj
 0001:00082e93       ??0LocalGP@@QAE@XZ         00483e93 f   GP_Draw.obj
 0001:00082eb1       ??0LocalGP@@QAE@PAD@Z      00483eb1 f   GP_Draw.obj
 0001:00082ed6       ??1LocalGP@@QAE@XZ         00483ed6 f   GP_Draw.obj
 0001:00082ee9       ?Load@LocalGP@@QAEXPAD@Z   00483ee9 f   GP_Draw.obj
 0001:00082f25       ?UnLoad@LocalGP@@QAEXXZ    00483f25 f   GP_Draw.obj
 0001:00082fa3       ??0UNIFONTS@@QAE@XZ        00483fa3 f   GP_Draw.obj
 0001:00082fc4       ??1UNIFONTS@@QAE@XZ        00483fc4 f   GP_Draw.obj
 0001:00082ff8       ?FONERR@@YAXXZ             00483ff8 f   GP_Draw.obj
 0001:0008302e       ?LoadFonts@UNIFONTS@@QAEXXZ 0048402e f   GP_Draw.obj
 0001:00083500       ?FindFont@UNIFONTS@@QAEPAUUNICODETABLE@@PAD@Z 00484500 f   GP_Draw.obj
 0001:00083563       ?CheckInsideMask@@YA_NPAVGP_Header@@HH@Z 00484563 f   GP_Draw.obj
 0001:00083695       ?CheckGP_Inside@@YA_NHHHH@Z 00484695 f   GP_Draw.obj
 0001:0008383c       ?TestGP_INSIDE@@YAXXZ      0048483c f   GP_Draw.obj
 0001:00083841       ?Init_GP_IMG@@YAXXZ        00484841 f   GP_Draw.obj
 0001:0008387a       ?Clean_GP_IMG@@YAXXZ       0048487a f   GP_Draw.obj
 0001:00083889       ?RegisterVisibleGP@@YAXGHHHH@Z 00484889 f   GP_Draw.obj
 0001:00083950       ?CheckCoorInGP@@YAGHH@Z    00484950 f   GP_Draw.obj
 0001:000839f5       ?GetRealGPSize@@YAXHHPAH0@Z 004849f5 f   GP_Draw.obj
 0001:00083a80       ?NatUnpack@@YAXPAE0H@Z     00484a80 f i GP_Draw.obj
 0001:00083ad0       ?GreyUnpack@@YAXPAE0H@Z    00484ad0 f i GP_Draw.obj
 0001:00083b20       ?StdUnpack@@YAXPAE0H0@Z    00484b20 f i GP_Draw.obj
 0001:00083b90       ?LZUnpack@@YAXPAE0H@Z      00484b90 f i GP_Draw.obj
 0001:00083c00       ??0Graph@@QAE@XZ           00484c00 f   Graphs.obj
 0001:00083c31       ??0OneGraph@@QAE@XZ        00484c31 f   Graphs.obj
 0001:00083c70       ?Clear@OneGraph@@QAEXXZ    00484c70 f   Graphs.obj
 0001:00083cd3       ??1OneGraph@@QAE@XZ        00484cd3 f   Graphs.obj
 0001:00083ce6       ?AddTV@OneGraph@@QAEXHH@Z  00484ce6 f   Graphs.obj
 0001:00083e03       ?Add@Graph@@QAEXHHE@Z      00484e03 f   Graphs.obj
 0001:00083ebc       ?Clear@Graph@@QAEXXZ       00484ebc f   Graphs.obj
 0001:00083ef5       ?Draw@Graph@@QAEXHHHH@Z    00484ef5 f   Graphs.obj
 0001:000841ec       ?DrawAllGrp@@YAXXZ         004851ec f   Graphs.obj
 0001:000841f1       ?ADDGR@@YAXHHHE@Z          004851f1 f   Graphs.obj
 0001:000841f6       ?CLRGR@@YAXXZ              004851f6 f   Graphs.obj
 0001:00084230       ??1Graph@@QAE@XZ           00485230 f i Graphs.obj
 0001:00084250       ?addViewPort@DialogsSystem@@QAEPAVSimpleDialog@@HHHH@Z 00485250 f   GVClass.obj
 0001:00084368       ?MakeClipping@@YA_NPAVSimpleDialog@@@Z 00485368 f   GVClass.obj
 0001:000843f1       ?addClipper@DialogsSystem@@QAEPAVSimpleDialog@@HHHH@Z 004853f1 f   GVClass.obj
 0001:00084510       ?SetupHint@@YAXXZ          00485510 f   Hint.obj
 0001:00084555       ?ShowHint@@YAXXZ           00485555 f   Hint.obj
 0001:000847c5       ?ClearHints@@YAXXZ         004857c5 f   Hint.obj
 0001:000847fb       ?HideHint@@YAXXZ           004857fb f   Hint.obj
 0001:00084800       ?AssignHint@@YAXPADH@Z     00485800 f   Hint.obj
 0001:00084826       ?AssignHintLo@@YAXPADH@Z   00485826 f   Hint.obj
 0001:00084845       ?AssignHint1@@YAXPADH@Z    00485845 f   Hint.obj
 0001:000848fb       ?AssignHint1@@YAXPADHE@Z   004858fb f   Hint.obj
 0001:000849f3       ?GetChar@@YAXPAVGeneralObject@@PAD@Z 004859f3 f   Hint.obj
 0001:00084a13       ?ProcessHint@@YAXXZ        00485a13 f   Hint.obj
 0001:00084a80       ?InitIcon@OneIcon@@QAEXXZ  00485a80 f   IconTool.obj
 0001:00084b05       ?AssignIcon@OneIcon@@QAEXGG@Z 00485b05 f   IconTool.obj
 0001:00084b7c       ?AssignHint@OneIcon@@QAEXPAD@Z 00485b7c f   IconTool.obj
 0001:00084ba5       ?SelectIcon@OneIcon@@QAEXXZ 00485ba5 f   IconTool.obj
 0001:00084bbf       ?CreateHint@OneIcon@@QAEXPAD@Z 00485bbf f   IconTool.obj
 0001:00084d89       ?CreateHintLo@OneIcon@@QAEXPAD@Z 00485d89 f   IconTool.obj
 0001:00084de0       ?AssignColor@OneIcon@@QAEXE@Z 00485de0 f   IconTool.obj
 0001:00084e09       ?AssignHealth@OneIcon@@QAEXHH@Z 00485e09 f   IconTool.obj
 0001:00084e3b       ?AssignStage@OneIcon@@QAEXHH@Z 00485e3b f   IconTool.obj
 0001:00084e6d       ?AssignLeft@OneIcon@@QAEXP6AXH@ZH@Z 00485e6d f   IconTool.obj
 0001:00084e9f       ?AssignMoveOver@OneIcon@@QAEXP6AXH@ZH@Z 00485e9f f   IconTool.obj
 0001:00084ebe       ?AssignRight@OneIcon@@QAEXP6AXH@ZH@Z 00485ebe f   IconTool.obj
 0001:00084ef0       ?AssignIntVal@OneIcon@@QAEXH@Z 00485ef0 f   IconTool.obj
 0001:00084f21       ?AssignIntParam@OneIcon@@QAEXH@Z 00485f21 f   IconTool.obj
 0001:00084f4a       ?AssignRedPulse@OneIcon@@QAEXXZ 00485f4a f   IconTool.obj
 0001:00084f68       ?Disable@OneIcon@@QAEXXZ   00485f68 f   IconTool.obj
 0001:00084fb3       ?AssignLevel@OneIcon@@QAEXE@Z 00485fb3 f   IconTool.obj
 0001:00084fc9       ?DrawInf@@YAXHHE@Z         00485fc9 f   IconTool.obj
 0001:0008518a       ?Draw@OneIcon@@QAEXHH@Z    0048618a f   IconTool.obj
 0001:0008598a       ??0IconSet@@QAE@XZ         0048698a f   IconTool.obj
 0001:00085a32       ??1IconSet@@QAE@XZ         00486a32 f   IconTool.obj
 0001:00085a6f       ?InitIconSet@IconSet@@QAEXXZ 00486a6f f   IconTool.obj
 0001:00085a84       ?ClearIconSet@IconSet@@QAEXXZ 00486a84 f   IconTool.obj
 0001:00085ad8       ?AddIcon@IconSet@@QAEPAVOneIcon@@GG@Z 00486ad8 f   IconTool.obj
 0001:00085bff       ?AddIconFixed@IconSet@@QAEPAVOneIcon@@GGH@Z 00486bff f   IconTool.obj
 0001:00085c72       ?AddIcon@IconSet@@QAEPAVOneIcon@@GGPAD@Z 00486c72 f   IconTool.obj
 0001:00085ca5       ?AddIcon@IconSet@@QAEPAVOneIcon@@GGPADE@Z 00486ca5 f   IconTool.obj
 0001:00085cdc       ?AddIcon@IconSet@@QAEPAVOneIcon@@GGEPAD@Z 00486cdc f   IconTool.obj
 0001:00085d13       ?DrawIconSet@IconSet@@QAEXHHHHH@Z 00486d13 f   IconTool.obj
 0001:00085fa2       ?GetMaxX@IconSet@@QAEHH@Z  00486fa2 f   IconTool.obj
 0001:00086010       ?CheckGSC_Login@@YA_NXZ    00487010 f   Interface.obj
 0001:0008601a       ?GetGSC_Profile@@YAHXZ     0048701a f   Interface.obj
 0001:00086120       ?ShowProgStr@@YAXPADH@Z    00487120 f   Interface.obj
 0001:00086322       ?ShowOptMessage@@YAXPADH@Z 00487322 f   Interface.obj
 0001:00086376       ?EndGSC_Reporting@@YAXXZ   00487376 f   Interface.obj
 0001:0008638f       ?ProcessMessages@@YA_NXZ   0048738f f   Interface.obj
 0001:00086c5f       ?ProcessMessagesEx@@YA_NXZ 00487c5f f   Interface.obj
 0001:00086cdf       ?SFLB_InitDialogs@@YAXXZ   00487cdf f   Interface.obj
 0001:00086d5e       ?MMItemChoose@@YA_NPAVSimpleDialog@@@Z 00487d5e f   Interface.obj
 0001:00086d78       ?CHANGESORT@@YA_NPAVSimpleDialog@@@Z 00487d78 f   Interface.obj
 0001:00086db0       ?StdKeys@@YAXXZ            00487db0 f   Interface.obj
 0001:00086e09       ?InstallMap@@YAXPAVListBox@@PAD@Z 00487e09 f   Interface.obj
 0001:00086e2a       ?CreateMapsList@@YAXPAVListBox@@@Z 00487e2a f   Interface.obj
 0001:00086e7e       ?InstallNewMap@@YAXPAVListBox@@PAU_WIN32_FIND_DATAA@@@Z 00487e7e f   Interface.obj
 0001:00086e94       ?CreateNewMapsList@@YAXPAVListBox@@@Z 00487e94 f   Interface.obj
 0001:00086ee8       ?CheckMode@@YA_NXZ         00487ee8 f   Interface.obj
 0001:00086ff2       ?SERROR@@YAXXZ             00487ff2 f   Interface.obj
 0001:0008701f       ?SERROR1@@YAXXZ            0048801f f   Interface.obj
 0001:0008704c       ?SERROR2@@YAXXZ            0048804c f   Interface.obj
 0001:00087079       ?ClearScreen@@YAXXZ        00488079 f   Interface.obj
 0001:000870e6       ?DarkScreen@@YAXXZ         004880e6 f   Interface.obj
 0001:000871f7       ?ShowLoading@@YAXXZ        004881f7 f   Interface.obj
 0001:000873cd       ?SetGameDisplayModeAnyway@@YAXHH@Z 004883cd f   Interface.obj
 0001:00087416       ?SetGameDisplayMode@@YA_NHH@Z 00488416 f   Interface.obj
 0001:000874b5       ?ProcessSpeed@@YAXHH@Z     004884b5 f   Interface.obj
 0001:000874ba       ?ProcessSound@@YAXHH@Z     004884ba f   Interface.obj
 0001:000874bf       ?ProcessOptions@@YAXHH@Z   004884bf f   Interface.obj
 0001:000874c4       ?NatChoose@@YA_NPAVSimpleDialog@@@Z 004884c4 f   Interface.obj
 0001:00087528       ?setCoor@@YAXXZ            00488528 f   Interface.obj
 0001:00087566       ?ProcessMissions@@YAXXZ    00488566 f   Interface.obj
 0001:0008756b       ?OldprocessSinglePlayer@@YAXXZ 0048856b f   Interface.obj
 0001:00087570       ?processHostConnection@@YA_NXZ 00488570 f   Interface.obj
 0001:00087577       ?processJoinConnection@@YA_NXZ 00488577 f   Interface.obj
 0001:0008757e       ?processJoinGame@@YA_NXZ   0048857e f   Interface.obj
 0001:00087585       ?JOINTOINETGAME@@YA_NPAD@Z 00488585 f   Interface.obj
 0001:0008758c       ?MPL_JoinGame@@YA_NH@Z     0048858c f   Interface.obj
 0001:00087afd       ?processHostGame@@YA_NXZ   00488afd f   Interface.obj
 0001:00087b04       ?processMultiplayer@@YA_NXZ 00488b04 f   Interface.obj
 0001:00088786       ?processBattleMultiplayer@@YAXXZ 00489786 f   Interface.obj
 0001:00088b21       ?OldprocessMultiplayer@@YAXXZ 00489b21 f   Interface.obj
 0001:00088b26       ?ProcessMapOptions@@YAXXZ  00489b26 f   Interface.obj
 0001:00088e30       ?ProcessResEdit@@YAHXZ     00489e30 f   Interface.obj
 0001:000897a9       ?MM_ProcessSinglePlayer@@YAHXZ 0048a7a9 f   Interface.obj
 0001:00089be1       ?MMChooseName@@YA_NPAVSimpleDialog@@@Z 0048abe1 f   Interface.obj
 0001:00089bfb       ?SFLB_ReadFirstPlayerName@@YAXPAD@Z 0048abfb f   Interface.obj
 0001:00089c9d       ?EnterName@@YAXPAD@Z       0048ac9d f   Interface.obj
 0001:0008a49d       ?MPL_EnterName@@YA_NXZ     0048b49d f   Interface.obj
 0001:0008a4b4       ?Camp_EnterName@@YA_NXZ    0048b4b4 f   Interface.obj
 0001:0008a4cb       ?CommEnterName@@YA_NXZ     0048b4cb f   Interface.obj
 0001:0008a4e2       ?MPL_ChooseConnection@@YAHXZ 0048b4e2 f   Interface.obj
 0001:0008aa85       ?EnumPlr@@YA_NXZ           0048ba85 f   Interface.obj
 0001:0008aa99       ?GetPName@@YAPADH@Z        0048ba99 f   Interface.obj
 0001:0008aae6       ?ColorMouseOver@@YA_NPAVSimpleDialog@@@Z 0048bae6 f   Interface.obj
 0001:0008ab74       ?ChangeAlias@@YA_NPAVSimpleDialog@@@Z 0048bb74 f   Interface.obj
 0001:0008ac1b       ?Decode@@YAXPAE0H@Z        0048bc1b f   Interface.obj
 0001:0008ac57       ?GetPlNameByID@@YAPADK@Z   0048bc57 f   Interface.obj
 0001:0008acaa       ?ControlLingvo@@YAXPAD@Z   0048bcaa f   Interface.obj
 0001:0008ad1c       ?ClearCTime@@YAXXZ         0048bd1c f   Interface.obj
 0001:0008ada0       ?ShowCentralMessage@@YAXPADH@Z 0048bda0 f   Interface.obj
 0001:0008aea7       ?SearchPlayer@@YAHPAD@Z    0048bea7 f   Interface.obj
 0001:0008af3b       ?Draw_PLIST@@YAXHHHHHEH@Z  0048bf3b f   Interface.obj
 0001:0008b2ad       ?LimitString@@YAXPADPAVRLCFont@@H@Z 0048c2ad f   Interface.obj
 0001:0008b311       ?CreateRoomsHintString@@YAXHPAD_N@Z 0048c311 f   Interface.obj
 0001:0008b66e       ?CreatePlayerHintString@@YAXHPAD@Z 0048c66e f   Interface.obj
 0001:0008b735       ?Draw_RLIST@@YAXHHHHHEH@Z  0048c735 f   Interface.obj
 0001:0008bd54       ?DRAWBOX@@YAXHHHHHEH@Z     0048cd54 f   Interface.obj
 0001:0008bd83       ?EnterPassword@@YA_NXZ     0048cd83 f   Interface.obj
 0001:0008bf94       ?EnterPersonalMessage@@YAXPAD@Z 0048cf94 f   Interface.obj
 0001:0008c432       ?CreateSessionDialog@@YA_NXZ 0048d432 f   Interface.obj
 0001:0008ca7a       ?NoWaitWithMessage@@YAXPAD@Z 0048da7a f   Interface.obj
 0001:0008cae0       ?WaitWithMessage@@YAXPAD@Z 0048dae0 f   Interface.obj
 0001:0008cb7e       ?CheckJoin@@YA_NPAUGServerImplementation@@@Z 0048db7e f   Interface.obj
 0001:0008cbf7       ?AddPrimitiveChat@@YAXPAD0AAPAPAD1AAH2@Z 0048dbf7 f   Interface.obj
 0001:0008cd61       ?AddChatString@@YAXPAD0HPAVRLCFont@@AAPAPAD2AAH3@Z 0048dd61 f   Interface.obj
 0001:0008cf1a       ?SENDPRIVMESS@@YA_NPAVSimpleDialog@@@Z 0048df1a f   Interface.obj
 0001:0008cf9f       ?GetGerbByScore@@YAHH@Z    0048df9f f   Interface.obj
 0001:0008d0bc       ?GetRankByScore@@YAHH@Z    0048e0bc f   Interface.obj
 0001:0008d13d       ?GPI_callback3@@YAXPAPAXPAX1@Z 0048e13d f   Interface.obj
 0001:0008d164       ?DRAW_TOP100@@YAXHHHHHEH@Z 0048e164 f   Interface.obj
 0001:0008d5f3       ?DrawGraph@@YAHPAVCanvas@@HHQAY0CA@EPAEHPAGPAD@Z 0048e5f3 f   Interface.obj
 0001:0008d83b       ?CalcPassHash@@YAKPAD@Z    0048e83b f   Interface.obj
 0001:0008da3e       ?TryToJoinToPlayer@@YA_NPAD@Z 0048ea3e f   Interface.obj
 0001:0008dd7a       ?RunHTTPC@@YAXXZ           0048ed7a f   Interface.obj
 0001:0008de08       ?CheckForPersonalChat@@YA_NPAD@Z 0048ee08 f   Interface.obj
 0001:0008df2c       ?CheckPersonality@@YA_NPAD@Z 0048ef2c f   Interface.obj
 0001:0008dffc       ?SaveGlobalChat@@YAXXZ     0048effc f   Interface.obj
 0001:0008e0d0       ?LoadGeneralChat@@YAXXZ    0048f0d0 f   Interface.obj
 0001:0008e232       ?SavePersChat@@YAXXZ       0048f232 f   Interface.obj
 0001:0008e306       ?LoadPersonalChat@@YAXXZ   0048f306 f   Interface.obj
 0001:0008e468       ?ProcessInternetConnection@@YAH_N@Z 0048f468 f   Interface.obj
 0001:00094164       ?SetStdTBL@@YAXXZ          00495164 f   Interface.obj
 0001:00094192       ?MPL_WaitingGame@@YA_N_N0@Z 00495192 f   Interface.obj
 0001:0009c277       ?SetCurrentBattle@@YAHHPAVSQPicture@@PAPAVComboBox@@PAVTextViewer@@@Z 0049d277 f   Interface.obj
 0001:0009c497       ?AddToGChat@@YAXPAD0@Z     0049d497 f   Interface.obj
 0001:0009c4ae       ?ClearGChat@@YAXXZ         0049d4ae f   Interface.obj
 0001:0009c4bd       ?MPL_WaitingBattleGame@@YA_N_NH@Z 0049d4bd f   Interface.obj
 0001:0009f2cf       ?DetermineNationAI@@YAHE@Z 004a02cf f   Interface.obj
 0001:0009f3ab       ?RunEnciclopia@@YA_NPAVSimpleDialog@@@Z 004a03ab f   Interface.obj
 0001:0009f3bf       ?SingleOptions@@YA_NXZ     004a03bf f   Interface.obj
 0001:000a0c74       ?MM_ProcessMultiPlayer@@YAHXZ 004a1c74 f   Interface.obj
 0001:000a1054       ?ProcessMenuOptions@@YA_NXZ 004a2054 f   Interface.obj
 0001:000a1a66       ?ProcessGameOptions@@YA_NXZ 004a2a66 f   Interface.obj
 0001:000a2375       ?processMainMenu@@YAHXZ    004a3375 f   Interface.obj
 0001:000a2d41       ?GSYSDRAW@@YAXXZ           004a3d41 f   Interface.obj
 0001:000a2d50       ?ClearNames@@YAXXZ         004a3d50 f   Interface.obj
 0001:000a2d8d       ?FreeNames@@YAXXZ          004a3d8d f   Interface.obj
 0001:000a2e0b       ?ErrorBox@@YAXPAD@Z        004a3e0b f   Interface.obj
 0001:000a2e10       ?InstallName@@YAXPAVListBox@@PAU_WIN32_FIND_DATAA@@PAD@Z 004a3e10 f   Interface.obj
 0001:000a2fa2       ?SFLB_CreateGamesList@@YAXPAVListBox@@@Z 004a3fa2 f   Interface.obj
 0001:000a301f       ?CreateRecList@@YAXPAVListBox@@@Z 004a401f f   Interface.obj
 0001:000a311c       ?OldProcessGLoadGame@@YAXXZ 004a411c f   Interface.obj
 0001:000a3121       ?CheckFileIdentity@@YA_NPAD@Z 004a4121 f   Interface.obj
 0001:000a3343       ?ProcessGLoadGame@@YAXXZ   004a4343 f   Interface.obj
 0001:000a3724       ?ProcessFranceMission@@YAXXZ 004a4724 f   Interface.obj
 0001:000a392d       ?processMLoadGame@@YAXXZ   004a492d f   Interface.obj
 0001:000a3d9a       ?CheckName@@YA_NPAD@Z      004a4d9a f   Interface.obj
 0001:000a3de2       ?EnterVal@@YA_NPAHPAD@Z    004a4de2 f   Interface.obj
 0001:000a4076       ?EnterStr@@YA_NPAD0@Z      004a5076 f   Interface.obj
 0001:000a42a5       ?MemScreenPart@@YAXHHHHPAE@Z 004a52a5 f   Interface.obj
 0001:000a4303       ?EnterHi@@YAHPAHH@Z        004a5303 f   Interface.obj
 0001:000a4900       ?EnterChat@@YAXXZ          004a5900 f   Interface.obj
 0001:000a51c8       ?ProcessGSaveGame@@YAXXZ   004a61c8 f   Interface.obj
 0001:000a5649       ?NormalName@@YAXPAD@Z      004a6649 f   Interface.obj
 0001:000a5674       ?LBCLICK@@YA_NPAVSimpleDialog@@@Z 004a6674 f   Interface.obj
 0001:000a56b2       ?ProcessGSaveMap@@YAXXZ    004a66b2 f   Interface.obj
 0001:000a57c9       ?ProcessGLoadMap@@YAXXZ    004a67c9 f   Interface.obj
 0001:000a581a       ?CreateNewMap@@YAXHH@Z     004a681a f   Interface.obj
 0001:000a5860       ?CreateUnitList@@YAXPAVListBox@@H@Z 004a6860 f   Interface.obj
 0001:000a5a54       ?ChooseUnit@@YAXXZ         004a6a54 f   Interface.obj
 0001:000a60ea       ?ChooseUnitOld@@YAXXZ      004a70ea f   Interface.obj
 0001:000a67a4       ?ProcessGMapEditMainMenu@@YAHXZ 004a77a4 f   Interface.obj
 0001:000a68b8       ?GetTexture@@YAGXZ         004a78b8 f   Interface.obj
 0001:000a68f7       ?SelectTexture@@YAHXZ      004a78f7 f   Interface.obj
 0001:000a6ea1       ?ProcessGMainMenu@@YAHXZ   004a7ea1 f   Interface.obj
 0001:000a7293       ?ProcessE_GMainMenu@@YAHXZ 004a8293 f   Interface.obj
 0001:000a7575       ?CopyBPX2SCR@@YAXHHHHHHPAVSQPicture@@@Z 004a8575 f   Interface.obj
 0001:000a7627       ?DelUnusedZones@@YAXXZ     004a8627 f   Interface.obj
 0001:000a7845       ?DrawZones@@YAXXZ          004a8845 f   Interface.obj
 0001:000a7ad2       ?CopyZonesToScreen@@YAXXZ  004a8ad2 f   Interface.obj
 0001:000a7bd1       ?GSSetup800@@YAXXZ         004a8bd1 f   Interface.obj
 0001:000a81af       ?DrawAllScreen@@YAXXZ      004a91af f   Interface.obj
 0001:000a829d       ?FastScreenProcess@@YAXXZ  004a929d f   Interface.obj
 0001:000a83df       ?ShowAbout@@YAXXZ          004a93df f   Interface.obj
 0001:000a85dd       ?PlayGame@@YAXXZ           004a95dd f   Interface.obj
 0001:000a8abf       ?DrawAllEditScreen@@YAXXZ  004a9abf f   Interface.obj
 0001:000a8af6       ?FastEditScreenProcess@@YAXXZ 004a9af6 f   Interface.obj
 0001:000a8b7f       ?EditGame@@YAXXZ           004a9b7f f   Interface.obj
 0001:000a8db8       ?EnumAddressCallback1@@YGHABU_GUID@@KPBXPAX@Z 004a9db8 f   Interface.obj
 0001:000a8dee       ?ShowFailure@@YAXH@Z       004a9dee f   Interface.obj
 0001:000a90cf       ?AskQuestion2@@YA_NPAD000@Z 004aa0cf f   Interface.obj
 0001:000a9541       ?NotifyFirewallState@@YA_NXZ 004aa541 f   Interface.obj
 0001:000a95cb       ?CheckLobby@@YAHXZ         004aa5cb f   Interface.obj
 0001:000a999b       ?GetRndVid@@YAHH@Z         004aa99b f   Interface.obj
 0001:000a9b66       ?AllGame@@YAXXZ            004aab66 f   Interface.obj
 0001:000a9be2       ?PrepareEditMedia@@YAXE@Z  004aabe2 f   Interface.obj
 0001:000a9cf3       ?RedrawGameBackground@@YAXXZ 004aacf3 f   Interface.obj
 0001:000a9d0d       ?ProcessHelp@@YAXXZ        004aad0d f   Interface.obj
 0001:000aa1c4       ?ProcessComplexQuestion@@YAHHPADE00E00@Z 004ab1c4 f   Interface.obj
 0001:000aacca       ?ProcessMultilineQuestion@@YAHHPADE00@Z 004abcca f   Interface.obj
 0001:000ab690       ?ProcessMissionText@@YAXPAD0@Z 004ac690 f   Interface.obj
 0001:000abc49       ?ShowHistryItem@@YAHPAD0_N@Z 004acc49 f   Interface.obj
 0001:000ac32f       ?AskMissionQuestion@@YA_NPAD0@Z 004ad32f f   Interface.obj
 0001:000ad13a       ?SFLB_LoadMEDButtons@@YAXXZ 004ae13a f   Interface.obj
 0001:000ad1a5       ?SetupHiMap@@YAXXZ         004ae1a5 f   Interface.obj
 0001:000ad275       ?DeleteHiMap@@YAXXZ        004ae275 f   Interface.obj
 0001:000ad297       ?CreateHiMap@@YAXXZ        004ae297 f   Interface.obj
 0001:000ad38e       ?CreateFilesList@@YAXPADPAVListBox@@@Z 004ae38e f   Interface.obj
 0001:000ad3f1       ?ProcessLoadingFile@@YA_NPAD0H@Z 004ae3f1 f   Interface.obj
 0001:000ad83f       ?ProcessSavingFile@@YA_NPAD0H_N@Z 004ae83f f   Interface.obj
 0001:000add01       ?getR@@YAHNH@Z             004aed01 f   Interface.obj
 0001:000ae05d       ?Pix@@YAXHHE@Z             004af05d f   Interface.obj
 0001:000ae0b3       ?Circ@@YAXHHHHE@Z          004af0b3 f   Interface.obj
 0001:000ae224       ?func1@@YAHH@Z             004af224 f   Interface.obj
 0001:000ae2f8       ?func2@@YAHH@Z             004af2f8 f   Interface.obj
 0001:000ae364       ?func3@@YAHH@Z             004af364 f   Interface.obj
 0001:000ae3cf       ?func4@@YAHH@Z             004af3cf f   Interface.obj
 0001:000ae42a       ?func5@@YAHH@Z             004af42a f   Interface.obj
 0001:000ae4fe       ?UniTrans@@YAHHHHP6AHH@Z@Z 004af4fe f   Interface.obj
 0001:000ae72d       ?Transf1@@YAHHHH@Z         004af72d f   Interface.obj
 0001:000ae74b       ?Transf2@@YAHHHH@Z         004af74b f   Interface.obj
 0001:000ae769       ?Transf3@@YAHHHH@Z         004af769 f   Interface.obj
 0001:000ae787       ?Transf4@@YAHHHH@Z         004af787 f   Interface.obj
 0001:000ae7a5       ?Transf5@@YAHHHH@Z         004af7a5 f   Interface.obj
 0001:000ae7c3       ?PrepareMap@@YA_NPAVSimpleDialog@@@Z 004af7c3 f   Interface.obj
 0001:000ae8c2       ?RandomMap@@YA_NPAVSimpleDialog@@@Z 004af8c2 f   Interface.obj
 0001:000ae95b       ?LoadClick@@YA_NPAVSimpleDialog@@@Z 004af95b f   Interface.obj
 0001:000aeaa6       ?EditMiniMap@@YAXXZ        004afaa6 f   Interface.obj
 0001:000af994       ?ChooseTree@@YAXXZ         004b0994 f   Interface.obj
 0001:000afd9f       ?ChooseStone@@YAXXZ        004b0d9f f   Interface.obj
 0001:000b031d       ?ChooseHole@@YAXXZ         004b131d f   Interface.obj
 0001:000b089b       ?ChooseInterior@@YAXH@Z    004b189b f   Interface.obj
 0001:000b08d0       ?GetTreeItem@@YAHXZ        004b18d0 f   Interface.obj
 0001:000b0902       ?WaitingGame@@YA_N_N@Z     004b1902 f   Interface.obj
 0001:000b15d6       ?WaitingHostGame@@YA_NH@Z  004b25d6 f   Interface.obj
 0001:000b1648       ?WaitingJoinGame@@YA_NH@Z  004b2648 f   Interface.obj
 0001:000b16ab       ?GetOptionsFromMap@@YAXPAD@Z 004b26ab f   Interface.obj
 0001:000b178f       ?PrepareGameMedia@@YAXE_N@Z 004b278f f   Interface.obj
 0001:000b23ba       ?RandomMapDialog@@YAXPAD@Z 004b33ba f   Interface.obj
 0001:000b2bd1       ?EnterRandomParams@@YAXXZ  004b3bd1 f   Interface.obj
 0001:000b31a6       ?RandomMapDialog1@@YAXPADH0@Z 004b41a6 f   Interface.obj
 0001:000b31ab       ?ProcessSingleMission@@YA_NHH@Z 004b41ab f   Interface.obj
 0001:000b3abe       ?ProcessSingleCampagin@@YA_NH@Z 004b4abe f   Interface.obj
 0001:000b49e4       ??0AddMissionsPack@@QAE@XZ 004b59e4 f   Interface.obj
 0001:000b4cca       ??1AddMissionsPack@@QAE@XZ 004b5cca f   Interface.obj
 0001:000b4d3a       ?SelectSingleMission@@YA_NXZ 004b5d3a f   Interface.obj
 0001:000b5cd4       ?ProcessCampagins@@YAXH@Z  004b6cd4 f   Interface.obj
 0001:000b65b5       ?ProcessOneBattle@@YA_NH@Z 004b75b5 f   Interface.obj
 0001:000b6dba       ?ProcessWars@@YAHXZ        004b7dba f   Interface.obj
 0001:000b7a9c       ?SlideShow@@YAXXZ          004b8a9c f   Interface.obj
 0001:000b7c40       ?ShowPreview@@YAXXZ        004b8c40 f   Interface.obj
 0001:000b7dd6       ?PrintNum@@YAXHPAD@Z       004b8dd6 f   Interface.obj
 0001:000b7e87       ?ShowStatistics@@YA_NXZ    004b8e87 f   Interface.obj
 0001:000b7f46       ?CreateCommName@@YAXEPAD@Z 004b8f46 f   Interface.obj
 0001:000b7fba       ?ShowStatScreen@@YAH_N0E@Z 004b8fba f   Interface.obj
 0001:000b94c2       ?ShowUserStat@@YAH_N0@Z    004ba4c2 f   Interface.obj
 0001:000ba225       ?CenterScreen@@YAXXZ       004bb225 f   Interface.obj
 0001:000ba38a       ?ProcessChatKeys@@YAXXZ    004bb38a f   Interface.obj
 0001:000baedc       ?ShowChat@@YAXXZ           004bbedc f   Interface.obj
 0001:000bb216       ?ProcessIndividualMessages@@YA_NPAD0@Z 004bc216 f   Interface.obj
 0001:000bb317       ?ShowMultiplayerChat@@YAXXZ 004bc317 f   Interface.obj
 0001:000bb914       ?CheckFNSend@@YA_NH@Z      004bc914 f   Interface.obj
 0001:000bb9dc       ?GetTimeString@@YAXHPAD@Z  004bc9dc f   Interface.obj
 0001:000bba5d       ?SendInfoString@@YAXPAD@Z  004bca5d f   Interface.obj
 0001:000bbd44       ?LoadMapInterface@@YAXXZ   004bcd44 f   Interface.obj
 0001:000bbd6c       ?PressCurrentEdModeButton@@YAXH@Z 004bcd6c f   Interface.obj
 0001:000bbdf5       ?ON_TOOL_CLICK@@YA_NPAVSimpleDialog@@@Z 004bcdf5 f   Interface.obj
 0001:000bc0ce       ?TBOX_DIALOGS@@YA_NPAVSimpleDialog@@@Z 004bd0ce f   Interface.obj
 0001:000bc164       ?HideTool@@YA_NPAVSimpleDialog@@@Z 004bd164 f   Interface.obj
 0001:000bc172       ?CreateMapInterface@@YAXXZ 004bd172 f   Interface.obj
 0001:000bc487       ?ClearUnderDialog@@YAXPAVDialogsSystem@@@Z 004bd487 f   Interface.obj
 0001:000bc52b       ?ProcessMapInterface@@YAXXZ 004bd52b f   Interface.obj
 0001:000bc5ee       ?CH_NATION_CLICK@@YA_NPAVSimpleDialog@@@Z 004bd5ee f   Interface.obj
 0001:000bc662       ?CH_NATION_CLICK_MP@@YA_NPAVSimpleDialog@@@Z 004bd662 f   Interface.obj
 0001:000bc707       ?CloseToolOpt@@YA_NPAVSimpleDialog@@@Z 004bd707 f   Interface.obj
 0001:000bc715       ?CheckFlagsNeed@@YA_NXZ    004bd715 f   Interface.obj
 0001:000bc7e7       ?CreateFlags@@YAXHH@Z      004bd7e7 f   Interface.obj
 0001:000bcaef       ?StdWheel@@YAXXZ           004bdaef f   Interface.obj
 0001:000bcb4b       ?CreateTOOL_PARAM_DEFAULT@@YAXXZ 004bdb4b f   Interface.obj
 0001:000bcc12       ?TP_UNIT_CLICK@@YA_NPAVSimpleDialog@@@Z 004bdc12 f   Interface.obj
 0001:000bcc8f       ?CreateTOOL_PARAM_UNIT@@YAXXZ 004bdc8f f   Interface.obj
 0001:000bd082       ?ProcessTOOL_PARAM_UNIT@@YAXXZ 004be082 f   Interface.obj
 0001:000bd15d       ?ON_SPRITE_CLICK@@YA_NPAVSimpleDialog@@@Z 004be15d f   Interface.obj
 0001:000bd31e       ?CreateTOOL_PARAM_SPRITE@@YAXE@Z 004be31e f   Interface.obj
 0001:000bd8a9       ?ProcessTOOL_PARAM_SPRITES@@YAXXZ 004be8a9 f   Interface.obj
 0001:000bd98b       ?MINHI_CLICK@@YA_NPAVSimpleDialog@@@Z 004be98b f   Interface.obj
 0001:000bd9a4       ?MAXHI_CLICK@@YA_NPAVSimpleDialog@@@Z 004be9a4 f   Interface.obj
 0001:000bd9bd       ?MINANG_CLICK@@YA_NPAVSimpleDialog@@@Z 004be9bd f   Interface.obj
 0001:000bd9d6       ?MAXANG_CLICK@@YA_NPAVSimpleDialog@@@Z 004be9d6 f   Interface.obj
 0001:000bd9ef       ?CreateTOOL_PARAM_TEXTURE@@YAXXZ 004be9ef f   Interface.obj
 0001:000be317       ?ProcessTOOL_PARAM_TEXTURE@@YAXXZ 004bf317 f   Interface.obj
 0001:000be8fb       ?AddPiece@@YAXPAD@Z        004bf8fb f   Interface.obj
 0001:000bea7d       ?ClearPieces@@YAXXZ        004bfa7d f   Interface.obj
 0001:000beaee       ?ReadAllPieces@@YAXXZ      004bfaee f   Interface.obj
 0001:000beb55       ?CreateTOOL_PARAM_PIECES@@YAXXZ 004bfb55 f   Interface.obj
 0001:000bed09       ?ProcessTOOL_PARAM_PIECES@@YAXXZ 004bfd09 f   Interface.obj
 0001:000beea7       ?CreateTOOL_PARAM_WATER@@YAXXZ 004bfea7 f   Interface.obj
 0001:000bf136       ?ProcessTOOL_PARAM_WATER@@YAXXZ 004c0136 f   Interface.obj
 0001:000bf1ac       ?CreateTOOL_PARAM_BRIGHTNESS@@YAXE@Z 004c01ac f   Interface.obj
 0001:000bf3ff       ?ProcessTOOL_PARAM_BRIGHTNESS@@YAXXZ 004c03ff f   Interface.obj
 0001:000bf452       ?CreateTOOL_PARAM_RELIEF@@YAXE@Z 004c0452 f   Interface.obj
 0001:000bf69f       ?ProcessTOOL_PARAM_RELIEF@@YAXXZ 004c069f f   Interface.obj
 0001:000bf6df       ?ProcessTOOL_PARAM@@YAXXZ  004c06df f   Interface.obj
 0001:000bfb9e       ?ClearPen@@YAXPAE@Z        004c0b9e f   Interface.obj
 0001:000bfbf7       ?DrawTreePen@@YAXPAEHH@Z   004c0bf7 f   Interface.obj
 0001:000bfccc       ?DrawPenCircle@@YAXPAEHE@Z 004c0ccc f   Interface.obj
 0001:000bfdea       ?DrawWaterPen@@YAXPAEH@Z   004c0dea f   Interface.obj
 0001:000bfe13       ?DrawHillPen@@YAXPAEH@Z    004c0e13 f   Interface.obj
 0001:000bfe39       ?DrawSoftPen@@YAXPAEH@Z    004c0e39 f   Interface.obj
 0001:000bfe62       ?DrawHeightPen@@YAXPAEHH@Z 004c0e62 f   Interface.obj
 0001:000bff0e       ?RenderToResult@@YAXHHHH@Z 004c0f0e f   Interface.obj
 0001:000bffcd       ?Clear@PixUndo@@QAEXXZ     004c0fcd f   Interface.obj
 0001:000c004b       ??0PixUndo@@QAE@XZ         004c104b f   Interface.obj
 0001:000c006c       ??1PixUndo@@QAE@XZ         004c106c f   Interface.obj
 0001:000c007f       ?OpenNewChunk@PixUndo@@QAEXXZ 004c107f f   Interface.obj
 0001:000c011b       ?AddUndoData@PixUndo@@QAEXEEEE@Z 004c111b f   Interface.obj
 0001:000c025b       ?PerformUndo@PixUndo@@QAEXXZ 004c125b f   Interface.obj
 0001:000c0400       ?PutTerrPixel@@YAXEHHE@Z   004c1400 f   Interface.obj
 0001:000c0538       ?TerrDrawTrees@@YAXHHHH@Z  004c1538 f   Interface.obj
 0001:000c0645       ?DrawTerrCircle@@YAXEHHHE@Z 004c1645 f   Interface.obj
 0001:000c0700       ?TerrDrawHills@@YAXHHH@Z   004c1700 f   Interface.obj
 0001:000c0751       ?TerrDrawWater@@YAXHHH@Z   004c1751 f   Interface.obj
 0001:000c07a2       ?TerrDrawSoft@@YAXHHH@Z    004c17a2 f   Interface.obj
 0001:000c07f3       ?GetPenH@@YANHHHH@Z        004c17f3 f   Interface.obj
 0001:000c0889       ?TerrDrawHi@@YAXHHHH@Z     004c1889 f   Interface.obj
 0001:000c09e8       ?SaveHData@@YAXPADPAE@Z    004c19e8 f   Interface.obj
 0001:000c0a26       ?LoadHData@@YAXPADPAE@Z    004c1a26 f   Interface.obj
 0001:000c0a64       ?SetupTerr@@YAXXZ          004c1a64 f   Interface.obj
 0001:000c0bfc       ?FreeTerr@@YAXXZ           004c1bfc f   Interface.obj
 0001:000c0c76       ?DrawCircle@@YAXHHHE@Z     004c1c76 f   Interface.obj
 0001:000c0d05       ?PushScreen@@YAXPAPAE@Z    004c1d05 f   Interface.obj
 0001:000c0d4f       ?PopScreen@@YAXPAE@Z       004c1d4f f   Interface.obj
 0001:000c0d80       ?SaveTerrainBitmap@@YAXPAD@Z 004c1d80 f   Interface.obj
 0001:000c1079       ?LoadTerrainBitmap@@YA_NPAD@Z 004c2079 f   Interface.obj
 0001:000c1247       ?ProcessLoadBitmap@@YAXXZ  004c2247 f   Interface.obj
 0001:000c1345       ?ProcessSaveBitmap@@YAXXZ  004c2345 f   Interface.obj
 0001:000c1410       ?ProcessTerrainEditor@@YAXXZ 004c2410 f   Interface.obj
 0001:000c21e0       ?CreateNEWMAP@@YAXXZ       004c31e0 f   Interface.obj
 0001:000c260c       ?ReadClanData@@YAXXZ       004c360c f   Interface.obj
 0001:000c2bbe       ?ShowClanString@@YAXHHPADEPAVRLCFont@@1H@Z 004c3bbe f   Interface.obj
 0001:000c2dff       ?ERRMESSAGE@@YAXPAD@Z      004c3dff f   Interface.obj
 0001:000c2e5b       ?CheckUsingAI@@YA_NXZ      004c3e5b f   Interface.obj
 0001:000c2eb0       ??_GDialogsSystem@@QAEPAXI@Z 004c3eb0 f i Interface.obj
 0001:000c2ee0       ??_GSQPicture@@QAEPAXI@Z   004c3ee0 f i Interface.obj
 0001:000c2f10       ??0ClanInfo@@QAE@XZ        004c3f10 f i Interface.obj
 0001:000c2f70       ??1ClanInfo@@QAE@XZ        004c3f70 f i Interface.obj
 0001:000c2fd0       ?CopyMaskedBitmap64@@YAXPAEHHPAX@Z 004c3fd0 f   Masks.obj
 0001:000c302f       ?CopyMaskedTransparentBitmap_8@@YAXPAEHHPAX@Z 004c402f f   Masks.obj
 0001:000c30a5       ?CopyMaskedTransparentBitmap_4@@YAXPAEHHPAX@Z 004c40a5 f   Masks.obj
 0001:000c311b       ?CopyMaskedTransparentBitmap_12@@YAXPAEHHPAX@Z 004c411b f   Masks.obj
 0001:000c3191       ?CopyMaskedBitmap@@YAXPAEHHH@Z 004c4191 f   Masks.obj
 0001:000c321e       ?FastCreateMaskedBitmap64_1@@YAXPAEHH@Z 004c421e f   Masks.obj
 0001:000c332a       ?FastCreateMaskedBitmap64_2@@YAXPAEHH@Z 004c432a f   Masks.obj
 0001:000c34b3       ?GetBmOfst@@YAHH@Z         004c44b3 f   Masks.obj
 0001:000c34cc       ?PrepareIntersection1@@YAXHHHHHHHHPAUxRLCTable@@PAE@Z 004c44cc f   Masks.obj
 0001:000c390e       ?PrepareIntersection2@@YAXHHHHHHHHPAUxRLCTable@@PAE@Z 004c490e f   Masks.obj
 0001:000c3d61       ?ClearIntersectionBuffer@@YAXXZ 004c4d61 f   Masks.obj
 0001:000c3dbb       ?ShowIntersectionBuffer@@YAXXZ 004c4dbb f   Masks.obj
 0001:000c3e20       ?GetMData@@YAXPAX0HHHH@Z   004c4e20 f   Mouse_X.obj
 0001:000c3f46       ?CmpMData@@YA_NPAX0HHHH@Z  004c4f46 f   Mouse_X.obj
 0001:000c4074       ?RestoreMData@@YAXPAX00HHHH@Z 004c5074 f   Mouse_X.obj
 0001:000c41a2       ?LoadPointer@@YAXPBD@Z     004c51a2 f   Mouse_X.obj
 0001:000c4205       ?SetMPtr@@YAXHHH@Z         004c5205 f   Mouse_X.obj
 0001:000c4273       ?RedrawOffScreenMouse@@YAXXZ 004c5273 f   Mouse_X.obj
 0001:000c43aa       ?RedrawScreenMouse@@YAXXZ  004c53aa f   Mouse_X.obj
 0001:000c44df       ?OnMouseMoveRedraw@@YAXXZ  004c54df f   Mouse_X.obj
 0001:000c4526       ?PostRedrawMouse@@YAXXZ    004c5526 f   Mouse_X.obj
 0001:000c4700       ??0MouseZone@@QAE@XZ       004c5700 f   MousZone.obj
 0001:000c4744       ?InitZones@@YAXXZ          004c5744 f   MousZone.obj
 0001:000c4776       ?CreateRZone@@YAHHHHHP6AXH@Z0HPAD@Z 004c5776 f   MousZone.obj
 0001:000c4886       ?CreateRZone@@YAHHHHHP6AXH@Z0HPAD1@Z 004c5886 f   MousZone.obj
 0001:000c4a05       ?CreateZone@@YAHHHHHP6AXH@ZHPAD@Z 004c5a05 f   MousZone.obj
 0001:000c4b0c       ?AssignMovePro@@YAXHP6AXH@ZH@Z 004c5b0c f   MousZone.obj
 0001:000c4b35       ?AssignKeys@@YAXHEE@Z      004c5b35 f   MousZone.obj
 0001:000c4b5e       ?CreateZone@@YAHHHHHP6AXH@ZHPAD1@Z 004c5b5e f   MousZone.obj
 0001:000c4cde       ?CheckZonePressed@@YAHH@Z  004c5cde f   MousZone.obj
 0001:000c4f56       ?CheckSpritePressed@@YA_NH@Z 004c5f56 f   MousZone.obj
 0001:000c50e2       ?ControlZones@@YAXXZ       004c60e2 f   MousZone.obj
 0001:000c534f       ?DeleteZone@@YAXH@Z        004c634f f   MousZone.obj
 0001:000c5370       ??_H@YGXPAXIHP6EX0@Z@Z     004c6370 f i MousZone.obj
 0001:000c53a0       ?PlayAVI@@YAXPAUHWND__@@PBDH@Z 004c63a0 f   Video.obj
 0001:000c5525       ?PlayMIDI@@YAXPAUHWND__@@PBD@Z 004c6525 f   Video.obj
 0001:000c5589       ?CloseAVI@@YAXPAUHWND__@@@Z 004c6589 f   Video.obj
 0001:000c55b3       ?CloseMIDI@@YAXPAUHWND__@@@Z 004c65b3 f   Video.obj
 0001:000c55cd       ?GetCDROMWithFile@@YAPADPAD@Z 004c65cd f   Video.obj
 0001:000c5740       ?CheckSVSC@@YAXH@Z         004c6740 f   VirtScr.obj
 0001:000c5750       ??0VirtualScreen@@QAE@XZ   004c6750 f   VirtScr.obj
 0001:000c5760       ?SetSize@VirtualScreen@@QAEXHH@Z 004c6760 f   VirtScr.obj
 0001:000c5a00       ??1VirtualScreen@@QAE@XZ   004c6a00 f   VirtScr.obj
 0001:000c5a50       ?SetVSParameters@VirtualScreen@@QAEXHH@Z 004c6a50 f   VirtScr.obj
 0001:000c5a70       ?CopyVSPart@VirtualScreen@@QAEXHHHHHH@Z 004c6a70 f   VirtScr.obj
 0001:000c5b00       ?CopyVSPartMMX@VirtualScreen@@QAEXHHHHHH@Z 004c6b00 f   VirtScr.obj
 0001:000c5bb0       ?CopyVSToScreen@VirtualScreen@@QAEXXZ 004c6bb0 f   VirtScr.obj
 0001:000c5ce0       ?RenderVSPart@VirtualScreen@@QAEXHHHHHH@Z 004c6ce0 f   VirtScr.obj
 0001:000c5e10       ?RefreshSurface@VirtualScreen@@QAEXXZ 004c6e10 f   VirtScr.obj
 0001:000c5fa0       ?DTX@@YAEEH@Z              004c6fa0 f   VirtScr.obj
 0001:000c5fd0       ?ShowLimitedSector@VirtualScreen@@QAEHH_NHHHH@Z 004c6fd0 f   VirtScr.obj
 0001:000c6cb0       ?RenderVerticalSet@VirtualScreen@@QAEXHHHHH@Z 004c7cb0 f   VirtScr.obj
 0001:000c7030       ?CreateTrianglesMapping@VirtualScreen@@QAEXXZ 004c8030 f   VirtScr.obj
 0001:000c7080       ?GetMaxTriY@@YAHHH_N@Z     004c8080 f   VirtScr.obj
 0001:000c73d0       ?CreateVerticalTrianglesMapping@VirtualScreen@@QAEXH@Z 004c83d0 f   VirtScr.obj
 0001:000c7670       ?CheckVLINE@VirtualScreen@@QAEXH@Z 004c8670 f   VirtScr.obj
 0001:000c76a0       ?Execute@VirtualScreen@@QAEXXZ 004c86a0 f   VirtScr.obj
 0001:000c76b0       ?Zero@VirtualScreen@@QAEXXZ 004c86b0 f   VirtScr.obj
 0001:000c76e0       ?GetHiDiff@@YAHHH@Z        004c86e0 f   VirtScr.obj
 0001:000c7760       ?GetBigHiDiff@@YAHHH@Z     004c8760 f   VirtScr.obj
 0001:000c77e0       ?SetLockPoint@@YAXHH@Z     004c87e0 f   VirtScr.obj
 0001:000c7830       ?RefreshTriangle@VirtualScreen@@QAEXH@Z 004c8830 f   VirtScr.obj
 0001:000c7940       ?GetNP@@YAHHH@Z            004c8940 f   VirtScr.obj
 0001:000c79f0       ?PrepareLandLocking@@YAXXZ 004c89f0 f   VirtScr.obj
 0001:000c7b40       ?RefreshScreen@VirtualScreen@@QAEXXZ 004c8b40 f   VirtScr.obj
 0001:000c7bc0       ?ShowVerticalGrids@VirtualScreen@@QAEXHHHHH@Z 004c8bc0 f   VirtScr.obj
 0001:000c7bd0       ?Sequrity@VirtualScreen@@QAEXXZ 004c8bd0 f   VirtScr.obj
 0001:000c7be0       ?AddTHMap@@YAHH@Z          004c8be0 f   VirtScr.obj
 0001:000c7c20       ?ClearZBuffer@@YAXXZ       004c8c20 f   ZBuffer.obj
 0001:000c7c50       ?AddHiPoint@@YAXFFPAVOneObject@@GGHH@Z 004c8c50 f   ZBuffer.obj
 0001:000c7ce0       ?AddSuperLoPoint@@YAXFFPAVOneObject@@GGHH@Z 004c8ce0 f   ZBuffer.obj
 0001:000c7d70       ?AddLoPoint@@YAXFFPAVOneObject@@GGHH@Z 004c8d70 f   ZBuffer.obj
 0001:000c7e00       ?AddPoint@@YAXFFFFPAVOneObject@@GGHH@Z 004c8e00 f   ZBuffer.obj
 0001:000c7ef0       ?AddOptPoint@@YAXEFFFFPAVOneObject@@GGH@Z 004c8ef0 f   ZBuffer.obj
 0001:000c7ff0       ?AddOptLine@@YAXFFFFFFPAVOneObject@@GGH@Z 004c8ff0 f   ZBuffer.obj
 0001:000c80a0       ?AddLine@@YAXFFFFFFPAVOneObject@@GGHH@Z 004c90a0 f   ZBuffer.obj
 0001:000c8370       ?SortWords@@YAXHPAGPAF@Z   004c9370 f   ZBuffer.obj
 0001:000c83d0       ?SortZBuffer@@YAXXZ        004c93d0 f   ZBuffer.obj
 0001:000c8410       ?PtLine@@YAXHHHHE@Z        004c9410 f   ZBuffer.obj
 0001:000c84d0       ?ShowZElement@@YAXPAVZElement@@@Z 004c94d0 f   ZBuffer.obj
 0001:000c89e0       ?ShowZBuffer@@YAXXZ        004c99e0 f   ZBuffer.obj
 0001:000c8ee0       ?CheckAbility@OneObject@@QAEHG@Z 004c9ee0 f   Build.obj
 0001:000c8fd1       ?MoveAwayShipInCell@@YAXHHH@Z 004c9fd1 f   Build.obj
 0001:000c92db       ?MoveAwayShip@@YAXHH@Z     004ca2db f   Build.obj
 0001:000c93a8       ?Produce@OneObject@@QAEXG@Z 004ca3a8 f   Build.obj
 0001:000c93c7       ?Produce@OneObject@@QAEXGG@Z 004ca3c7 f   Build.obj
 0001:000c97ea       ?ShowProducedShip@@YAXPAVOneObject@@HH@Z 004ca7ea f   Build.obj
 0001:000c9988       ?CheckBuildingInCell@@YAGHHHH@Z 004ca988 f   Build.obj
 0001:000c9ab1       ?ProduceObjLink@@YAXPAVOneObject@@@Z 004caab1 f   Build.obj
 0001:000ca7c1       ?GotoFinePositionLink@@YAXPAVOneObject@@@Z 004cb7c1 f   Build.obj
 0001:000ca8ae       ?GotoFinePosition@@YAXPAVOneObject@@@Z 004cb8ae f   Build.obj
 0001:000ca932       ?TakeUnitFromCash@@YAXEG@Z 004cb932 f   Build.obj
 0001:000caa21       ?AddUnitsToCash@@YA_NEG@Z  004cba21 f   Build.obj
 0001:000cac00       ?ClearUniCash@@YAXXZ       004cbc00 f   Build.obj
 0001:000cac0f       ?GetCorrectMoney@@YAXEPAH@Z 004cbc0f f   Build.obj
 0001:000caceb       ?GetAmount@@YAHG@Z         004cbceb f   Build.obj
 0001:000cae78       ?GetProgress@@YAHGPAH@Z    004cbe78 f   Build.obj
 0001:000cb029       ?RegisterEventHandler@@YAHP6AXPAX@ZH0@Z 004cc029 f   Ddex1.obj
 0001:000cb0b1       ?CloseEventHandler@@YAXH@Z 004cc0b1 f   Ddex1.obj
 0001:000cb10f       ?ClearModes@@YAXXZ         004cc10f f   Ddex1.obj
 0001:000cb173       ?TimerProc@@YAXXZ          004cc173 f   Ddex1.obj
 0001:000cb239       ?OpenMemReport@@YAXXZ      004cc239 f   Ddex1.obj
 0001:000cb23e       ?CloseMemReport@@YAXXZ     004cc23e f   Ddex1.obj
 0001:000cb24d       ?MemReport@@YAXPAD@Z       004cc24d f   Ddex1.obj
 0001:000cb252       ?GETFREE@@YA_KPAD@Z        004cc252 f   Ddex1.obj
 0001:000cb35a       ?Loading@@YA_NXZ           004cc35a f   Ddex1.obj
 0001:000cb854       ?SaveScreenShot@@YAXPAD@Z  004cc854 f   Ddex1.obj
 0001:000cbb36       ?SaveBMP8@@YAXPADHHPAE@Z   004ccb36 f   Ddex1.obj
 0001:000cbe74       ?SaveMiniScreenShot@@YAXPAD@Z 004cce74 f   Ddex1.obj
 0001:000cc189       ?SaveScreen@@YAXXZ         004cd189 f   Ddex1.obj
 0001:000cc251       ?MiniRenderAllMap@@YAXXZ   004cd251 f   Ddex1.obj
 0001:000cc3e6       ?RenderAllMap@@YAXXZ       004cd3e6 f   Ddex1.obj
 0001:000cc59a       ?MyMCINotify@@YAXPAUHWND__@@IJ@Z 004cd59a f   Ddex1.obj
 0001:000cc5b7       ?AddMouseEvent@@YAXHH_N0@Z 004cd5b7 f   Ddex1.obj
 0001:000cc72b       ?ReadMEvent@@YAPAUMouseStack@@XZ 004cd72b f   Ddex1.obj
 0001:000cc7d9       ?ClearMStack@@YAXXZ        004cd7d9 f   Ddex1.obj
 0001:000cc827       ?UnPress@@YAXXZ            004cd827 f   Ddex1.obj
 0001:000cc91b       ?AddKey@@YAXEE@Z           004cd91b f   Ddex1.obj
 0001:000cca08       ?ReadKey@@YAHXZ            004cda08 f   Ddex1.obj
 0001:000ccac8       ?ClearKeyStack@@YAXXZ      004cdac8 f   Ddex1.obj
 0001:000ccad7       ?WindowProc@@YGJPAUHWND__@@IIJ@Z 004cdad7 f   Ddex1.obj
 0001:000cd46a       ?GameKeyCheck@@YAXXZ       004ce46a f   Ddex1.obj
 0001:000cdf77       ?InitFonts@@YAXXZ          004cef77 f   Ddex1.obj
 0001:000ce1e7       ?EditorKeyCheck@@YAXXZ     004cf1e7 f   Ddex1.obj
 0001:000cef36       ?InitScreen@@YA_NXZ        004cff36 f   Ddex1.obj
 0001:000cf032       ?InitRGBScreen@@YA_NXZ     004d0032 f   Ddex1.obj
 0001:000cf0ea       ?InitRGB640Screen@@YA_NXZ  004d00ea f   Ddex1.obj
 0001:000cf161       _CDGINIT_EnCD@0            004d0161 f   Ddex1.obj
 0001:000cf16d       ?GetCossacksDir@@YAHPAD@Z  004d016d f   Ddex1.obj
 0001:000cf205       ?PlayVideo@@YAXXZ          004d0205 f   Ddex1.obj
 0001:000cf4cd       ?CheckTops@@YAXXZ          004d04cd f   Ddex1.obj
 0001:000cf4e4       ?CHECKIT@@YAXXZ            004d04e4 f   Ddex1.obj
 0001:000cf4e9       ?PreDrawGameProcess@@YAXXZ 004d04e9 f   Ddex1.obj
 0001:000cff33       ?MakePause@@YAXH@Z         004d0f33 f   Ddex1.obj
 0001:000cff55       ?WaitToTime@@YAXH@Z        004d0f55 f   Ddex1.obj
 0001:000d000d       ?PostDrawGameProcess@@YAXXZ 004d100d f   Ddex1.obj
 0001:000d0538       ?PrepareToEdit@@YAXXZ      004d1538 f   Ddex1.obj
 0001:000d0645       ?PrepareToGame@@YAXXZ      004d1645 f   Ddex1.obj
 0001:000d0807       ?ShowIntro@@YAXXZ          004d1807 f   Ddex1.obj
 0001:000d080c       ?AText@@YAXPAD@Z           004d180c f   Ddex1.obj
 0001:000d0811       ?AFile@@YAXPAD@Z           004d1811 f   Ddex1.obj
 0001:000d0822       ?SaveAllFiles@@YAXXZ       004d1822 f   Ddex1.obj
 0001:000d0b33       ?EraseRND@@YAXXZ           004d1b33 f   Ddex1.obj
 0001:000d0e8f       ?CreateReg@@YAXXZ          004d1e8f f   Ddex1.obj
 0001:000d0f87       ?RunSMD@@YA_NXZ            004d1f87 f   Ddex1.obj
 0001:000d11c0       ?NRFUNC@@YAXXZ             004d21c0 f   Ddex1.obj
 0001:000d11cf       ?Rept@@YAXPADZZ            004d21cf f   Ddex1.obj
 0001:000d11d4       ?ReportIt@@YAXPADZZ        004d21d4 f   Ddex1.obj
 0001:000d1293       _WinMain@16                004d2293 f   Ddex1.obj
 0001:000d1e00       ??_GCDirSound@@QAEPAXI@Z   004d2e00 f i Ddex1.obj
 0001:000d1e30       ??_GTimeReq@@QAEPAXI@Z     004d2e30 f i Ddex1.obj
 0001:000d1e60       ?EERR@@YAXXZ               004d2e60 f   Economy.obj
 0001:000d1e72       ?Load@Economy@@QAEXXZ      004d2e72 f   Economy.obj
 0001:000d24b3       ?ReloadECO@@YAXXZ          004d34b3 f   Economy.obj
 0001:000d24c2       ?InitInterface@Economy@@QAEXXZ 004d34c2 f   Economy.obj
 0001:000d2501       ?SelectBUY@@YAXH@Z         004d3501 f   Economy.obj
 0001:000d250e       ?SelectBUYBUTTON@@YAXH@Z   004d350e f   Economy.obj
 0001:000d2554       ?SelectSELL@@YAXH@Z        004d3554 f   Economy.obj
 0001:000d2561       ?SelectCLEAR@@YAXH@Z       004d3561 f   Economy.obj
 0001:000d257a       ?SelectCHANGE@@YAXH@Z      004d357a f   Economy.obj
 0001:000d25c9       ?CreateInterface@Economy@@QAEXPAVIconSet@@@Z 004d35c9 f   Economy.obj
 0001:000d2b4d       ?EconomyInterface@@YAXPAVIconSet@@@Z 004d3b4d f   Economy.obj
 0001:000d2b60       ?EconomePostDraw@@YAXXZ    004d3b60 f   Economy.obj
 0001:000d2c52       ?ClearEconomy@@YAXXZ       004d3c52 f   Economy.obj
 0001:000d2c61       ?LoadEconomy@@YAXXZ        004d3c61 f   Economy.obj
 0001:000d2c70       ?PerformOperation@Economy@@QAEXEEEH@Z 004d3c70 f   Economy.obj
 0001:000d2f29       ?GetTorgResultEx@@YAHEEH@Z 004d3f29 f   Economy.obj
 0001:000d2f80       ?PerformTorg@@YAXEEEH@Z    004d3f80 f   Economy.obj
 0001:000d2f9f       ?Process@Economy@@QAEXXZ   004d3f9f f   Economy.obj
 0001:000d30e1       ?ProcessEconomy@@YAXXZ     004d40e1 f   Economy.obj
 0001:000d30f0       ?GetFinPower@@YAHPAH@Z     004d40f0 f   Economy.obj
 0001:000d3146       ?GetCurrentCost@@YAHEEH@Z  004d4146 f   Economy.obj
 0001:000d3172       ?GetNominalCost@@YAHEEH@Z  004d4172 f   Economy.obj
 0001:000d319e       ?GetEconomyData@@YAHPAPAE@Z 004d419e f   Economy.obj
 0001:000d31c0       ?GetRand@@YAHH@Z           004d41c0 f   Fractal.obj
 0001:000d31d4       ?GetfMap@@YAHHH@Z          004d41d4 f   Fractal.obj
 0001:000d3203       ?SetfMap@@YAXHHH@Z         004d4203 f   Fractal.obj
 0001:000d323f       ?Generate@@YAXH@Z          004d423f f   Fractal.obj
 0001:000d36c2       ?GetFractalVal@@YAHHH@Z    004d46c2 f   Fractal.obj
 0001:000d37e4       ?CreateFractal@@YAXXZ      004d47e4 f   Fractal.obj
 0001:000d3800       ??0SortClass@@QAE@XZ       004d4800 f   Groups.obj
 0001:000d3835       ??1SortClass@@QAE@XZ       004d4835 f   Groups.obj
 0001:000d3866       ?Sort@SortClass@@QAEXXZ    004d4866 f   Groups.obj
 0001:000d38eb       ?CheckSize@SortClass@@QAEXH@Z 004d48eb f   Groups.obj
 0001:000d3970       ?CreateByX@SortClass@@QAEGPAGH_N@Z 004d4970 f   Groups.obj
 0001:000d3b2c       ?CreateByY@SortClass@@QAEGPAGH_N@Z 004d4b2c f   Groups.obj
 0001:000d3ce8       ?CreateByR@SortClass@@QAEGPAGH_NHH@Z 004d4ce8 f   Groups.obj
 0001:000d3edc       ?CreateByLine@SortClass@@QAEGPAGHHH@Z 004d4edc f   Groups.obj
 0001:000d3fe2       ?CreateByLineForShips@SortClass@@QAEGPAGHHH@Z 004d4fe2 f   Groups.obj
 0001:000d412c       ?CopyToDst@SortClass@@QAEXPAG0@Z 004d512c f   Groups.obj
 0001:000d41a4       ?Copy@SortClass@@QAEXPAG@Z 004d51a4 f   Groups.obj
 0001:000d420b       ?SortUnitsByR@@YAGPAG0HHH@Z 004d520b f   Groups.obj
 0001:000d4257       ??0PositionOrder@@QAE@XZ   004d5257 f   Groups.obj
 0001:000d4296       ??1PositionOrder@@QAE@XZ   004d5296 f   Groups.obj
 0001:000d4308       ?CheckSize@PositionOrder@@QAEXH@Z 004d5308 f   Groups.obj
 0001:000d43bd       ?Create@PositionOrder@@QAEXPAGH@Z 004d53bd f   Groups.obj
 0001:000d43ef       ?CreateLinearPositions@PositionOrder@@QAEGHHPAGHHH@Z 004d53ef f   Groups.obj
 0001:000d451d       ?CreateRotatedPositions@PositionOrder@@QAEGHHPAGHHH@Z 004d551d f   Groups.obj
 0001:000d48f4       ?CreateRotatedPositions2@PositionOrder@@QAEGHHPAGHHH@Z 004d58f4 f   Groups.obj
 0001:000d4ccd       ?CreatePositions@PositionOrder@@QAEGHHPAGH@Z 004d5ccd f   Groups.obj
 0001:000d4ffc       ?SendToPosition@PositionOrder@@QAEXEE@Z 004d5ffc f   Groups.obj
 0001:000d52d7       ?Patrol@PositionOrder@@QAEXXZ 004d62d7 f   Groups.obj
 0001:000d53f9       ?SetStandState@@YAXPAVBrigade@@E@Z 004d63f9 f   Groups.obj
 0001:000d5578       ?GroupSendSelectedTo@@YAXEHHEE@Z 004d6578 f   Groups.obj
 0001:000d5f66       ?GroupAttackSelectedBrigadesTo@@YAXEHHEE@Z 004d6f66 f   Groups.obj
 0001:000d6544       ?GroupPatrolSelected@@YAXEHHE@Z 004d7544 f   Groups.obj
 0001:000d675a       ?CreateOrdPos@PositionOrder@@QAEGHHEHPAGPAVOrderDescription@@@Z 004d775a f   Groups.obj
 0001:000d6a15       ?CreateSimpleOrdPos@PositionOrder@@QAEGHHEHPAGPAVOrderDescription@@@Z 004d7a15 f   Groups.obj
 0001:000d6c40       ??0SaveBuf@@QAE@XZ         004d7c40 f   LoadSave.obj
 0001:000d6c75       ?Init@SaveBuf@@QAEXXZ      004d7c75 f   LoadSave.obj
 0001:000d6ca7       ?Clear@SaveBuf@@QAEXXZ     004d7ca7 f   LoadSave.obj
 0001:000d6cd0       ??1SaveBuf@@QAE@XZ         004d7cd0 f   LoadSave.obj
 0001:000d6ce3       ?SaveToFile@SaveBuf@@QAEXPAX@Z 004d7ce3 f   LoadSave.obj
 0001:000d6d19       ?LoadFromFile@SaveBuf@@QAEXPAX@Z 004d7d19 f   LoadSave.obj
 0001:000d6d81       ?xBlockWrite@@YAXPAVSaveBuf@@PAXH@Z 004d7d81 f   LoadSave.obj
 0001:000d6df0       ?xBlockRead@@YAXPAVSaveBuf@@PAXH@Z 004d7df0 f   LoadSave.obj
 0001:000d6e28       ?SAVMES@@YAXPAVSaveBuf@@PAD@Z 004d7e28 f   LoadSave.obj
 0001:000d6ec3       ?SAVMES1@@YAXPAVSaveBuf@@PADH@Z 004d7ec3 f   LoadSave.obj
 0001:000d6f77       ?LOADMES@@YAXPAVSaveBuf@@@Z 004d7f77 f   LoadSave.obj
 0001:000d6f93       ?LOutErr@@YAXPBD@Z         004d7f93 f   LoadSave.obj
 0001:000d6fd5       ?SOutErr@@YAXPBD@Z         004d7fd5 f   LoadSave.obj
 0001:000d6ff2       ?SavePackArray@@YAXPAVSaveBuf@@GPAGH@Z 004d7ff2 f   LoadSave.obj
 0001:000d70c4       ?LoadPackArray@@YAXPAVSaveBuf@@PAGH@Z 004d80c4 f   LoadSave.obj
 0001:000d7178       ?CloseNation@Nation@@QAEXXZ 004d8178 f   LoadSave.obj
 0001:000d77ef       ?CloseGO@GeneralObject@@QAEXXZ 004d87ef f   LoadSave.obj
 0001:000d7852       ?CloseObject@OneObject@@QAEXXZ 004d8852 f   LoadSave.obj
 0001:000d791b       ?UnLoading@@YAXXZ          004d891b f   LoadSave.obj
 0001:000d8243       ?SaveRLE1@@YAXPAVSaveBuf@@PAXH@Z 004d9243 f   LoadSave.obj
 0001:000d859b       ?LoadRLE1@@YAXPAVSaveBuf@@PAX@Z 004d959b f   LoadSave.obj
 0001:000d86b0       ?SaveMap@@YAXPAVSaveBuf@@@Z 004d96b0 f   LoadSave.obj
 0001:000d87e2       ?LoadMap@@YAXPAVSaveBuf@@@Z 004d97e2 f   LoadSave.obj
 0001:000d892a       ?SaveNations@@YAXPAVSaveBuf@@@Z 004d992a f   LoadSave.obj
 0001:000d9101       ?LoadNations@@YA_NPAVSaveBuf@@@Z 004da101 f   LoadSave.obj
 0001:000d9a7e       ?GetOrderKind@@YAHP6AXPAVOneObject@@@Z@Z 004daa7e f   LoadSave.obj
 0001:000d9ab7       ?GetOrderRef@@YAP6AXPAVOneObject@@@ZH@Z 004daab7 f   LoadSave.obj
 0001:000d9ad6       ?SaveObjects@@YAXPAVSaveBuf@@@Z 004daad6 f   LoadSave.obj
 0001:000d9df8       ?LoadObjects@@YAXPAVSaveBuf@@@Z 004dadf8 f   LoadSave.obj
 0001:000da17d       ?SaveSelection@@YAXPAVSaveBuf@@@Z 004db17d f   LoadSave.obj
 0001:000da239       ?LoadSelection@@YAXPAVSaveBuf@@@Z 004db239 f   LoadSave.obj
 0001:000da3b6       ?SaveWalls@@YAXPAVSaveBuf@@@Z 004db3b6 f   LoadSave.obj
 0001:000da5db       ?LoadWalls@@YAXPAVSaveBuf@@@Z 004db5db f   LoadSave.obj
 0001:000daaab       ?SaveAnmObj@@YAXPAVSaveBuf@@@Z 004dbaab f   LoadSave.obj
 0001:000dabb0       ?LoadAnmObj@@YAXPAVSaveBuf@@@Z 004dbbb0 f   LoadSave.obj
 0001:000dad05       ?SaveSprites@@YAXPAVSaveBuf@@@Z 004dbd05 f   LoadSave.obj
 0001:000dafa2       ?LoadSprites@@YAXPAVSaveBuf@@@Z 004dbfa2 f   LoadSave.obj
 0001:000db2fc       ?Save3DBars@@YAXPAVSaveBuf@@@Z 004dc2fc f   LoadSave.obj
 0001:000db4b3       ?Load3DBars@@YAXPAVSaveBuf@@@Z 004dc4b3 f   LoadSave.obj
 0001:000db62f       ?LS_SaveTopology@@YAXPAVSaveBuf@@@Z 004dc62f f   LoadSave.obj
 0001:000db8c7       ?LS_LoadTopology@@YAXPAVSaveBuf@@@Z 004dc8c7 f   LoadSave.obj
 0001:000dbc98       ?SaveAI@@YAXPAVSaveBuf@@@Z 004dcc98 f   LoadSave.obj
 0001:000dcd9d       ?LoadAI@@YAXPAVSaveBuf@@@Z 004ddd9d f   LoadSave.obj
 0001:000de365       ?SaveActiveObjects@@YAXPAVSaveBuf@@@Z 004df365 f   LoadSave.obj
 0001:000de4d3       ?LoadActiveObjects@@YAXPAVSaveBuf@@@Z 004df4d3 f   LoadSave.obj
 0001:000de6e2       ?SaveMission@@YAXPAVSaveBuf@@@Z 004df6e2 f   LoadSave.obj
 0001:000de8f7       ?LoadMission@@YAXPAVSaveBuf@@@Z 004df8f7 f   LoadSave.obj
 0001:000dec2a       ?SaveCost@@YAXPAVSaveBuf@@@Z 004dfc2a f   LoadSave.obj
 0001:000dec68       ?LoadCost@@YAXPAVSaveBuf@@@Z 004dfc68 f   LoadSave.obj
 0001:000dece5       ?CreateMaskForSaveFile@@YAXPAD@Z 004dfce5 f   LoadSave.obj
 0001:000ded2f       ?GetMapSUMM@@YAHPAD@Z      004dfd2f f   LoadSave.obj
 0001:000ded71       ?PreSaveGame@@YAXPAVSaveBuf@@PADH@Z 004dfd71 f   LoadSave.obj
 0001:000df1e4       ?SaveGame@@YAXPAD0H@Z      004e01e4 f   LoadSave.obj
 0001:000df2e8       ?SFLB_PreLoadGame@@YAXPAVSaveBuf@@_N@Z 004e02e8 f   LoadSave.obj
 0001:000df8b7       ?SFLB_LoadGame@@YAXPAD_N@Z 004e08b7 f   LoadSave.obj
 0001:000df935       ?GetV_fmap@@YAGHH@Z        004e0935 f   LoadSave.obj
 0001:000df999       ?ClearArrays@@YAXXZ        004e0999 f   LoadSave.obj
 0001:000dff14       ?SetFractalTexture@@YAXXZ  004e0f14 f   LoadSave.obj
 0001:000e0010       ?SetupArrays@@YAXXZ        004e1010 f   LoadSave.obj
 0001:000e0f99       ?FreeArrays@@YAXXZ         004e1f99 f   LoadSave.obj
 0001:000e12b6       ?Allocate@MotionField@@QAEXXZ 004e22b6 f   LoadSave.obj
 0001:000e133f       ?FreeAlloc@MotionField@@QAEXXZ 004e233f f   LoadSave.obj
 0001:000e1358       ?ALLOCATE@EnemyInfo@@QAEXXZ 004e2358 f   LoadSave.obj
 0001:000e14fa       ?FREE@EnemyInfo@@QAEXXZ    004e24fa f   LoadSave.obj
 0001:000e1540       ?GetNMSL@@YAGH@Z           004e2540 f   LoadSave.obj
 0001:000e158a       ?SetNMSL@@YAXHG@Z          004e258a f   LoadSave.obj
 0001:000e1637       ?CleanNMSL@@YAXXZ          004e2637 f   LoadSave.obj
 0001:000e16b0       ?SelectNextGridMode@@YAXXZ 004e26b0 f   mapa.obj
 0001:000e1799       ?DelInGrid@@YAXHH@Z        004e2799 f   mapa.obj
 0001:000e1878       ?DrawGrids@@YAXXZ          004e2878 f   mapa.obj
 0001:000e20ed       ?ConvY@@YAHH@Z             004e30ed f   mapa.obj
 0001:000e2101       ?RedSquare@@YAXHH@Z        004e3101 f   mapa.obj
 0001:000e21af       ?RedMiniSquare@@YAXHH@Z    004e31af f   mapa.obj
 0001:000e225d       ?RedBar@@YAXHHHH@Z         004e325d f   mapa.obj
 0001:000e22b5       ?RedMiniBar@@YAXHHHH@Z     004e32b5 f   mapa.obj
 0001:000e230d       ?WhiteSquare@@YAXHH@Z      004e330d f   mapa.obj
 0001:000e23bb       ?WhiteMiniSquare@@YAXHH@Z  004e33bb f   mapa.obj
 0001:000e2469       ?WhiteBar@@YAXHHHH@Z       004e3469 f   mapa.obj
 0001:000e24c1       ?WhiteMiniBar@@YAXHHHH@Z   004e34c1 f   mapa.obj
 0001:000e2519       ?OutErr@@YAXPBD@Z          004e3519 f   mapa.obj
 0001:000e255b       ?ManualFogCheck@@YA_NHHH@Z 004e355b f   mapa.obj
 0001:000e2562       ?GetAsmBlock@@YAPADXZ      004e3562 f   mapa.obj
 0001:000e2639       ?FreeAsmBlock@@YAXPAD@Z    004e3639 f   mapa.obj
 0001:000e2662       ?InitAsmBuf@@YAXXZ         004e3662 f   mapa.obj
 0001:000e26f0       ?GetOrdSum@@YAXXZ          004e36f0 f   mapa.obj
 0001:000e272a       ?ChkOrdSum@@YAXXZ          004e372a f   mapa.obj
 0001:000e2732       ?GetOrdBlock@@YAPAUOrder1@@XZ 004e3732 f   mapa.obj
 0001:000e28b3       ?FreeOrdBlock@OneObject@@QAEXPAUOrder1@@@Z 004e38b3 f   mapa.obj
 0001:000e28ce       ?InitOrdBuf@@YAXXZ         004e38ce f   mapa.obj
 0001:000e2952       ?LoadLock@@YAXXZ           004e3952 f   mapa.obj
 0001:000e29a7       ?LoadFon@@YAXXZ            004e39a7 f   mapa.obj
 0001:000e29ac       ?ShowFon@@YAXXZ            004e39ac f   mapa.obj
 0001:000e29b1       ?ShowFon1@@YAXXZ           004e39b1 f   mapa.obj
 0001:000e29b6       ?ShowBorder@@YAXXZ         004e39b6 f   mapa.obj
 0001:000e29bb       ?mul3@@YAHH@Z              004e39bb f   mapa.obj
 0001:000e29c6       ?LoadTiles@@YAXXZ          004e39c6 f   mapa.obj
 0001:000e29cb       ?CreateUnit@@YAXPAVNation@@EEG@Z 004e39cb f   mapa.obj
 0001:000e29d0       ?PostLoadExtendedMap@@YAXPAD@Z 004e39d0 f   mapa.obj
 0001:000e2b9f       ?RestoreLock@@YAXHHHH@Z    004e3b9f f   mapa.obj
 0001:000e2ba4       ?NewMap@@YAXHH@Z           004e3ba4 f   mapa.obj
 0001:000e2cc4       ?GetRect@@YAXPAVOneObject@@PAH111@Z 004e3cc4 f   mapa.obj
 0001:000e2d7d       ?DrawMarker@@YAXPAVOneObject@@@Z 004e3d7d f   mapa.obj
 0001:000e2ff2       ?DrawImMarker@@YAXPAVOneObject@@@Z 004e3ff2 f   mapa.obj
 0001:000e3256       ?DrawHealth@@YAXPAVOneObject@@@Z 004e4256 f   mapa.obj
 0001:000e35fe       ?DrawColorMarker@@YAXPAVOneObject@@E@Z 004e45fe f   mapa.obj
 0001:000e3852       ?DrawMiniMarker@@YAXPAVOneObject@@@Z 004e4852 f   mapa.obj
 0001:000e3cde       ?ShowHealth@@YAXPAVOneObject@@@Z 004e4cde f   mapa.obj
 0001:000e3d17       ?ShowMiniHealth@@YAXPAVOneObject@@@Z 004e4d17 f   mapa.obj
 0001:000e3d50       ?ShowFog@@YAXPAVOneObject@@@Z 004e4d50 f   mapa.obj
 0001:000e3d55       ?ShowProperty@@YAXPAVOneObject@@@Z 004e4d55 f   mapa.obj
 0001:000e3d5a       ?CreateSumm@@YAXXZ         004e4d5a f   mapa.obj
 0001:000e3f01       ?GetBestPlayer@@YAHXZ      004e4f01 f   mapa.obj
 0001:000e405d       ?SortPlayers@@YAHPAEPAH@Z  004e505d f   mapa.obj
 0001:000e4319       ?ShowVictInFormat@@YAXPADHE@Z 004e5319 f   mapa.obj
 0001:000e4379       ?ShowCentralText0@@YAXPAD@Z 004e5379 f   mapa.obj
 0001:000e45e2       ?ShowWinner@@YAXXZ         004e55e2 f   mapa.obj
 0001:000e5013       ?DottedLine@@YAXHHHHE@Z    004e6013 f   mapa.obj
 0001:000e50b6       ?AddRecordAndRatingSymbols@@YAXPAD@Z 004e60b6 f   mapa.obj
 0001:000e5156       ?GFieldShow@@YAXXZ         004e6156 f   mapa.obj
 0001:000e7e3d       ?GMiniShow@@YAXXZ          004e8e3d f   mapa.obj
 0001:000e8b61       ?SetEgoFlag@@YAX_N@Z       004e9b61 f   mapa.obj
 0001:000e8b66       ?DoSelSound@@YAXH@Z        004e9b66 f   mapa.obj
 0001:000e8b8d       ?MFix@@YAXXZ               004e9b8d f   mapa.obj
 0001:000e8bc6       ?GetRealCoords@@YA_NHHPAH0@Z 004e9bc6 f   mapa.obj
 0001:000e8cc4       ?CHKS@@YAXXZ               004e9cc4 f   mapa.obj
 0001:000e8d21       ?ProcessScreen@@YAXXZ      004e9d21 f   mapa.obj
 0001:000e8d61       ?GlobalHandleMouse@@YAXXZ  004e9d61 f   mapa.obj
 0001:000e91fa       ?SetExComm@@YAXPADH@Z      004ea1fa f   mapa.obj
 0001:000e9224       ?HandleMouse@@YAXHH@Z      004ea224 f   mapa.obj
 0001:000ec1d6       ?EDGETEST@@YAXXZ           004ed1d6 f   mapa.obj
 0001:000ec727       ?doooo@@YAXXZ              004ed727 f   mapa.obj
 0001:000ec752       ?SetMiniMode@@YAXXZ        004ed752 f   mapa.obj
 0001:000ec83d       ?ClearMiniMode@@YAXXZ      004ed83d f   mapa.obj
 0001:000ec8b6       ?GoToCurSelPosition@@YAXXZ 004ed8b6 f   mapa.obj
 0001:000ecccd       ?ClearMINIMENU@@YAXXZ      004edccd f   mapa.obj
 0001:000eccdc       ?InfClick@@YA_NPAVSimpleDialog@@@Z 004edcdc f   mapa.obj
 0001:000ecd16       ?MiniChoose@@YA_NPAVSimpleDialog@@@Z 004edd16 f   mapa.obj
 0001:000ecfd5       ?CreateMiniMenu@@YAXXZ     004edfd5 f   mapa.obj
 0001:000ed83f       ?REPLAY@@YAXXZ             004ee83f f   mapa.obj
 0001:000eda2e       ?ProcessMiniMenu@@YAXXZ    004eea2e f   mapa.obj
 0001:000edcf8       ??0UnitInfo@@QAE@XZ        004eecf8 f   mapa.obj
 0001:000edd58       ?Close@UnitInfo@@QAEXXZ    004eed58 f   mapa.obj
 0001:000ede4b       ?AddHint@UnitInfo@@QAEPADPAD@Z 004eee4b f   mapa.obj
 0001:000edf2b       ??1UnitInfo@@QAE@XZ        004eef2b f   mapa.obj
 0001:000edf3e       ?AddSD@UnitInfo@@QAEXPAVSimpleDialog@@H@Z 004eef3e f   mapa.obj
 0001:000edfe2       ?Create@UnitInfo@@QAEXH@Z  004eefe2 f   mapa.obj
 0001:000eef46       ?UI_PageSelect@@YA_NPAVSimpleDialog@@@Z 004eff46 f   mapa.obj
 0001:000eef66       ?UI_NextBTN@@YA_NPAVSimpleDialog@@@Z 004eff66 f   mapa.obj
 0001:000ef0de       ?UI_PrevBTN@@YA_NPAVSimpleDialog@@@Z 004f00de f   mapa.obj
 0001:000ef22e       ?ClearUINF@@YAXXZ          004f022e f   mapa.obj
 0001:000ef23d       ?GetCostString@@YAXPAGPAD@Z 004f023d f   mapa.obj
 0001:000ef2f9       ?GetCostString@@YAXPAHPAD@Z 004f02f9 f   mapa.obj
 0001:000ef3ab       ?CreateUNITINF_UNIT@@YAHH@Z 004f03ab f   mapa.obj
 0001:000f2247       ?ShowUnitInfo@@YAXXZ       004f3247 f   mapa.obj
 0001:000f2346       ?GetSquare@@YAXXZ          004f3346 f   mapa.obj
 0001:000f248b       ?ShowNationalForces@@YAHHH_N@Z 004f348b f   mapa.obj
 0001:000f2af3       ??0NamesHash@@QAE@XZ       004f3af3 f   mapa.obj
 0001:000f2b1e       ??1NamesHash@@QAE@XZ       004f3b1e f   mapa.obj
 0001:000f2b54       ?AddString@NamesHash@@QAEXPADHH@Z 004f3b54 f   mapa.obj
 0001:000f2c72       ?ShowUnitsList@@YAHHHHPAG@Z 004f3c72 f   mapa.obj
 0001:000f321e       ?ShowDeathList@@YAHHH_N@Z  004f421e f   mapa.obj
 0001:000f328e       ?ShowEconomy@@YAHHH_N@Z    004f428e f   mapa.obj
 0001:000f361d       ?ShowDoxod@@YAHHH_N@Z      004f461d f   mapa.obj
 0001:000f4a7f       ?ProcessInformation@@YAX_N@Z 004f5a7f f   mapa.obj
 0001:000f4e60       ?CreateINFORM@@YAXXZ       004f5e60 f   mapa.obj
 0001:000f50ab       ?ON_GAME_MCLICK@@YA_NPAVSimpleDialog@@@Z 004f60ab f   mapa.obj
 0001:000f50be       ?CreateRESSEND@@YAXXZ      004f60be f   mapa.obj
 0001:000f5566       ?ProcessRESSEND@@YAXXZ     004f6566 f   mapa.obj
 0001:000f5750       ?GetUnitHeight@@YAHHH@Z    004f6750 f   MapSprites.obj
 0001:000f5760       ?FindNearestBase@OneObject@@QAEGXZ 004f6760 f   MapSprites.obj
 0001:000f5830       ?DeleteAllSprites@@YAXXZ   004f6830 f   MapSprites.obj
 0001:000f58e0       ?RegisterSprite@@YAXH@Z    004f68e0 f   MapSprites.obj
 0001:000f5a10       ?UnregisterSprite@@YAXH@Z  004f6a10 f   MapSprites.obj
 0001:000f5ad0       ?InitSprites@@YAXXZ        004f6ad0 f   MapSprites.obj
 0001:000f5b40       ?GetMinDist@@YAHHH@Z       004f6b40 f   MapSprites.obj
 0001:000f5bb0       ?CheckDist@@YA_NHHG@Z      004f6bb0 f   MapSprites.obj
 0001:000f5c40       ?CheckTPointInside@@YA_NHHPAUT_Curve@@@Z 004f6c40 f   MapSprites.obj
 0001:000f5d20       ?AddLockPts@@YA_NHHHPAF0E@Z 004f6d20 f   MapSprites.obj
 0001:000f5e70       ?addSprite@@YAXHHPAVSprGroup@@G@Z 004f6e70 f   MapSprites.obj
 0001:000f60e0       ?addSpriteAnyway@@YAXHHPAVSprGroup@@G@Z 004f70e0 f   MapSprites.obj
 0001:000f62b0       ?GetHeight@@YAHHH@Z        004f72b0 f   MapSprites.obj
 0001:000f64b0       ?GetPrecHeight@@YAHHH@Z    004f74b0 f   MapSprites.obj
 0001:000f6680       ?OldPreShowSprites@@YAXXZ  004f7680 f   MapSprites.obj
 0001:000f68e0       ?HideFlags@@YAXXZ          004f78e0 f   MapSprites.obj
 0001:000f6950       ?PreShowSprites@@YAXXZ     004f7950 f   MapSprites.obj
 0001:000f6d00       ?addScrSprite@@YAXHHPAVSprGroup@@G@Z 004f7d00 f   MapSprites.obj
 0001:000f6d40       ?addTree@@YAXHH@Z          004f7d40 f   MapSprites.obj
 0001:000f6db0       ?addLogTree@@YAXHH@Z       004f7db0 f   MapSprites.obj
 0001:000f6e50       ?addTrees@@YAXHHH@Z        004f7e50 f   MapSprites.obj
 0001:000f6f10       ?delTrees@@YAXHHH@Z        004f7f10 f   MapSprites.obj
 0001:000f6fb0       ?FindPlaceForPeasant@@YA_NPAH0HHH@Z 004f7fb0 f   MapSprites.obj
 0001:000f7340       ?InitCSR@CellSearch@@QAEXXZ 004f8340 f   MapSprites.obj
 0001:000f7360       ?FindResInCell@@YAXPAVCellSearch@@HH@Z 004f8360 f   MapSprites.obj
 0001:000f7520       ?CheckSpritesInCell@@YA_NHHHH@Z 004f8520 f   MapSprites.obj
 0001:000f75f0       ?CheckSpritesInArea@@YA_NHHH@Z 004f85f0 f   MapSprites.obj
 0001:000f7690       ?CheckSpritesInCellNew@@YA_NHHHH@Z 004f8690 f   MapSprites.obj
 0001:000f7770       ?EraseSprite@@YAXH@Z       004f8770 f   MapSprites.obj
 0001:000f7810       ?EraseTreesInPoint@@YAXHH@Z 004f8810 f   MapSprites.obj
 0001:000f78d0       ?CheckSpritesInAreaNew@@YA_NHHH_N@Z 004f88d0 f   MapSprites.obj
 0001:000f79e0       ?CheckSpritesInCellForMine@@YAHHPAH0HE@Z 004f89e0 f   MapSprites.obj
 0001:000f7b10       ?CheckMinePosition@@YAHPAVNewMonster@@PAH1H@Z 004f8b10 f   MapSprites.obj
 0001:000f7bf0       ?GetCell@@YAHHH@Z          004f8bf0 f   MapSprites.obj
 0001:000f7c10       ?FindResourceObject@@YAHPAH0HHE@Z 004f8c10 f   MapSprites.obj
 0001:000f80f0       ?FindLimResInCell@@YAXPAVCellSearch@@HGH@Z 004f90f0 f   MapSprites.obj
 0001:000f82d0       ?FindLimResourceObject@@YAHPAH0HHEG@Z 004f92d0 f   MapSprites.obj
 0001:000f8750       ?PerformWork@OneSprite@@QAEHG@Z 004f9750 f   MapSprites.obj
 0001:000f87f0       ?PerformIntWork@OneSprite@@QAEHH@Z 004f97f0 f   MapSprites.obj
 0001:000f8850       ?PerformDamage@OneSprite@@QAEXH@Z 004f9850 f   MapSprites.obj
 0001:000f88a0       ?TakeResource@OneObject@@QAEHHHEHE@Z 004f98a0 f   MapSprites.obj
 0001:000f8a10       ?TakeResLink@@YAXPAVOneObject@@@Z 004f9a10 f   MapSprites.obj
 0001:000f93b0       ?FindAnyResInCell@@YAEHHHPAHE@Z 004fa3b0 f   MapSprites.obj
 0001:000f9490       ?DetermineResource@@YAEHH@Z 004fa490 f   MapSprites.obj
 0001:000f95d0       ?ProcessSprites@@YAXXZ     004fa5d0 f   MapSprites.obj
 0001:000f9610       ?CheckLocking@OneObject@@QAE_NHH@Z 004fa610 f   MapSprites.obj
 0001:000f9640       ?SetDestCoor@OneObject@@QAEXHH@Z 004fa640 f   MapSprites.obj
 0001:000f9670       ?EscapeLocking@OneObject@@QAEXXZ 004fa670 f   MapSprites.obj
 0001:000f9850       ??0TimeReq@@QAE@XZ         004fa850 f   MapSprites.obj
 0001:000f9860       ??1TimeReq@@QAE@XZ         004fa860 f   MapSprites.obj
 0001:000f98a0       ?Add@TimeReq@@QAEXHE@Z     004fa8a0 f   MapSprites.obj
 0001:000f9920       ?Del@TimeReq@@QAEXHE@Z     004fa920 f   MapSprites.obj
 0001:000f99a0       ?Handle@TimeReq@@QAEXXZ    004fa9a0 f   MapSprites.obj
 0001:000f9aa0       ?CalculateMotion2@@YA_NPAVOneObject@@@Z 004faaa0 f   Motion.obj
 0001:000fa014       ?TryDir@@YA_NPAVOneObject@@D@Z 004fb014 f   Motion.obj
 0001:000fa10f       ?CalculateMotion2Limited@@YA_NPAVOneObject@@@Z 004fb10f f   Motion.obj
 0001:000fa3c2       ?CalculateMotion2LimitedOld@@YA_NPAVOneObject@@@Z 004fb3c2 f   Motion.obj
 0001:000fa659       ?MoveObject@@YAXPAVOneObject@@@Z 004fb659 f   Motion.obj
 0001:000fa6d6       ?StopObject@@YAXPAVOneObject@@@Z 004fb6d6 f   Motion.obj
 0001:000fa710       ?EraseLodkiInCell@@YAXHHHHH@Z 004fb710 f   Motion.obj
 0001:000fa85c       ?GetShipDangerInCell@@YAHHHH@Z 004fb85c f   Motion.obj
 0001:000faa03       ?GetShipDanger@@YAHHH@Z    004fba03 f   Motion.obj
 0001:000fab14       ?GetShipDanger1@@YAHHH@Z   004fbb14 f   Motion.obj
 0001:000fac25       ?EraseLodki@@YAXHHHH@Z     004fbc25 f   Motion.obj
 0001:000fad2a       ?RemoveShipsInCell@@YA_NHHHHPAVOneObject@@@Z 004fbd2a f   Motion.obj
 0001:000faf7a       ?TryToPushShipsBy@@YAXPAVOneObject@@HHH@Z 004fbf7a f   Motion.obj
 0001:000fb191       ?PerformMotion2@@YAXPAVOneObject@@@Z 004fc191 f   Motion.obj
 0001:000fb710       ?InitEBuf@@YAXXZ           004fc710 f   Multi.obj
 0001:000fb71f       ?CmdCreateSelection@@YAXEEEEE@Z 004fc71f f   Multi.obj
 0001:000fb788       ?CmdSendToXY@@YAXEHHF@Z    004fc788 f   Multi.obj
 0001:000fb877       ?CmdAttackObj@@YAXEGF@Z    004fc877 f   Multi.obj
 0001:000fb8f6       ?CmdCreateTerrain@@YAXEEEG@Z 004fc8f6 f   Multi.obj
 0001:000fb95f       ?CmdCreateBuilding@@YAXEHHG@Z 004fc95f f   Multi.obj
 0001:000fb9ea       ?CmdProduceObj@@YAXEG@Z    004fc9ea f   Multi.obj
 0001:000fbaf2       ?CmdMemSelection@@YAXEE@Z  004fcaf2 f   Multi.obj
 0001:000fbb2f       ?CmdRememSelection@@YAXEE@Z 004fcb2f f   Multi.obj
 0001:000fbbe3       ?CmdBuildObj@@YAXEG@Z      004fcbe3 f   Multi.obj
 0001:000fbc52       ?CmdAddBuildObj@@YAXEG@Z   004fcc52 f   Multi.obj
 0001:000fbc9c       ?CmdBuildWall@@YAXEFF@Z    004fcc9c f   Multi.obj
 0001:000fbca1       ?CmdRepairWall@@YAXEFF@Z   004fcca1 f   Multi.obj
 0001:000fbd21       ?CmdDamageWall@@YAXEG@Z    004fcd21 f   Multi.obj
 0001:000fbd60       ?CmdTakeRes@@YAXEHHE@Z     004fcd60 f   Multi.obj
 0001:000fbdb9       ?CmdPerformUpgrade@@YAXEG@Z 004fcdb9 f   Multi.obj
 0001:000fbdf8       ?CmdGetOil@@YAXEG@Z        004fcdf8 f   Multi.obj
 0001:000fbe37       ?CmdCreateKindSelection@@YAXEEEEEE@Z 004fce37 f   Multi.obj
 0001:000fbeaf       ?CmdCreateTypeSelection@@YAXEEEEEG@Z 004fceaf f   Multi.obj
 0001:000fbf29       ?FnKind@@YA_NPAVOneObject@@H@Z 004fcf29 f   Multi.obj
 0001:000fbf3e       ?FnType@@YA_NPAVOneObject@@H@Z 004fcf3e f   Multi.obj
 0001:000fbf54       ?CmdCreateGoodSelection@@YAXEGGGG@Z 004fcf54 f   Multi.obj
 0001:000fbfa0       ?CmdCreateGoodKindSelection@@YAXEGGGGE@Z 004fcfa0 f   Multi.obj
 0001:000fbff7       ?CmdCreateGoodTypeSelection@@YAXEGGGGG@Z 004fcff7 f   Multi.obj
 0001:000fc04e       ?CmdSetDst@@YAXEHH@Z       004fd04e f   Multi.obj
 0001:000fc09a       ?CmdSendToPoint@@YAXEEE@Z  004fd09a f   Multi.obj
 0001:000fc0e6       ?CmdAttackToXY@@YAXEEE@Z   004fd0e6 f   Multi.obj
 0001:000fc132       ?CmdStop@@YAXE@Z           004fd132 f   Multi.obj
 0001:000fc15f       ?CmdStandGround@@YAXE@Z    004fd15f f   Multi.obj
 0001:000fc18c       ?CmdPatrol@@YAXEHH@Z       004fd18c f   Multi.obj
 0001:000fc1d8       ?CmdRepair@@YAXEEE@Z       004fd1d8 f   Multi.obj
 0001:000fc224       ?CmdGetResource@@YAXEEE@Z  004fd224 f   Multi.obj
 0001:000fc270       ?CmdSendToTransport@@YAXEG@Z 004fd270 f   Multi.obj
 0001:000fc2af       ?CmdUnload@@YAXEEE@Z       004fd2af f   Multi.obj
 0001:000fc2fb       ?CmdDie@@YAXE@Z            004fd2fb f   Multi.obj
 0001:000fc328       ?CmdContinueAttackPoint@@YAXEEE@Z 004fd328 f   Multi.obj
 0001:000fc374       ?CmdContinueAttackWall@@YAXEEE@Z 004fd374 f   Multi.obj
 0001:000fc3c0       ?CmdSitDown@@YAXE@Z        004fd3c0 f   Multi.obj
 0001:000fc3ed       ?CmdNucAtt@@YAXEEE@Z       004fd3ed f   Multi.obj
 0001:000fc439       ?CmdUnProduceObj@@YAXEG@Z  004fd439 f   Multi.obj
 0001:000fc478       ?CmdSetRprState@@YAXEE@Z   004fd478 f   Multi.obj
 0001:000fc4b5       ?CmdSaveNetworkGame@@YAXEHPAD@Z 004fd4b5 f   Multi.obj
 0001:000fc532       ?CmdLoadNetworkGame@@YAXEHPAD@Z 004fd532 f   Multi.obj
 0001:000fc5b1       ?CmdChooseSelType@@YAXEG@Z 004fd5b1 f   Multi.obj
 0001:000fc602       ?CmdChooseUnSelType@@YAXEG@Z 004fd602 f   Multi.obj
 0001:000fc653       ?CmdCreateNewTerr@@YAXEHHG@Z 004fd653 f   Multi.obj
 0001:000fc6bc       ?CmdGoToMine@@YAXEG@Z      004fd6bc f   Multi.obj
 0001:000fc6fb       ?CmdLeaveMine@@YAXEG@Z     004fd6fb f   Multi.obj
 0001:000fc73a       ?CmdGoToTransport@@YAXEG@Z 004fd73a f   Multi.obj
 0001:000fc779       ?CmdCreateGates@@YAXE@Z    004fd779 f   Multi.obj
 0001:000fc7a6       ?CmdOpenGates@@YAXE@Z      004fd7a6 f   Multi.obj
 0001:000fc7d3       ?CmdCloseGates@@YAXE@Z     004fd7d3 f   Multi.obj
 0001:000fc800       ?CmdCreateWall@@YAXE@Z     004fd800 f   Multi.obj
 0001:000fc843       ?CmdSelectBuildings@@YAXE@Z 004fd843 f   Multi.obj
 0001:000fc87f       ?CmdChooseSelBrig@@YAXEG@Z 004fd87f f   Multi.obj
 0001:000fc8d0       ?CmdChooseUnSelBrig@@YAXEG@Z 004fd8d0 f   Multi.obj
 0001:000fc921       ?CmdErseBrigs@@YAXE@Z      004fd921 f   Multi.obj
 0001:000fc94e       ?CmdMakeStandGround@@YAXE@Z 004fd94e f   Multi.obj
 0001:000fc97b       ?CmdCancelStandGround@@YAXE@Z 004fd97b f   Multi.obj
 0001:000fc9a8       ?CmdCrBig@@YAXEH@Z         004fd9a8 f   Multi.obj
 0001:000fcaae       ?CmdSelBrig@@YAXEEG@Z      004fdaae f   Multi.obj
 0001:000fcb15       ?CmdTorg@@YAXEEEH@Z        004fdb15 f   Multi.obj
 0001:000fcb6e       ?CmdFieldBar@@YAXEG@Z      004fdb6e f   Multi.obj
 0001:000fcbad       ?CmdSetSrVictim@@YAXEE@Z   004fdbad f   Multi.obj
 0001:000fcbea       ?CmdStopUpgrade@@YAXE@Z    004fdbea f   Multi.obj
 0001:000fcc17       ?CmdUnloadAll@@YAXE@Z      004fdc17 f   Multi.obj
 0001:000fcc44       ?CmdMakeReformation@@YAXEGE@Z 004fdc44 f   Multi.obj
 0001:000fcc92       ?CmdSelectIdlePeasants@@YAXE@Z 004fdc92 f   Multi.obj
 0001:000fccce       ?CmdSelectIdleMines@@YAXE@Z 004fdcce f   Multi.obj
 0001:000fcd0a       ?CmdChangeSpeed@@YAXXZ     004fdd0a f   Multi.obj
 0001:000fcd37       ?CmdSetSpeed@@YAXE@Z       004fdd37 f   Multi.obj
 0001:000fcd64       ?CmdPause@@YAXE@Z          004fdd64 f   Multi.obj
 0001:000fcd91       ?CmdFreeSelected@@YAXE@Z   004fdd91 f   Multi.obj
 0001:000fcdbe       ?CmdSelAllUnits@@YAXE@Z    004fddbe f   Multi.obj
 0001:000fcdfc       ?CmdSelAllShips@@YAXE@Z    004fddfc f   Multi.obj
 0001:000fce3a       ?CmdEndGame@@YAXEEE@Z      004fde3a f   Multi.obj
 0001:000fcf47       ?CmdMoney@@YAXE@Z          004fdf47 f   Multi.obj
 0001:000fcf74       ?DoCmdAddMoney@@YAXEH@Z    004fdf74 f   Multi.obj
 0001:000fd047       ?DoCmdMoney@@YAXE@Z        004fe047 f   Multi.obj
 0001:000fd0a4       ?CmdGiveMoney@@YAXEEEH@Z   004fe0a4 f   Multi.obj
 0001:000fd105       ?CmdSetStartTime@@YAXPAH@Z 004fe105 f   Multi.obj
 0001:000fd15a       ?CmdSetMaxPingTime@@YAXH@Z 004fe15a f   Multi.obj
 0001:000fd1a4       ?CmdDoItSlow@@YAXG@Z       004fe1a4 f   Multi.obj
 0001:000fd20b       ?CmdDoItSlowEx@@YAXGPAEPAK@Z 004fe20b f   Multi.obj
 0001:000fd272       ?CmdFillFormation@@YAXEG@Z 004fe272 f   Multi.obj
 0001:000fd2b1       ?CmdOfferVoting@@YAXXZ     004fe2b1 f   Multi.obj
 0001:000fd2ef       ?CmdVote@@YAXE@Z           004fe2ef f   Multi.obj
 0001:000fd34d       ?CmdEndPT@@YAXXZ           004fe34d f   Multi.obj
 0001:000fd37a       ?ComEndPT@@YAXXZ           004fe37a f   Multi.obj
 0001:000fd389       ?CmdSetGuardState@@YAXEG@Z 004fe389 f   Multi.obj
 0001:000fd3c8       ?CmdAttackGround@@YAXEHH@Z 004fe3c8 f   Multi.obj
 0001:000fd414       ?CmdDoGroup@@YAXE@Z        004fe414 f   Multi.obj
 0001:000fd441       ?CmdUnGroup@@YAXE@Z        004fe441 f   Multi.obj
 0001:000fd46e       ?CmdChangeNatRefTBL@@YAXPAE@Z 004fe46e f   Multi.obj
 0001:000fd4c3       ?CmdChangePeaceTimeStage@@YAXH@Z 004fe4c3 f   Multi.obj
 0001:000fd4fc       ?CmdAddMoney@@YAXEK@Z      004fe4fc f   Multi.obj
 0001:000fd539       ?ComChangePeaceTimeStage@@YAXH@Z 004fe539 f   Multi.obj
 0001:000fd546       ?ChangeNatRefTBL@@YAXEPAE@Z 004fe546 f   Multi.obj
 0001:000fd790       ?ComAttackGround@@YAXEHH@Z 004fe790 f   Multi.obj
 0001:000fd89f       ?ComSetGuardState@@YAXEG@Z 004fe89f f   Multi.obj
 0001:000fd9a2       ?ComOfferVoting@@YAXK@Z    004fe9a2 f   Multi.obj
 0001:000fda8f       ?ComDoVote@@YAXKE@Z        004fea8f f   Multi.obj
 0001:000fdaeb       ?ProcessVotingKeys@@YAXXZ  004feaeb f   Multi.obj
 0001:000fdcea       ?ProcessVotingView@@YAXXZ  004fecea f   Multi.obj
 0001:000fe123       ?DoFillFormation@@YAXEG@Z  004ff123 f   Multi.obj
 0001:000fe16f       ?DoItSlow@@YAXG@Z          004ff16f f   Multi.obj
 0001:000fe1c8       ?DoTimeStep@@YAXH@Z        004ff1c8 f   Multi.obj
 0001:000fe1e1       ?SETPING@@YAXEH@Z          004ff1e1 f   Multi.obj
 0001:000fe224       ?__DoStartTime@@YAXPAH@Z   004ff224 f   Multi.obj
 0001:000fe2a3       ?DoCmdGiveMoney@@YAXEEEH@Z 004ff2a3 f   Multi.obj
 0001:000fe39a       ?__EndGame@@YAXEE@Z        004ff39a f   Multi.obj
 0001:000fe85a       ?__DoVictory@@YAXE@Z       004ff85a f   Multi.obj
 0001:000fe85f       ?ChangePauseState@@YAXXZ   004ff85f f   Multi.obj
 0001:000fe875       ?InitSelection@@YAXXZ      004ff875 f   Multi.obj
 0001:000fe8b1       ?PtInside@@YA_NHHHHHH@Z    004ff8b1 f   Multi.obj
 0001:000fe8dc       ?ObjInside@@YA_NPAVOneObject@@HHHH@Z 004ff8dc f   Multi.obj
 0001:000fea87       ?CorrectShipsSelection@@YAXE@Z 004ffa87 f   Multi.obj
 0001:000fef41       ?ImCorrectShipsSelection@@YAXE@Z 004fff41 f   Multi.obj
 0001:000ff3ff       ?CreateGoodSelection@@YAXEGGGGP6A_NPAVOneObject@@H@ZH_N@Z 005003ff f   Multi.obj
 0001:000ff9b5       ?SearchGate@@YAPAVOneObject@@HH@Z 005009b5 f   Multi.obj
 0001:000ffa82       ?RefreshSelected@@YAXE@Z   00500a82 f   Multi.obj
 0001:000fffc9       ?SendSelectedToXY@@YAXEHHFEE@Z 00500fc9 f   Multi.obj
 0001:0010001c       ?SendSelectedToXY@@YAXEHHFE@Z 0050101c f   Multi.obj
 0001:00100043       ?ChGSpeed@@YAXXZ           00501043 f   Multi.obj
 0001:00100085       ?SetGSpeed@@YAXE@Z         00501085 f   Multi.obj
 0001:001000b8       ?AttackToXY@@YAXEEE@Z      005010b8 f   Multi.obj
 0001:001002b5       ?AttackSelected@@YAXEGEF@Z 005012b5 f   Multi.obj
 0001:001003f0       ?BuildWithSelected@@YAXEGE@Z 005013f0 f   Multi.obj
 0001:0010076e       ?CreateTerrainMons@@YAXEEEG@Z 0050176e f   Multi.obj
 0001:001007aa       ?CreateNewTerrMons@@YAXEHHG@Z 005017aa f   Multi.obj
 0001:00100893       ?CreateNewTerrMons2@@YAHEHHG@Z 00501893 f   Multi.obj
 0001:00100933       ?CreateBuilding@@YAXEHHGE@Z 00501933 f   Multi.obj
 0001:0010098d       ?ProduceObject@@YAXEG@Z    0050198d f   Multi.obj
 0001:00100b82       ?ProduceObjects@@YAXEEG@Z  00501b82 f   Multi.obj
 0001:00100bce       ?UnProduce@@YAXPAVOneObject@@G@Z 00501bce f   Multi.obj
 0001:00100dea       ?UnProduceObject@@YAXEG@Z  00501dea f   Multi.obj
 0001:00100f29       ?MemSelection@@YAXEE@Z     00501f29 f   Multi.obj
 0001:00100f66       ?RememSelection@@YAXEE@Z   00501f66 f   Multi.obj
 0001:00100fde       ?CreateWall@@YAHEPAE@Z     00501fde f   Multi.obj
 0001:00101063       ?RepairWall@@YAXEFFE@Z     00502063 f   Multi.obj
 0001:00101239       ?DamageWall@@YAXEG@Z       00502239 f   Multi.obj
 0001:0010123e       ?PerformUpgr@@YAXEG@Z      0050223e f   Multi.obj
 0001:001012f3       ?SetDestination@@YAXEHH@Z  005022f3 f   Multi.obj
 0001:001013aa       ?Stopp@@YAXE@Z             005023aa f   Multi.obj
 0001:00101464       ?StandGround@@YAXE@Z       00502464 f   Multi.obj
 0001:0010151e       ?PatrolGroup@@YAXEHHE@Z    0050251e f   Multi.obj
 0001:0010154d       ?GroupAttackPoint@@YAXEEEE@Z 0050254d f   Multi.obj
 0001:00101618       ?SendToTransp@@YAXEG@Z     00502618 f   Multi.obj
 0001:00101648       ?UnloadTransp@@YAXEEE@Z    00502648 f   Multi.obj
 0001:001016f4       ?DieSelected@@YAXE@Z       005026f4 f   Multi.obj
 0001:001017b2       ?EraseSelected@@YAXE@Z     005027b2 f   Multi.obj
 0001:001018e4       ?ContinueAttPoint@@YAXEEE@Z 005028e4 f   Multi.obj
 0001:0010199d       ?ContinueAttWall@@YAXEEE@Z 0050299d f   Multi.obj
 0001:00101a56       ?SitDown@@YAXE@Z           00502a56 f   Multi.obj
 0001:00101b02       ?UseNuclo@@YAXEEE@Z        00502b02 f   Multi.obj
 0001:00101b78       ?SetRepairState@@YAXEE@Z   00502b78 f   Multi.obj
 0001:00101b7d       ?ClearSFNames@@YAXXZ       00502b7d f   Multi.obj
 0001:00101bd4       ?InstallSFName@@YAXPAU_WIN32_FIND_DATAA@@@Z 00502bd4 f   Multi.obj
 0001:00101db0       ?CreateSFList@@YAXXZ       00502db0 f   Multi.obj
 0001:00101e20       ?FindPLName@@YAHPAD@Z      00502e20 f   Multi.obj
 0001:00101e6a       ?FindSFName@@YAHPAD@Z      00502e6a f   Multi.obj
 0001:00101eb4       ?FindBestSFName@@YAXPAD0@Z 00502eb4 f   Multi.obj
 0001:00101f7d       ?SaveNetworkGame@@YAXEHPAD@Z 00502f7d f   Multi.obj
 0001:001020a2       ?FindNetGame@@YAHHPAD@Z    005030a2 f   Multi.obj
 0001:001020fb       ?LoadNetworkGame@@YAXEHPAD@Z 005030fb f   Multi.obj
 0001:00102510       ?ChooseUnSelectType@@YAXEG@Z 00503510 f   Multi.obj
 0001:0010266b       ?ImChooseUnSelectType@@YAXEG@Z 0050366b f   Multi.obj
 0001:001027c6       ?UnSelectBrig@@YAXEG@Z     005037c6 f   Multi.obj
 0001:00102909       ?ImUnSelectBrig@@YAXEG@Z   00503909 f   Multi.obj
 0001:00102a4c       ?ChooseSelectType@@YAXEG@Z 00503a4c f   Multi.obj
 0001:00102bb3       ?ImChooseSelectType@@YAXEG@Z 00503bb3 f   Multi.obj
 0001:00102d1a       ?SelectBrig@@YAXEG@Z       00503d1a f   Multi.obj
 0001:00102e5d       ?ImSelectBrig@@YAXEG@Z     00503e5d f   Multi.obj
 0001:00102fa0       ?EraseBrigs@@YAXE@Z        00503fa0 f   Multi.obj
 0001:001030e0       ?CheckWorker@@YA_NPAVOneObject@@@Z 005040e0 f   Multi.obj
 0001:00103116       ?GoToMineWithSelected@@YAXEG@Z 00504116 f   Multi.obj
 0001:0010340c       ?LeaveMineWithSelected@@YAXEG@Z 0050440c f   Multi.obj
 0001:001034c3       ?GoToTransportWithSelected@@YAXEG@Z 005044c3 f   Multi.obj
 0001:00103750       ?TakeRes@@YAXEHHE@Z        00504750 f   Multi.obj
 0001:001038c9       ?CreateGatesFromSelected@@YAXE@Z 005048c9 f   Multi.obj
 0001:00103979       ?SelectAllBuildings@@YAXE@Z 00504979 f   Multi.obj
 0001:00103caa       ?ImSelectAllBuildings@@YAXE@Z 00504caa f   Multi.obj
 0001:00103ff9       ?SelectAllUnits@@YAXE_N@Z  00504ff9 f   Multi.obj
 0001:00104465       ?SelectAllShips@@YAXE_N@Z  00505465 f   Multi.obj
 0001:00104853       ?ComOpenGates@@YAXE@Z      00505853 f   Multi.obj
 0001:001048f8       ?ComCloseGates@@YAXE@Z     005058f8 f   Multi.obj
 0001:0010499d       ?MakeStandGround@@YAXPAVBrigade@@@Z 0050599d f   Multi.obj
 0001:00104aca       ?MakeStandGroundTemp@@YAXPAVBrigade@@@Z 00505aca f   Multi.obj
 0001:00104c41       ?SetAttState@@YAXPAVBrigade@@_N@Z 00505c41 f   Multi.obj
 0001:00104d5f       ?SetSearchVictim@@YAXEE@Z  00505d5f f   Multi.obj
 0001:00104f3d       ?MakeStandGround@@YAXE@Z   00505f3d f   Multi.obj
 0001:0010504d       ?CancelStandGround@@YAXPAVBrigade@@@Z 0050604d f   Multi.obj
 0001:00105183       ?CancelStandGroundAnyway@@YAXPAVBrigade@@@Z 00506183 f   Multi.obj
 0001:0010529a       ?CreateFieldsBar@@YAXEG@Z  0050629a f   Multi.obj
 0001:00105362       ?CancelStandGround@@YAXE@Z 00506362 f   Multi.obj
 0001:00105469       ?SelBrigade@@YAXEEH@Z      00506469 f   Multi.obj
 0001:0010584e       ?ImSelBrigade@@YAXEEH@Z    0050684e f   Multi.obj
 0001:00105c33       ?CreateBrOrder@@YAXEH@Z    00506c33 f   Multi.obj
 0001:00105e96       ?StopUpg@@YAXE@Z           00506e96 f   Multi.obj
 0001:001060c9       ?SelUnloadAll@@YAXE@Z      005070c9 f   Multi.obj
 0001:001061bf       ?MakeReformation@@YAXEGE@Z 005071bf f   Multi.obj
 0001:001065ee       ?SelectIdlePeasants@@YAXE@Z 005075ee f   Multi.obj
 0001:00106800       ?ImSelectIdlePeasants@@YAXE@Z 00507800 f   Multi.obj
 0001:00106a10       ?SelectIdleMines@@YAXE@Z   00507a10 f   Multi.obj
 0001:00106ca0       ?ImSelectIdleMines@@YAXE@Z 00507ca0 f   Multi.obj
 0001:00106f45       ?FreeSelected@@YAXE@Z      00507f45 f   Multi.obj
 0001:001070d0       ?ExecuteBuffer@@YAXXZ      005080d0 f   Multi.obj
 0001:0010862f       ?CmdSelBrigade@@YAXEG@Z    0050962f f   Multi.obj
 0001:0010866e       ?_implSelBrigade@@YAHPAE@Z 0050966e f   Multi.obj
 0001:00108870       ?CmdUnSelBrigade@@YAXEG@Z  00509870 f   Multi.obj
 0001:001088af       ?_implUnSelBrigade@@YAHPAE@Z 005098af f   Multi.obj
 0001:00108ada       ?CmdUnSelUnitsSet@@YAXEPAGH@Z 00509ada f   Multi.obj
 0001:00108b3b       ?_implUnSelUnitsSet@@YAHPAE@Z 00509b3b f   Multi.obj
 0001:00108db9       ?PACKSET@@YAHPAGHPAE_N@Z   00509db9 f   Multi.obj
 0001:00109310       ?UNPACKSET@@YAHPAEPAHPAG_N@Z 0050a310 f   Multi.obj
 0001:00109aea       ?CmdSelUnitsSet@@YAXEPAGH@Z 0050aaea f   Multi.obj
 0001:00109c5d       ?_implSelUnitsSet@@YAHPAE@Z 0050ac5d f   Multi.obj
 0001:00109efc       ?ImReSmartProcessor@@YAXE@Z 0050aefc f   Multi.obj
 0001:00109f01       ?SmartSelectionCorrector@@YAXEPAG0H@Z 0050af01 f   Multi.obj
 0001:0010a3d6       ?UNPACKSET_OLD@@YAHPAEPAHPAG_N@Z 0050b3d6 f   Multi.obj
 0001:0010a9b2       ?_implSelUnitsSet_OLD@@YAHPAE@Z 0050b9b2 f   Multi.obj
 0001:0010ac51       ?DipCheck@@YAXXZ           0050bc51 f   Multi.obj
 0001:0010add0       ?MCHK@@YAXXZ               0050bdd0 f   Nation.obj
 0001:0010add5       ?InitStack@@YAXXZ          0050bdd5 f   Nation.obj
 0001:0010adec       ?CheckAttAbility@@YA_NPAVOneObject@@G@Z 0050bdec f   Nation.obj
 0001:0010aed1       ?PopCmd@@YAGXZ             0050bed1 f   Nation.obj
 0001:0010aeda       ?PushCmd@@YAXG@Z           0050beda f   Nation.obj
 0001:0010aedf       ?CarryOutOrder@@YAXXZ      0050bedf f   Nation.obj
 0001:0010aee4       ?Err@@YAXPBD@Z             0050bee4 f   Nation.obj
 0001:0010af01       ?LoadMonsters@@YAXXZ       0050bf01 f   Nation.obj
 0001:0010af06       ?CreateNation@Nation@@QAEXEE@Z 0050bf06 f   Nation.obj
 0001:0010af6b       ?FreeAsmLink@OneObject@@QAEXXZ 0050bf6b f   Nation.obj
 0001:0010af76       ?AddAsk@@YAXGEEDD@Z        0050bf76 f   Nation.obj
 0001:0010afd4       ?PrepareProcessing@@YAXXZ  0050bfd4 f   Nation.obj
 0001:0010b02c       ?cmSetDirD@@YAXE@Z         0050c02c f   Nation.obj
 0001:0010b071       ?COrd@@YAXPAUOrder1@@@Z    0050c071 f   Nation.obj
 0001:0010b0ad       ?AttackPoint@OneObject@@QAEXEEEH@Z 0050c0ad f   Nation.obj
 0001:0010b1d9       ?AttackPointLink@@YAXPAVOneObject@@@Z 0050c1d9 f   Nation.obj
 0001:0010b1de       ?ContinueAttackPoint@OneObject@@QAEXEEH@Z 0050c1de f   Nation.obj
 0001:0010b2eb       ?ContinueAttackPointLink@@YAXPAVOneObject@@@Z 0050c2eb f   Nation.obj
 0001:0010b2f0       ?ContinueAttackWall@OneObject@@QAEXEEH@Z 0050c2f0 f   Nation.obj
 0001:0010b40f       ?ContinueAttackWallLink@@YAXPAVOneObject@@@Z 0050c40f f   Nation.obj
 0001:0010b414       ?DelWall@@YAXHH@Z          0050c414 f   Nation.obj
 0001:0010b499       ?EliminateBuilding@@YAXPAVOneObject@@@Z 0050c499 f   Nation.obj
 0001:0010b5ca       ?InitDeathList@@YAXXZ      0050c5ca f   Nation.obj
 0001:0010b5d9       ?AddToDeathList@@YAXPAVOneObject@@@Z 0050c5d9 f   Nation.obj
 0001:0010b61c       ?ProcessDeathList@@YAXXZ   0050c61c f   Nation.obj
 0001:0010b92e       ?DestructBuilding@@YAXPAVOneObject@@@Z 0050c92e f   Nation.obj
 0001:0010b98f       ?Die@OneObject@@QAEXXZ     0050c98f f   Nation.obj
 0001:0010c8ef       ?HealWalls@@YAXXZ          0050d8ef f   Nation.obj
 0001:0010c9e0       ?Eliminate@OneObject@@QAEXXZ 0050d9e0 f   Nation.obj
 0001:0010c9eb       ?MakeDamage@OneObject@@QAEXHHPAV1@@Z 0050d9eb f   Nation.obj
 0001:0010ca0e       ?DamageInside@@YAXPAVOneObject@@H0E@Z 0050da0e f   Nation.obj
 0001:0010cac7       ?MakeDamage@OneObject@@QAEXHHPAV1@E@Z 0050dac7 f   Nation.obj
 0001:0010d2a1       ?SearchSupport@OneObject@@QAEXG@Z 0050e2a1 f   Nation.obj
 0001:0010d2ae       ?WinnerControl@@YAX_N@Z    0050e2ae f   Nation.obj
 0001:0010d69d       ?DefaultSettings@OneObject@@QAEXPAVGeneralObject@@@Z 0050e69d f   Nation.obj
 0001:0010d8ed       ?Patrol@OneObject@@QAEXHHHHE@Z 0050e8ed f   Nation.obj
 0001:0010da3f       ?PatrolLink@@YAXPAVOneObject@@@Z 0050ea3f f   Nation.obj
 0001:0010dac1       ?EnableDoubleForce@OneObject@@QAEXXZ 0050eac1 f   Nation.obj
 0001:0010dacc       ?DisableDoubleForce@OneObject@@QAEXXZ 0050eacc f   Nation.obj
 0001:0010dad7       ?EnableTripleForce@OneObject@@QAEXXZ 0050ead7 f   Nation.obj
 0001:0010dae2       ?DiasableTripleForce@OneObject@@QAEXXZ 0050eae2 f   Nation.obj
 0001:0010daed       ?EnableQuadraForce@OneObject@@QAEXXZ 0050eaed f   Nation.obj
 0001:0010daf8       ?DisableQuadraForce@OneObject@@QAEXXZ 0050eaf8 f   Nation.obj
 0001:0010db03       ?WaitForRepair@OneObject@@QAEXXZ 0050eb03 f   Nation.obj
 0001:0010dbac       ?WaitForRepairLink@@YAXPAVOneObject@@@Z 0050ebac f   Nation.obj
 0001:0010dbb1       ?InitNucList@@YAXXZ        0050ebb1 f   Nation.obj
 0001:0010dc44       ?RegisterNuc@@YAXG@Z       0050ec44 f   Nation.obj
 0001:0010dcde       ?InitGame@@YAXXZ           0050ecde f   Nation.obj
 0001:0010dce8       ?GetNationByID@@YAHPAD@Z   0050ece8 f   Nation.obj
 0001:0010dd33       ?CDGINIT_INIT2@@YGXXZ      0050ed33 f   Nation.obj
 0001:0010dd42       ?LoadNations@@YAXXZ        0050ed42 f   Nation.obj
 0001:0010e09f       ?AddPopul@Nation@@QAEXG@Z  0050f09f f   Nation.obj
 0001:0010e1ea       ?AddUpgrade@Nation@@QAEXGH@Z 0050f1ea f   Nation.obj
 0001:0010e2b6       ?EnumPopulation@@YAXXZ     0050f2b6 f   Nation.obj
 0001:0010e3c0       ?ChkOfst@@YAXH@Z           0050f3c0 f i Nation.obj
 0001:0010e480       ??0ResDiscr@@QAE@XZ        0050f480 f   Nature.obj
 0001:0010e4c4       ?Errr@@YAXPBD@Z            0050f4c4 f   Nature.obj
 0001:0010e4fb       ?GetUnitKind@@YAHPAD@Z     0050f4fb f   Nature.obj
 0001:0010e545       ?GetExMedia@@YAHPAD@Z      0050f545 f   Nature.obj
 0001:0010e680       ?LoadRDS@@YAXXZ            0050f680 f   Nature.obj
 0001:0010fae1       ?GetResID@@YAHPAD@Z        00510ae1 f   Nature.obj
 0001:0010fb3a       ?ShowRMap@@YAXXZ           00510b3a f   Nature.obj
 0001:0010fd3a       ?ProcessNature@@YAXXZ      00510d3a f   Nature.obj
 0001:0010fedf       ??0OrderClassDescription@@QAE@XZ 00510edf f   Nature.obj
 0001:0010ff00       ??1OrderClassDescription@@QAE@XZ 00510f00 f   Nature.obj
 0001:0010ff21       ??0OrderDescription@@QAE@XZ 00510f21 f   Nature.obj
 0001:0010ff74       ??1OrderDescription@@QAE@XZ 00510f74 f   Nature.obj
 0001:00110028       ?ReadFLine@@YA_NPAVGFILE@@PAD@Z 00511028 f   Nature.obj
 0001:001100a2       ??0FormGroupDescription@@QAE@XZ 005110a2 f   Nature.obj
 0001:001100c3       ??1FormGroupDescription@@QAE@XZ 005110c3 f   Nature.obj
 0001:0011016a       ?FGError@@YAXXZ            0051116a f   Nature.obj
 0001:0011017c       ?Load@FormGroupDescription@@QAEXPAVGFILE@@@Z 0051117c f   Nature.obj
 0001:0011045c       ?LoadOrders@@YAXXZ         0051145c f   Nature.obj
 0001:00111b33       ?InvAI@@YAXXZ              00512b33 f   Nature.obj
 0001:00111b45       ??0AI_Description@@QAE@XZ  00512b45 f   Nature.obj
 0001:0011209c       ??1AI_Description@@QAE@XZ  0051309c f   Nature.obj
 0001:00112200       ?MakeOrderSound@@YAXPAVOneObject@@E@Z 00513200 f   NewMon.obj
 0001:001122a0       ?ConvertToUp@@YAXPAD@Z     005132a0 f   NewMon.obj
 0001:001122c0       ?GetRAngle@@YAHHHH@Z       005132c0 f   NewMon.obj
 0001:00112360       ?GetLAngle@@YAHHHH@Z       00513360 f   NewMon.obj
 0001:00112400       ?PInside@@YA_NHHHHHH@Z     00513400 f   NewMon.obj
 0001:00112430       ?ClearOrders@OneObject@@QAEXXZ 00513430 f   NewMon.obj
 0001:00112470       ?InitAllGame@@YAXXZ        00513470 f   NewMon.obj
 0001:001124b0       ?DosToWin@@YAXPAD@Z        005134b0 f   NewMon.obj
 0001:001124f0       ?ErrM@@YAXPAD@Z            005134f0 f   NewMon.obj
 0001:00112550       ?NEPar@@YAXPADH0H@Z        00513550 f   NewMon.obj
 0001:00112590       ?InvPar@@YAXPADH00@Z       00513590 f   NewMon.obj
 0001:001125d0       ?IncPar@@YAXPADH0@Z        005135d0 f   NewMon.obj
 0001:00112610       ?UpConv@@YAXPAD@Z          00513610 f   NewMon.obj
 0001:00112690       ?InitNewMonstersSystem@@YAXXZ 00513690 f   NewMon.obj
 0001:00112760       ??0NewAnimation@@QAE@XZ    00513760 f   NewMon.obj
 0001:00112780       ??0NewMonster@@QAE@XZ      00513780 f   NewMon.obj
 0001:001129f0       ?LoadIcons@@YAXXZ          005139f0 f   NewMon.obj
 0001:00112ae0       ?GetIconByName@@YAHPAD@Z   00513ae0 f   NewMon.obj
 0001:00112b50       ?ReadStatement@@YAPADPAD0@Z 00513b50 f   NewMon.obj
 0001:00112ba0       ?ReadKeyCodes@@YAXXZ       00513ba0 f   NewMon.obj
 0001:00112db0       ?LoadNewAimations@@YAXXZ   00513db0 f   NewMon.obj
 0001:001139c0       ?GetNewAnimationByName@@YAPAVNewAnimation@@PAD@Z 005149c0 f   NewMon.obj
 0001:00113a30       ?LoadNewAnimationByName@NewMonster@@QAEPAVNewAnimation@@PAD@Z 00514a30 f   NewMon.obj
 0001:00114590       ?GetMatherialType@@YAHPAD@Z 00515590 f   NewMon.obj
 0001:00114670       ?CreateFromFile@NewMonster@@QAE_NPAD@Z 00515670 f   NewMon.obj
 0001:0011b130       ?LoadAllNewMonsters@@YAXXZ 0051c130 f   NewMon.obj
 0001:0011b270       ?CreateGOByName@@YA_NPAVGeneralObject@@PAD1@Z 0051c270 f   NewMon.obj
 0001:0011b450       ?GetIndexByName@SprGroup@@QAEHPAD@Z 0051c450 f   NewMon.obj
 0001:0011b4e0       ?GetResByName@@YAHPAD@Z    0051c4e0 f   NewMon.obj
 0001:0011b5c0       ?LoadSprites@SprGroup@@QAEXPAD@Z 0051c5c0 f   NewMon.obj
 0001:0011c2e0       ?ZMem@@YAXPAEH@Z           0051d2e0 f   NewMon.obj
 0001:0011c300       ?GetDir@@YAGHH@Z           0051d300 f   NewMon.obj
 0001:0011c3a0       ?CalculateForces@@YAXXZ    0051d3a0 f   NewMon.obj
 0001:0011c660       ?InitHash@@YAXXZ           0051d660 f   NewMon.obj
 0001:0011c690       ?InitVisual@@YAXXZ         0051d690 f   NewMon.obj
 0001:0011c6b0       ?AddToVisual@@YAXFFFPAVOneObject@@GG@Z 0051d6b0 f   NewMon.obj
 0001:0011c860       ?AddToVisual@@YAXFFFPAVOneObject@@GGHH@Z 0051d860 f   NewMon.obj
 0001:0011ca10       ?ShowVisual@@YAXXZ         0051da10 f   NewMon.obj
 0001:0011cb20       ?AddToVisual@@YAXFFFPAVOneObject@@GGH@Z 0051db20 f   NewMon.obj
 0001:0011cd50       ?ShowVisualLess@@YAXH@Z    0051dd50 f   NewMon.obj
 0001:0011d060       ?QShowFires@@YAXPAVOneObject@@HHHPAPAVNewAnimation@@1HH@Z 0051e060 f   NewMon.obj
 0001:0011d370       ?ShowFires@@YAXPAVOneObject@@HH@Z 0051e370 f   NewMon.obj
 0001:0011d3d0       ?Erase@FireObjectInfo@@QAEXXZ 0051e3d0 f   NewMon.obj
 0001:0011d3f0       ?Erase@FireInfo@@QAEXXZ    0051e3f0 f   NewMon.obj
 0001:0011d420       ?ShowNewMonsters@@YAXXZ    0051e420 f   NewMon.obj
 0001:0011e700       ?RunLeftVeslo@@YAXPAVOneObject@@_N@Z 0051f700 f   NewMon.obj
 0001:0011e730       ?RunRightVeslo@@YAXPAVOneObject@@_N@Z 0051f730 f   NewMon.obj
 0001:0011e760       ?ProcessNewMotion@OneObject@@QAEXXZ 0051f760 f   NewMon.obj
 0001:0011eaa0       ?RotateMon@@YAXPAVOneObject@@D@Z 0051faa0 f   NewMon.obj
 0001:0011eae0       ?SetMonstersInCells@@YAXXZ 0051fae0 f   NewMon.obj
 0001:0011ec30       ?CheckPosition@@YA_NHHHG@Z 0051fc30 f   NewMon.obj
 0001:0011ed60       ?CheckTerra@@YA_NHHHH@Z    0051fd60 f   NewMon.obj
 0001:0011eda0       ?PushMonsters@@YAXHHHHHG@Z 0051fda0 f   NewMon.obj
 0001:0011edb0       ?ChkAnm@@YAXPAVOneObject@@@Z 0051fdb0 f   NewMon.obj
 0001:0011edc0       ?TryToStand@@YAXPAVOneObject@@_N@Z 0051fdc0 f   NewMon.obj
 0001:0011f100       ?CheckState@OneObject@@QAEXXZ 00520100 f   NewMon.obj
 0001:0011f160       ?TryToMove@@YAHPAVOneObject@@E_N@Z 00520160 f   NewMon.obj
 0001:0011f550       ?NewTryToMove@@YAHPAVOneObject@@E_NHH@Z 00520550 f   NewMon.obj
 0001:0011f7b0       ?CalculateMotionX0@@YAXXZ  005207b0 f   NewMon.obj
 0001:001203a0       ?MotionHandler0@@YAXPAVOneObject@@@Z 005213a0 f   NewMon.obj
 0001:00120b30       ?SWAP@@YAXPAF0@Z           00521b30 f   NewMon.obj
 0001:00120b50       ?SWAP@@YAXPAG0@Z           00521b50 f   NewMon.obj
 0001:00120b70       ?SWAP@@YAXPAH0@Z           00521b70 f   NewMon.obj
 0001:00120b90       ?SWAP@@YAXPAE0@Z           00521b90 f   NewMon.obj
 0001:00120bb0       ?SWAP@@YAXPAD0@Z           00521bb0 f   NewMon.obj
 0001:00120bd0       ?SWAP@@YAXPAPAVNewAnimation@@0@Z 00521bd0 f   NewMon.obj
 0001:00120bf0       ?RemoveFoolsInCell@@YA_NHHHHPAVOneObject@@@Z 00521bf0 f   NewMon.obj
 0001:00120fc0       ?RemoveFools@@YAXHHHPAVOneObject@@@Z 00521fc0 f   NewMon.obj
 0001:00121120       ?SmartTryToMove@@YAXPAVOneObject@@E_N@Z 00522120 f   NewMon.obj
 0001:00121320       ?MotionHandler1@@YAXPAVOneObject@@@Z 00522320 f   NewMon.obj
 0001:001217a0       ?CheckMotionAbility@@YAHPAVOneObject@@D_N@Z 005227a0 f   NewMon.obj
 0001:00121880       ?MotionHandler3@@YAXPAVOneObject@@@Z 00522880 f   NewMon.obj
 0001:00121cb0       ?MotionHandler2@@YAXPAVOneObject@@@Z 00522cb0 f   NewMon.obj
 0001:001223a0       ?CreateOrdersList@@YAXPAVOneObject@@PAD@Z 005233a0 f   NewMon.obj
 0001:00122440       ?its1@@YAPADH@Z            00523440 f   NewMon.obj
 0001:00122460       ?LongProcesses@@YAXXZ      00523460 f   NewMon.obj
 0001:001226a0       ?CalculateMotion@@YAXXZ    005236a0 f   NewMon.obj
 0001:00122c70       ?CalculateMotionV2@@YAXXZ  00523c70 f   NewMon.obj
 0001:00123310       ?RoundX@@YAHH@Z            00524310 f   NewMon.obj
 0001:00123320       ?RoundY@@YAHH@Z            00524320 f   NewMon.obj
 0001:00123340       ?CheckBuildingsInArea@@YA_NHHHHPAGH@Z 00524340 f   NewMon.obj
 0001:001234a0       ?CheckBuildingsForWalls@@YA_NHH@Z 005244a0 f   NewMon.obj
 0001:00123650       ?CheckMonstersInArea@@YA_NHHH@Z 00524650 f   NewMon.obj
 0001:00123790       ?CreateBLDList@@YAHEPAGHHH@Z 00524790 f   NewMon.obj
 0001:00123860       ?CheckCreationAbility@@YAHEPAVNewMonster@@PAH1PAGH@Z 00524860 f   NewMon.obj
 0001:00123d80       ?CheckSmartCreationAbility@@YAHEPAVNewMonster@@PAH1@Z 00524d80 f   NewMon.obj
 0001:00123ef0       ?CheckAISmartCreationAbility@@YAHEPAVNewMonster@@PAH1@Z 00524ef0 f   NewMon.obj
 0001:00124060       ?SmartCreationUnit@@YAHEHHH@Z 00525060 f   NewMon.obj
 0001:001240d0       ?GetUnitCost@@YAXEGPAH@Z   005250d0 f   NewMon.obj
 0001:001241f0       ?GetUnitCost@@YAXEGPAHG@Z  005251f0 f   NewMon.obj
 0001:00124300       ?CheckCostHint@@YA_NEG@Z   00525300 f   NewMon.obj
 0001:00124430       ?CheckCost@@YA_NEG@Z       00525430 f   NewMon.obj
 0001:00124490       ?ApplyCost@@YA_NEG@Z       00525490 f   NewMon.obj
 0001:00124570       ?ApplyCostUpgrade@@YA_NEG@Z 00525570 f   NewMon.obj
 0001:00124640       ?GetDiscreta@@YAXPAH0H@Z   00525640 f   NewMon.obj
 0001:001246b0       ?FindUnitPosition@@YAXPAH0PAVNewMonster@@@Z 005256b0 f   NewMon.obj
 0001:00124850       ?CreateFields@@YAXEHHH@Z   00525850 f   NewMon.obj
 0001:001248f0       ?GetTotalUnits@@YAHXZ      005258f0 f   NewMon.obj
 0001:00124920       ?CreateNewMonsterAt@Nation@@QAEHHHH_N@Z 00525920 f   NewMon.obj
 0001:00125590       ?CreateGround@@YAXPAVOneObject@@@Z 00526590 f   NewMon.obj
 0001:00125720       ?CreateGrassGround@@YAXHH@Z 00526720 f   NewMon.obj
 0001:00125790       ?GetCornerXY@OneObject@@QAEXPAH0@Z 00526790 f   NewMon.obj
 0001:001257e0       ?NewMonsterSendTo@OneObject@@QAEXHHEE@Z 005267e0 f   NewMon.obj
 0001:00125920       ?NewMonsterSendToLink@@YAXPAVOneObject@@@Z 00526920 f   NewMon.obj
 0001:00125a20       ?NewMonsterPreciseSendTo@OneObject@@QAEXHHEE@Z 00526a20 f   NewMon.obj
 0001:00125b00       ?NewMonsterPreciseSendToLink@@YAXPAVOneObject@@@Z 00526b00 f   NewMon.obj
 0001:00125cd0       ?ProcessNewMonsters@@YAXXZ 00526cd0 f   NewMon.obj
 0001:00125d10       ?GoodSelectNewMonsters@@YAGEHHHHPAG0_NP6A_NPAVOneObject@@H@ZHH@Z 00526d10 f   NewMon.obj
 0001:00126160       ?ShowNMHealth@@YAXPAVOneObject@@@Z 00527160 f   NewMon.obj
 0001:00126180       ?ClearMaps@@YAXXZ          00527180 f   NewMon.obj
 0001:001261a0       ?BSetPt@@YAXHH@Z           005271a0 f   NewMon.obj
 0001:001261c0       ?BClrPt@@YAXHH@Z           005271c0 f   NewMon.obj
 0001:001261e0       ?BSetBar@@YAXHHH@Z         005271e0 f   NewMon.obj
 0001:00126200       ?BClrBar@@YAXHHH@Z         00527200 f   NewMon.obj
 0001:00126220       ?BSetSQ@@YAXHHHH@Z         00527220 f   NewMon.obj
 0001:00126240       ?BClrSQ@@YAXHHHH@Z         00527240 f   NewMon.obj
 0001:00126260       ?CheckPt@@YAHHH@Z          00527260 f   NewMon.obj
 0001:00126280       ?CheckHLine@@YAHHHH@Z      00527280 f   NewMon.obj
 0001:001262a0       ?CheckVLine@@YAHHHH@Z      005272a0 f   NewMon.obj
 0001:001262c0       ?CheckBar@@YA_NHHHH@Z      005272c0 f   NewMon.obj
 0001:001262e0       ?SetLock@@YAXHHD@Z         005272e0 f   NewMon.obj
 0001:00126320       ?div24@@YAHH@Z             00527320 f   NewMon.obj
 0001:00126330       ?Prop43@@YAHH@Z            00527330 f   NewMon.obj
 0001:00126340       ?LShow@@YAXXZ              00527340 f   NewMon.obj
 0001:00126640       ?TopShow@@YAXXZ            00527640 f   NewMon.obj
 0001:00126a90       ?CheckDamageAbility@@YAHPAVOneObject@@HHHEH@Z 00527a90 f   NewMon.obj
 0001:00126c30       ?FastCheckDamageAbility@@YAHPAVOneObject@@HHHEH@Z 00527c30 f   NewMon.obj
 0001:00126dd0       ?FindPlaceForAttack@@YAHPAVOneObject@@HHHEHHPAH1@Z 00527dd0 f   NewMon.obj
 0001:001270e0       ?AI_AttackPointLink@@YAXPAVOneObject@@@Z 005280e0 f   NewMon.obj
 0001:00127610       ?AttackPoint@OneObject@@QAE_NHHHEEEE@Z 00528610 f   NewMon.obj
 0001:00127750       ?GetEnemyDifference@@YAHHE@Z 00528750 f   NewMon.obj
 0001:001277f0       ?SearchEnemyForAIArtillery@@YAXPAVOneObject@@@Z 005287f0 f   NewMon.obj
 0001:00127b50       ?SearchEnemyForMortira@@YAXPAVOneObject@@@Z 00528b50 f   NewMon.obj
 0001:00127ed0       ?AIArtilleryAgainstTowers@@YAXPAVOneObject@@@Z 00528ed0 f   NewMon.obj
 0001:00127fe0       ?AttackObj@OneObject@@QAE_NGH@Z 00528fe0 f   NewMon.obj
 0001:00128000       ?AttackObj@OneObject@@QAE_NGHE@Z 00529000 f   NewMon.obj
 0001:00128020       ?AttackObj@OneObject@@QAE_NGHEG@Z 00529020 f   NewMon.obj
 0001:00128630       ?NewAttackPoint@OneObject@@QAE_NHHHEG@Z 00529630 f   NewMon.obj
 0001:00128790       ?SetDestUnit@@YAXPAVOneObject@@0FFFF@Z 00529790 f   NewMon.obj
 0001:001289f0       ?CreateRazbros@@YAXPAVOneObject@@PAUCoor3D@@@Z 005299f0 f   NewMon.obj
 0001:00128ae0       ?CheckPointForDamageAbility@@YAHPAVOneObject@@HHH@Z 00529ae0 f   NewMon.obj
 0001:00128ce0       ?NewAttackPointLink@@YAXPAVOneObject@@@Z 00529ce0 f   NewMon.obj
 0001:00128d00       ?AttackObjLink@@YAXPAVOneObject@@@Z 00529d00 f   NewMon.obj
 0001:0012acf0       ?MakeOneShotLink@@YAXPAVOneObject@@@Z 0052bcf0 f   NewMon.obj
 0001:0012af40       ?MakeOneShot@@YAXPAVOneObject@@HHH@Z 0052bf40 f   NewMon.obj
 0001:0012afa0       ?CDGINIT_INIT1@@YGXXZ      0052bfa0 f   NewMon.obj
 0001:0012afb0       ?WaterAttackLink@@YAXPAVOneObject@@@Z 0052bfb0 f   NewMon.obj
 0001:0012b840       ?GetNewEnemy@@YAGHHE@Z     0052c840 f   NewMon.obj
 0001:0012b920       ?AdvancedGetNewEnemyInCell@@YAGHHHHE@Z 0052c920 f   NewMon.obj
 0001:0012bc60       ?AdvancedGetNewEnemy@@YAGHHHHE@Z 0052cc60 f   NewMon.obj
 0001:0012bd00       ?GetNewFriend@@YAGHHE@Z    0052cd00 f   NewMon.obj
 0001:0012bdb0       ?AdvancedGetNewFriendInCell@@YAGHHHHE@Z 0052cdb0 f   NewMon.obj
 0001:0012c040       ?AdvancedGetNewFriend@@YAGHHHHE@Z 0052d040 f   NewMon.obj
 0001:0012c0d0       ?WeakBlockUnit@OneObject@@QAEXXZ 0052d0d0 f   NewMon.obj
 0001:0012c110       ?BlockUnit@OneObject@@QAEXXZ 0052d110 f   NewMon.obj
 0001:0012c2a0       ?UnBlockUnit@OneObject@@QAEXXZ 0052d2a0 f   NewMon.obj
 0001:0012c390       ?DeletePath@OneObject@@QAEXXZ 0052d390 f   NewMon.obj
 0001:0012c3d0       ?FindPoint@OneObject@@QAE_NPAH0E@Z 0052d3d0 f   NewMon.obj
 0001:0012c600       ?NextStage@OneObject@@QAEXXZ 0052d600 f   NewMon.obj
 0001:0012c900       ?ClearBuildPt@OneObject@@QAEXXZ 0052d900 f   NewMon.obj
 0001:0012c990       ?BuildObj@OneObject@@QAE_NGH_NE@Z 0052d990 f   NewMon.obj
 0001:0012cb90       ?InvitePeasant@@YAXPAVOneObject@@@Z 0052db90 f   NewMon.obj
 0001:0012cd50       ?InviteAI_Peasants@@YAXPAVOneObject@@@Z 0052dd50 f   NewMon.obj
 0001:0012cf90       ?BuildObjLink@@YAXPAVOneObject@@@Z 0052df90 f   NewMon.obj
 0001:0012d2a0       ?DetermineBuilding@@YAGHHE@Z 0052e2a0 f   NewMon.obj
 0001:0012d400       ?CheckBlocking@OneObject@@QAE_NXZ 0052e400 f   NewMon.obj
 0001:0012d470       ?DeleteBlocking@OneObject@@QAEXXZ 0052e470 f   NewMon.obj
 0001:0012d610       ?DeleteBlockLink@@YAXPAVOneObject@@@Z 0052e610 f   NewMon.obj
 0001:0012d700       ?DamageInCell@@YAXHHHHGPAVOneObject@@G@Z 0052e700 f   NewMon.obj
 0001:0012d830       ?MakeRoundDamage@@YAXHHHGPAVOneObject@@G@Z 0052e830 f   NewMon.obj
 0001:0012d990       ?GetDamagePoint@OneObject@@QAE_NHHPAUCoor3D@@H@Z 0052e990 f   NewMon.obj
 0001:0012dae0       ?CreateOrder@OneObject@@QAEPAUOrder1@@E@Z 0052eae0 f   NewMon.obj
 0001:0012db70       ?DeleteLastOrder@OneObject@@QAEXXZ 0052eb70 f   NewMon.obj
 0001:0012dd00       ?SearchEnemyInCell@@YAPAVOneObject@@HEEE@Z 0052ed00 f   NewMon.obj
 0001:0012de10       ?SearchEnemyGroupInCell@@YAPAVOneObject@@HEE@Z 0052ee10 f   NewMon.obj
 0001:0012dea0       ?SearchVictimForAI_Archer@@YAXPAVOneObject@@@Z 0052eea0 f   NewMon.obj
 0001:0012e120       ?SearchVictim@OneObject@@QAEXXZ 0052f120 f   NewMon.obj
 0001:0012ecb0       ?SearchVictim@@YAGPAVOneObject@@HH@Z 0052fcb0 f   NewMon.obj
 0001:0012ee70       ?SetUnlimitedLink@@YAXPAVOneObject@@@Z 0052fe70 f   NewMon.obj
 0001:0012ee80       ?SetOrderedUnlimitedMotion@OneObject@@QAEXE@Z 0052fe80 f   NewMon.obj
 0001:0012eec0       ?FINDNEAREMPTY@@YA_NPAH0@Z 0052fec0 f   NewMon.obj
 0001:0012ef90       ?ClearUnlimitedLink@@YAXPAVOneObject@@@Z 0052ff90 f   NewMon.obj
 0001:0012f0d0       ?ClearOrderedUnlimitedMotion@OneObject@@QAEXEG@Z 005300d0 f   NewMon.obj
 0001:0012f110       ?ClearOrderedUnlimitedMotion@OneObject@@QAEXE@Z 00530110 f   NewMon.obj
 0001:0012f130       ?SearchCapturers@@YAPAVOneObject@@HE@Z 00530130 f   NewMon.obj
 0001:0012f1b0       ?SearchProtectors@@YAPAVOneObject@@HE@Z 005301b0 f   NewMon.obj
 0001:0012f230       ?CheckProtectors_Walls@@YA_NHHE@Z 00530230 f   NewMon.obj
 0001:0012f2b0       ?GetProtectors@@YAHHE@Z    005302b0 f   NewMon.obj
 0001:0012f340       ?GetNearestDefender@@YAGPAVOneObject@@@Z 00530340 f   NewMon.obj
 0001:0012f3f0       ?TestCapture@@YAHPAVOneObject@@@Z 005303f0 f   NewMon.obj
 0001:0012f530       ?CheckCapture@@YAXPAVOneObject@@@Z 00530530 f   NewMon.obj
 0001:0012fd60       ?GetAmountOfProtectors@@YAHPAVOneObject@@@Z 00530d60 f   NewMon.obj
 0001:0012fe10       ?PlayAnimation@@YAXPAVNewAnimation@@HHH@Z 00530e10 f   NewMon.obj
 0001:0012fe60       ?CheckPlaceForShar@@YA_NHH@Z 00530e60 f   NewMon.obj
 0001:0012ff50       ?HandleShar@@YAXPAVNation@@@Z 00530f50 f   NewMon.obj
 0001:001302d0       ?DrawShar@@YAXPAVNation@@@Z 005312d0 f   NewMon.obj
 0001:001305d0       ??0BlockBars@@QAE@XZ       005315d0 f   NewMon.obj
 0001:001305e0       ?Clear@BlockBars@@QAEXXZ   005315e0 f   NewMon.obj
 0001:00130610       ??1BlockBars@@QAE@XZ       00531610 f   NewMon.obj
 0001:00130620       ?Add@BlockBars@@QAE_NGG@Z  00531620 f   NewMon.obj
 0001:001306b0       ?FastAdd@BlockBars@@QAE_NGG@Z 005316b0 f   NewMon.obj
 0001:00130700       ?Delete@BlockBars@@QAE_NGG@Z 00531700 f   NewMon.obj
 0001:00130770       ?MoveAwayInCell@@YAXHHH@Z  00531770 f   NewMon.obj
 0001:001308d0       ?MoveAway@@YAXHH@Z         005318d0 f   NewMon.obj
 0001:00130950       ?MoveAwaySectorInCell@@YA_NHHHHHDH@Z 00531950 f   NewMon.obj
 0001:00130ac0       ?MoveAwayInSector@@YA_NHHHHDH@Z 00531ac0 f   NewMon.obj
 0001:00130b70       ?GetUnitsInSector@@YAXHHHDPAH0E@Z 00531b70 f   NewMon.obj
 0001:00130ca0       ?TestUnitsInSectorForGrenade@@YA_NPAVOneObject@@@Z 00531ca0 f   NewMon.obj
 0001:00130d70       ?GetTopology1@@YAHHH@Z     00531d70 f   NewMon.obj
 0001:00130dc0       ?GetWTopology1@@YAHHHE@Z   00531dc0 f   NewMon.obj
 0001:00130e20       ?TopFindBestPosition@@YA_NPAVOneObject@@PAH1HHE@Z 00531e20 f   NewMon.obj
 0001:001311f0       ?CheckDirectWay@@YA_NHHHH@Z 005321f0 f   NewMon.obj
 0001:001312a0       ?FindSuperSmartBestPosition@@YAHPAVOneObject@@PAH1HHGE@Z 005322a0 f   NewMon.obj
 0001:001315b0       ?GetWTopology@@YAHHHE@Z    005325b0 f   NewMon.obj
 0001:001316d0       ?GetWTopology@@YAHPAH0E@Z  005326d0 f   NewMon.obj
 0001:00131820       ?NewMonsterSmartSendToLink@@YAXPAVOneObject@@@Z 00532820 f   NewMon.obj
 0001:00131b70       ?NewMonsterSmartSendTo@OneObject@@QAEXHHHHEE@Z 00532b70 f   NewMon.obj
 0001:00131d20       ?ProcessSelectedTower@@YAXXZ 00532d20 f   NewMon.obj
 0001:00131f90       ?CorrectTopPoint@@YAXPAH0HH@Z 00532f90 f   NewMon.obj
 0001:00132080       ?CorrectBlocking@@YAXPAH0@Z 00533080 f   NewMon.obj
 0001:001321d0       ?CheckTopDirectWay@@YA_NHHHHE@Z 005331d0 f   NewMon.obj
 0001:001322c0       ?FindNextSmartPoint@OneObject@@QAEXXZ 005332c0 f   NewMon.obj
 0001:00132530       ?CreateSmartPath@OneObject@@QAEXHHHH@Z 00533530 f   NewMon.obj
 0001:00132540       ?EnumUnitsInCell@@YAHHHHHGE@Z 00533540 f   NewMon.obj
 0001:00132650       ?EnumUnitsInRound@@YAHHHHGE@Z 00533650 f   NewMon.obj
 0001:00132740       ?CheckShipDirection@@YAHD@Z 00533740 f   NewMon.obj
 0001:001327e0       ?RotateShipAndDieLink@@YAXPAVOneObject@@@Z 005337e0 f   NewMon.obj
 0001:00132840       ?RotateShipAndDie@@YAXPAVOneObject@@@Z 00533840 f   NewMon.obj
 0001:00132950       ?DoNormalTBL@@YAXXZ        00533950 f   NewMon.obj
 0001:00132960       ?ProcessGuard@@YAXXZ       00533960 f   NewMon.obj
 0001:00132ba0       ?GetWeapons@@YAXPAVGFILE@@PAVNewUpgrade@@PAVNation@@PADH@Z 00533ba0 f   NewUpgrade.obj
 0001:00132ba5       ?GetNTUnit@@YAHPAVNation@@PAD@Z 00533ba5 f   NewUpgrade.obj
 0001:00132c02       ?GetNTUpgrade@@YAHPAVNation@@PAD@Z 00533c02 f   NewUpgrade.obj
 0001:00132c68       ?GetNTElement@@YAHPAVNation@@PAD_N2@Z 00533c68 f   NewUpgrade.obj
 0001:00132ccf       ?GetWeaponKind@@YAXPAVGFILE@@PAVNewUpgrade@@PAVNation@@PADH@Z 00533ccf f   NewUpgrade.obj
 0001:00132efd       ?GetAttIndex@@YAXPAVGFILE@@PAVNewUpgrade@@PAVNation@@PADH@Z 00533efd f   NewUpgrade.obj
 0001:001330fe       ?GetCtgParam01@@YAXPAVGFILE@@PAVNewUpgrade@@PAVNation@@PADH@Z 005340fe f   NewUpgrade.obj
 0001:00133203       ?GetUnits@@YAXPAVGFILE@@PAVNewUpgrade@@PAVNation@@PADH@Z 00534203 f   NewUpgrade.obj
 0001:0013368d       ?GetUnitsAndUpgrades@@YAXPAVGFILE@@PAVNewUpgrade@@PAVNation@@PADH_N4@Z 0053468d f   NewUpgrade.obj
 0001:001338d3       ?ReadValue@@YA_NPAVGFILE@@PAH1@Z 005348d3 f   NewUpgrade.obj
 0001:001339bd       ?GetValue@@YAXPAVGFILE@@PAVNewUpgrade@@PAVNation@@PADH@Z 005349bd f   NewUpgrade.obj
 0001:00133a37       ?GetCostValue@@YAXPAVGFILE@@PAVNewUpgrade@@PAVNation@@PADH@Z 00534a37 f   NewUpgrade.obj
 0001:00133d04       ?GetUpgradeCost@@YAXPAVGFILE@@PAVNewUpgrade@@PAVNation@@PADH@Z 00534d04 f   NewUpgrade.obj
 0001:00133f14       ?GetUpgradeTime@@YAXPAVGFILE@@PAVNewUpgrade@@PAVNation@@PADH@Z 00534f14 f   NewUpgrade.obj
 0001:00133fe8       ?GetWeapon@@YAXPAVGFILE@@PAVNewUpgrade@@PAVNation@@PADH@Z 00534fe8 f   NewUpgrade.obj
 0001:00134119       ?UnderstandUpgrade@@YA_NPAVGFILE@@PADPAVNation@@1PAHE@Z 00535119 f   NewUpgrade.obj
 0001:0013544b       ?UseValue@@YAXPAHEH@Z      0053644b f   NewUpgrade.obj
 0001:00135532       ?UpgradeSpeed@@YAXPAVGeneralObject@@GEHPAVOneObject@@@Z 00536532 f   NewUpgrade.obj
 0001:00135597       ?UpgradeShield@@YAXPAVGeneralObject@@GEHPAVOneObject@@@Z 00536597 f   NewUpgrade.obj
 0001:001355df       ?UpgradeProtection@@YAXPAVGeneralObject@@GEHPAVOneObject@@@Z 005365df f   NewUpgrade.obj
 0001:00135638       ?UpgradeAttPause@@YAXPAVGeneralObject@@GEHPAVOneObject@@@Z 00536638 f   NewUpgrade.obj
 0001:00135694       ?UpgradeWeapon@@YAXPAVGeneralObject@@GEHPAVOneObject@@@Z 00536694 f   NewUpgrade.obj
 0001:001356af       ?UpgradeBuild@@YAXPAVGeneralObject@@GEHPAVOneObject@@@Z 005366af f   NewUpgrade.obj
 0001:001357c3       ?UpgradeLife@@YAXPAVGeneralObject@@GEHPAVOneObject@@@Z 005367c3 f   NewUpgrade.obj
 0001:00135871       ?UpgradeAttRange@@YAXPAVGeneralObject@@GEHPAVOneObject@@@Z 00536871 f   NewUpgrade.obj
 0001:001359b4       ?UpgradeInside@@YAXPAVGeneralObject@@GEHPAVOneObject@@@Z 005369b4 f   NewUpgrade.obj
 0001:001359fc       ?UpgradeCost@@YAXPAVGeneralObject@@GEHPAVOneObject@@@Z 005369fc f   NewUpgrade.obj
 0001:00135a74       ?UpgradeEnable@@YAXPAVGeneralObject@@GEHPAVOneObject@@@Z 00536a74 f   NewUpgrade.obj
 0001:00135ae9       ?UpgradeDamage@@YAXPAVGeneralObject@@GEHPAVOneObject@@@Z 00536ae9 f   NewUpgrade.obj
 0001:00135b57       ?UpgradeGetRes@@YAXPAVGeneralObject@@GEHPAVOneObject@@@Z 00536b57 f   NewUpgrade.obj
 0001:00135b9d       ?ApplyToOneUnitAndOneCategory@@YAXPAVGeneralObject@@GPAVNewUpgrade@@P6AX0GEHPAVOneObject@@@Z2@Z 00536b9d f   NewUpgrade.obj
 0001:00135c17       ?UpgradeSingleAttPause@@YAXPAVGeneralObject@@GEHPAVOneObject@@@Z 00536c17 f   NewUpgrade.obj
 0001:00135c55       ?UpgradeSingleInside@@YAXPAVGeneralObject@@GEHPAVOneObject@@@Z 00536c55 f   NewUpgrade.obj
 0001:00135cd4       ?UpgradeFishing@@YAXPAVGeneralObject@@GEHPAVOneObject@@@Z 00536cd4 f   NewUpgrade.obj
 0001:00135d44       ?UpgradeRazbros@@YAXPAVGeneralObject@@GEHPAVOneObject@@@Z 00536d44 f   NewUpgrade.obj
 0001:00135d8c       ?UpgradeShar@@YAXPAVGeneralObject@@GEHPAVOneObject@@@Z 00536d8c f   NewUpgrade.obj
 0001:00135e1d       ?HealUnits@@YAXPAVGeneralObject@@GEHPAVOneObject@@@Z 00536e1d f   NewUpgrade.obj
 0001:00135efe       ?ApplyToOneUnit@@YAXPAVGeneralObject@@PAVNewUpgrade@@P6AX0GEHPAVOneObject@@@Z2@Z 00536efe f   NewUpgrade.obj
 0001:0013616b       ?ApplyToUnits@@YAXPAVNation@@PAVNewUpgrade@@P6AXPAVGeneralObject@@GEHPAVOneObject@@@Z3@Z 0053716b f   NewUpgrade.obj
 0001:00136310       ?EraseUnitsInPoint@@YAXHH@Z 00537310 f   NewUpgrade.obj
 0001:00136408       ?PerformNewUpgrade@@YAXPAVNation@@HPAVOneObject@@@Z 00537408 f   NewUpgrade.obj
 0001:0013684a       ?CreateAdvCharacter@@YAXPAVAdvCharacter@@PAVNewMonster@@@Z 0053784a f   NewUpgrade.obj
 0001:00136a2e       ?GetUpgradeID@@YAHPAVNation@@PAD@Z 00537a2e f   NewUpgrade.obj
 0001:00136a50       ?CheckPortPlace@@YA_NPAVNewMonster@@HH@Z 00537a50 f   OnWater.obj
 0001:00136a8b       ?FindPortPlace@@YA_NPAVNewMonster@@HHPAH1@Z 00537a8b f   OnWater.obj
 0001:00136d70       ??0MotionBrush@@QAE@XZ     00537d70 f   path.obj
 0001:00136d90       ??1MotionBrush@@QAE@XZ     00537d90 f   path.obj
 0001:00136dc0       ?CreateRoundBrush@MotionBrush@@QAEXH@Z 00537dc0 f   path.obj
 0001:00136ea0       ?CreateSquareBrush@MotionBrush@@QAEXH@Z 00537ea0 f   path.obj
 0001:00136f10       ?ClearMaps@MotionField@@QAEXXZ 00537f10 f   path.obj
 0001:00136f40       ?BSetPt@MotionField@@QAEXHH@Z 00537f40 f   path.obj
 0001:00136ff0       ?BClrPt@MotionField@@QAEXHH@Z 00537ff0 f   path.obj
 0001:001370a0       ?BSetBar@MotionField@@QAEXHHH@Z 005380a0 f   path.obj
 0001:001370f0       ?BClrBar@MotionField@@QAEXHHH@Z 005380f0 f   path.obj
 0001:00137140       ?BSetSQ@MotionField@@QAEXHHHH@Z 00538140 f   path.obj
 0001:00137190       ?BClrSQ@MotionField@@QAEXHHHH@Z 00538190 f   path.obj
 0001:001371e0       ?CheckPt@MotionField@@QAEHHH@Z 005381e0 f   path.obj
 0001:001372b0       ?CheckHLine@MotionField@@QAEHHHH@Z 005382b0 f   path.obj
 0001:00137300       ?CheckVLine@MotionField@@QAEHHHH@Z 00538300 f   path.obj
 0001:00137400       ?CheckBar@MotionField@@QAE_NHHHH@Z 00538400 f   path.obj
 0001:00137450       ?FillNewCirc@MotionField@@QAEXHHHH@Z 00538450 f   path.obj
 0001:001376e0       ?FindBestPosition@@YA_NPAVOneObject@@PAH1H@Z 005386e0 f   path.obj
 0001:00137a20       ?CreateFullPath@@YAXHHPAVOneObject@@@Z 00538a20 f   path.obj
 0001:00137b00       ?CreatePrePath@OneObject@@QAE_NHH@Z 00538b00 f   path.obj
 0001:001388f0       ?CreatePrePath2@OneObject@@QAE_NHH@Z 005398f0 f   path.obj
 0001:001395b0       ?CreatePrePath4@OneObject@@QAE_NHH@Z 0053a5b0 f   path.obj
 0001:0013a270       ?CorrectLockPosition@@YAXPAVOneObject@@@Z 0053b270 f   path.obj
 0001:0013a360       ?CreatePath@OneObject@@QAEXHH@Z 0053b360 f   path.obj
 0001:0013a5d0       ?ExtrapolateCell@@YAXHH@Z  0053b5d0 f   RealWater.obj
 0001:0013a751       ?ExtrapolateSurface@@YAXHHHH@Z 0053b751 f   RealWater.obj
 0001:0013a7a9       ?GenerateSurface@@YAXHHHH@Z 0053b7a9 f   RealWater.obj
 0001:0013ab97       ?SetPoint@@YAXPAFHHHH@Z    0053bb97 f   RealWater.obj
 0001:0013ad03       ?SetSpot@@YAXHH@Z          0053bd03 f   RealWater.obj
 0001:0013ad78       ?InitWater@@YAXXZ          0053bd78 f   RealWater.obj
 0001:0013af4d       ?ProcessWaves1@@YAXPAF00HHHH@Z 0053bf4d f   RealWater.obj
 0001:0013afe9       ?ProcessWaves@@YAXPAF00HHHH@Z 0053bfe9 f   RealWater.obj
 0001:0013b07b       ?ProcessWaveFrame@@YAXPAFHHHH@Z 0053c07b f   RealWater.obj
 0001:0013b264       ?MoveWater@@YAXHH@Z        0053c264 f   RealWater.obj
 0001:0013b269       ?GOF@@YAHHH@Z              0053c269 f   RealWater.obj
 0001:0013b27f       ?InitCost@@YAXXZ           0053c27f f   RealWater.obj
 0001:0013b525       ?ExSin@@YANN@Z             0053c525 f   RealWater.obj
 0001:0013b54b       ?GetFXWave@@YAHNN@Z        0053c54b f   RealWater.obj
 0001:0013b557       ?ProcessCost@@YAXXZ        0053c557 f   RealWater.obj
 0001:0013b67d       ?ClearWater@@YAXXZ         0053c67d f   RealWater.obj
 0001:0013b6da       ?SetDeepSpot@@YAXHHHHH@Z   0053c6da f   RealWater.obj
 0001:0013b92b       ?SetBrightSpot@@YAXHHH_N@Z 0053c92b f   RealWater.obj
 0001:0013bb92       ?SetGoodDeepSpot@@YAXHHHHH@Z 0053cb92 f   RealWater.obj
 0001:0013bc4c       ?ClearDeepSpot@@YAXHHHHH@Z 0053cc4c f   RealWater.obj
 0001:0013bea8       ?ClearGoodDeepSpot@@YAXHHHHH@Z 0053cea8 f   RealWater.obj
 0001:0013bf6d       ?DrawCost@@YAXHHPAFHHHHH@Z 0053cf6d f   RealWater.obj
 0001:0013c265       ?DrawCost2@@YAXHHPAFHHHHHH@Z 0053d265 f   RealWater.obj
 0001:0013c5ef       ?DrawCost1@@YAXHHPAFHHHHHH@Z 0053d5ef f   RealWater.obj
 0001:0013c979       ?GenerateHi@@YAXPAFHHH@Z   0053d979 f   RealWater.obj
 0001:0013ca56       ?GenerateWave@@YAXHHHHH@Z  0053da56 f   RealWater.obj
 0001:0013cae0       ?DrawAllWater@@YAXXZ       0053dae0 f   RealWater.obj
 0001:0013cd7a       ?InitWatt@@YAXXZ           0053dd7a f   RealWater.obj
 0001:0013cddc       ?CopyWaves@@YAXPAFHHHH@Z   0053dddc f   RealWater.obj
 0001:0013ce85       ?INSI@@YA_NHH@Z            0053de85 f   RealWater.obj
 0001:0013ceb2       ?HandleShift@@YAXXZ        0053deb2 f   RealWater.obj
 0001:0013d35c       ?ConditionalProcessWaves@@YAXPAF00HHHH@Z 0053e35c f   RealWater.obj
 0001:0013d462       ?FastProcess1@@YAXPAF00@Z  0053e462 f   RealWater.obj
 0001:0013d4df       ?FastProcess1_0@@YAXPAF00@Z 0053e4df f   RealWater.obj
 0001:0013d555       ?FastProcess1_1@@YAXPAF00@Z 0053e555 f   RealWater.obj
 0001:0013d5cb       ?ProcessWaves@@YAXPAF00@Z  0053e5cb f   RealWater.obj
 0001:0013d79f       ?CheckWaterHeight@@YA_NXZ  0053e79f f   RealWater.obj
 0001:0013d7a6       ?DisturbWater@@YAXPAF@Z    0053e7a6 f   RealWater.obj
 0001:0013d7c1       ?HandleWater@@YAXXZ        0053e7c1 f   RealWater.obj
 0001:0013da5d       ?SetWaterSpot@@YAXHHH@Z    0053ea5d f   RealWater.obj
 0001:0013da9d       ?EraseWaterSpot@@YAXHHH@Z  0053ea9d f   RealWater.obj
 0001:0013dad0       ?DeepWaterSpot@@YAXHHH@Z   0053ead0 f   RealWater.obj
 0001:0013dad5       ?MakeBrod@@YAXHHH@Z        0053ead5 f   RealWater.obj
 0001:0013dada       ?SetupSpot@@YAXXZ          0053eada f   RealWater.obj
 0001:0013db17       ?SpotByUnit@@YAXHHHE@Z     0053eb17 f   RealWater.obj
 0001:0013dca6       ?m3@@YAHH@Z                0053eca6 f   RealWater.obj
 0001:0013dcb4       ?GetZ@@YAHHHHH@Z           0053ecb4 f   RealWater.obj
 0001:0013dcda       ?CreateWaterLocking@@YAXHHHH@Z 0053ecda f   RealWater.obj
 0001:0013df73       ?CorrectLeftWaves@@YAXXZ   0053ef73 f   RealWater.obj
 0001:0013e04f       ??0RecordGame@@QAE@XZ      0053f04f f   Recorder.obj
 0001:0013e0a5       ??1RecordGame@@QAE@XZ      0053f0a5 f   Recorder.obj
 0001:0013e0ce       ?AddByte@RecordGame@@QAEXE@Z 0053f0ce f   Recorder.obj
 0001:0013e159       ?AddShort@RecordGame@@QAEXF@Z 0053f159 f   Recorder.obj
 0001:0013e1e9       ?AddBuf@RecordGame@@QAEXPAEH@Z 0053f1e9 f   Recorder.obj
 0001:0013e282       ?AddRecord@RecordGame@@QAEXXZ 0053f282 f   Recorder.obj
 0001:0013e370       ?AddEmptyRecord@RecordGame@@QAEXXZ 0053f370 f   Recorder.obj
 0001:0013e3bf       ?Extract@RecordGame@@QAE_NXZ 0053f3bf f   Recorder.obj
 0001:0013f014       ?WritePitchTicks@@YAXXZ    00540014 f   Recorder.obj
 0001:0013f029       ?ReadPichTicks@@YAXXZ      00540029 f   Recorder.obj
 0001:0013f142       ?StartRecord@RecordGame@@QAEXPAD@Z 00540142 f   Recorder.obj
 0001:0013f203       ?ReadStream@RecordGame@@QAEXPAD@Z 00540203 f   Recorder.obj
 0001:0013ff5d       ?Save@RecordGame@@QAEXXZ   00540f5d f   Recorder.obj
 0001:00140106       ?TryToFlushNetworkStream@RecordGame@@QAEX_N@Z 00541106 f   Recorder.obj
 0001:001402e6       ?RunRecordedGame@RecordGame@@QAEXPAD@Z 005412e6 f   Recorder.obj
 0001:0014030d       ?GetFHashName@@YAXPAD0@Z   0054130d f   Recorder.obj
 0001:00140522       ?Open@InternetStream@@QAE_NPAD@Z 00541522 f   Recorder.obj
 0001:00140618       ?ReadSomething@InternetStream@@QAEHPAEH_N1@Z 00541618 f   Recorder.obj
 0001:00140a4f       ?Close@InternetStream@@QAEXXZ 00541a4f f   Recorder.obj
 0001:00140aac       ?Error@InternetStream@@QAEHXZ 00541aac f   Recorder.obj
 0001:00140ab9       ?PlayRecfile@@YAXPAD@Z     00541ab9 f   Recorder.obj
 0001:00140b20       ?InitRiv@@YAXXZ            00541b20 f   River.obj
 0001:00140bb8       ?ProcessRivEditor@@YAXXZ   00541bb8 f   River.obj
 0001:00140f1d       ?GetRiverDir@@YAHHH@Z      00541f1d f   River.obj
 0001:00140f80       ?SaveHeader@@YAXPAX@Z      00541f80 f   SaveNewMap.obj
 0001:00140fdb       ?LoadHeader@@YA_NPAX@Z     00541fdb f   SaveNewMap.obj
 0001:00141080       ?xLoadHeader@@YA_NPAX@Z    00542080 f   SaveNewMap.obj
 0001:001410de       ?SaveSurface@@YAXPAX@Z     005420de f   SaveNewMap.obj
 0001:00141142       ?LoadSurface@@YAXPAX@Z     00542142 f   SaveNewMap.obj
 0001:001411ff       ?SaveLock@@YAXPAX@Z        005421ff f   SaveNewMap.obj
 0001:00141204       ?LoadLock@@YAXPAX@Z        00542204 f   SaveNewMap.obj
 0001:00141209       ?SaveLockNew@@YAXPAX@Z     00542209 f   SaveNewMap.obj
 0001:001412c2       ?LoadLockNew@@YAXPAX@Z     005422c2 f   SaveNewMap.obj
 0001:0014138f       ?SaveTiles@@YAXPAX@Z       0054238f f   SaveNewMap.obj
 0001:001413f1       ?LoadTiles@@YAXPAX@Z       005423f1 f   SaveNewMap.obj
 0001:00141458       ?SaveSect@@YAXPAX@Z        00542458 f   SaveNewMap.obj
 0001:001414c3       ?LoadSect@@YAXPAX@Z        005424c3 f   SaveNewMap.obj
 0001:001414f4       ?SaveSprites@@YAXPAX@Z     005424f4 f   SaveNewMap.obj
 0001:00141687       ?LoadSprites@@YAXPAX@Z     00542687 f   SaveNewMap.obj
 0001:00141805       ?DeleteAllUnits@@YAXXZ     00542805 f   SaveNewMap.obj
 0001:001418a2       ?SaveUnits@@YAXPAX@Z       005428a2 f   SaveNewMap.obj
 0001:00141ab5       ?SaveUnits2@@YAXPAX@Z      00542ab5 f   SaveNewMap.obj
 0001:00141cf2       ?SaveUnits3@@YAXPAX@Z      00542cf2 f   SaveNewMap.obj
 0001:00141fbd       ?CreateNewUnitAt@@YAXEHHGGG@Z 00542fbd f   SaveNewMap.obj
 0001:001420a1       ?CreateNewUnitAt3@@YAPAVOneObject@@EHHGGG@Z 005430a1 f   SaveNewMap.obj
 0001:001421a2       ?LoadUnits@@YAXPAX@Z       005431a2 f   SaveNewMap.obj
 0001:0014231c       ?TestUnits@@YAXPAX@Z       0054331c f   SaveNewMap.obj
 0001:00142444       ?LoadUnits2@@YAXPAX@Z      00543444 f   SaveNewMap.obj
 0001:001425f7       ?TestUnits2@@YAXPAX@Z      005435f7 f   SaveNewMap.obj
 0001:00142745       ?LoadUnits3@@YAXPAX@Z      00543745 f   SaveNewMap.obj
 0001:001429a6       ?TestUnits3@@YAXPAX@Z      005439a6 f   SaveNewMap.obj
 0001:00142b16       ?SaveNewWalls@@YAXPAX@Z    00543b16 f   SaveNewMap.obj
 0001:00142d72       ?LoadNewWalls@@YAXPAX@Z    00543d72 f   SaveNewMap.obj
 0001:0014307c       ?SaveNewWallsV1@@YAXPAX@Z  0054407c f   SaveNewMap.obj
 0001:001432ed       ?LoadNewWallsV1@@YAXPAX@Z  005442ed f   SaveNewMap.obj
 0001:00143626       ?SaveNewWallsV2@@YAXPAX@Z  00544626 f   SaveNewMap.obj
 0001:001438eb       ?LoadNewWallsV2@@YAXPAX@Z  005448eb f   SaveNewMap.obj
 0001:00143cae       ?SaveGates@@YAXPAX@Z       00544cae f   SaveNewMap.obj
 0001:00143d3b       ?LoadGates@@YAXPAX@Z       00544d3b f   SaveNewMap.obj
 0001:00143da0       ?SaveWaterCost@@YAXPAX@Z   00544da0 f   SaveNewMap.obj
 0001:00143e86       ?LoadWaterCost@@YAXPAX@Z   00544e86 f   SaveNewMap.obj
 0001:00143f1d       ?SaveRES@@YAXPAX@Z         00544f1d f   SaveNewMap.obj
 0001:00143f6f       ?LoadRES@@YAXPAX@Z         00544f6f f   SaveNewMap.obj
 0001:00144099       ?SaveTopology@@YAXPAX@Z    00545099 f   SaveNewMap.obj
 0001:00144291       ?LoadTopology@@YAXPAX@Z    00545291 f   SaveNewMap.obj
 0001:0014449c       ?SaveWTopology@@YAXPAX@Z   0054549c f   SaveNewMap.obj
 0001:00144678       ?LoadTopology1@@YAXPAX@Z   00545678 f   SaveNewMap.obj
 0001:00144886       ?LoadWTopology1@@YAXPAX@Z  00545886 f   SaveNewMap.obj
 0001:00144ac0       ?SaveZonesAndGroups@@YAXPAX@Z 00545ac0 f   SaveNewMap.obj
 0001:00144d42       ?FindUnitByCoor@@YAHHH@Z   00545d42 f   SaveNewMap.obj
 0001:00144dd1       ?LoadZonesAndGroups@@YAXPAX@Z 00545dd1 f   SaveNewMap.obj
 0001:00145066       ?SaveFormations@@YAXPAX@Z  00546066 f   SaveNewMap.obj
 0001:0014545b       ?LoadFormations@@YAXPAX@Z  0054645b f   SaveNewMap.obj
 0001:001459e5       ?SaveFormationsNew@@YAXPAX@Z 005469e5 f   SaveNewMap.obj
 0001:00145e4c       ?LoadFormationsNew@@YAXPAX@Z 00546e4c f   SaveNewMap.obj
 0001:0014633e       ?SaveDLL@@YAXPAX@Z         0054733e f   SaveNewMap.obj
 0001:0014638e       ?LoadDLL@@YAXPAX@Z         0054738e f   SaveNewMap.obj
 0001:001463a9       ?SaveAIParam@@YAXPAX@Z     005473a9 f   SaveNewMap.obj
 0001:0014641c       ?LoadAIParam@@YAXPAX@Z     0054741c f   SaveNewMap.obj
 0001:0014645a       ?CloseMap@@YAXPAX@Z        0054745a f   SaveNewMap.obj
 0001:00146487       ?GetPreviewName@@YA_NPAD0@Z 00547487 f   SaveNewMap.obj
 0001:001465de       ?SavePreview@@YAXPAX@Z     005475de f   SaveNewMap.obj
 0001:00146760       ?LoadPreview@@YAXPAXPAE@Z  00547760 f   SaveNewMap.obj
 0001:0014677a       ?SavePeaceTimeInfo@@YAXPAX@Z 0054777a f   SaveNewMap.obj
 0001:00146877       ?SaveRivers@@YAXPAX@Z      00547877 f   SaveNewMap.obj
 0001:001468fe       ?LoadRivers@@YAXPAX@Z      005478fe f   SaveNewMap.obj
 0001:00146943       ?LoadPeaceTimeInfo@@YAXPAX@Z 00547943 f   SaveNewMap.obj
 0001:00146a0e       ?Save3DMap@@YAXPAD@Z       00547a0e f   SaveNewMap.obj
 0001:00146b3a       ?RenameAnyway@@YAXPAD0@Z   00547b3a f   SaveNewMap.obj
 0001:00146b59       ?ProcessMapAutosave@@YAXXZ 00547b59 f   SaveNewMap.obj
 0001:00146be0       ?FastSave3DMap@@YAXPAD@Z   00547be0 f   SaveNewMap.obj
 0001:00146ce3       ?Load3DMap@@YAXPAD@Z       00547ce3 f   SaveNewMap.obj
 0001:0014727e       ?Load3DMapLandOnly@@YAXPAD@Z 0054827e f   SaveNewMap.obj
 0001:001474d0       ?CreateNationalMaskForMap@@YAXPAD@Z 005484d0 f   SaveNewMap.obj
 0001:001475da       ?GetPreview@@YA_NPADPAE@Z  005485da f   SaveNewMap.obj
 0001:001476e0       ??_GWallSystem@@QAEPAXI@Z  005486e0 f i SaveNewMap.obj
 0001:00147729       ??0PFRM@@QAE@XZ            00548729 f   Timing.obj
 0001:001477b4       ?RunPF@@YAXH@Z             005487b4 f   Timing.obj
 0001:001477b9       ?StopPF@@YAXH@Z            005487b9 f   Timing.obj
 0001:001477be       ?ShowPF@@YAXXZ             005487be f   Timing.obj
 0001:0014797d       ?GetTicksEx@@YAHXZ         0054897d f   Timing.obj
 0001:00147991       ?GetDADDT@@YAHH@Z          00548991 f   Timing.obj
 0001:00147a1e       ?GetRealTime@@YAHXZ        00548a1e f   Timing.obj
 0001:00147b01       ?GetAbsoluteRealTime@@YAHXZ 00548b01 f   Timing.obj
 0001:00147b10       ?CreateRadio@@YAXXZ        00548b10 f   TopoGraf.obj
 0001:00147c20       ?AddArea@@YA_NFFE@Z        00548c20 f   TopoGraf.obj
 0001:00147db0       ?AddLink@@YAXHH@Z          00548db0 f   TopoGraf.obj
 0001:00147e90       ?GetTCStatus@@YA_NHH@Z     00548e90 f   TopoGraf.obj
 0001:00147fd0       ?CreateAreas@@YAXXZ        00548fd0 f   TopoGraf.obj
 0001:001486f0       ?ClearLinkInfo@@YAXXZ      005496f0 f   TopoGraf.obj
 0001:001487e0       ?OneIteration@@YAHXZ       005497e0 f   TopoGraf.obj
 0001:00148920       ?CreateLinkInfo@@YAXXZ     00549920 f   TopoGraf.obj
 0001:00148950       ?InitAreas@@YAXXZ          00549950 f   TopoGraf.obj
 0001:00148960       ?EraseAreas@@YAXXZ         00549960 f   TopoGraf.obj
 0001:00148a80       ?DrawAreas@@YAXHHHHHH@Z    00549a80 f   TopoGraf.obj
 0001:00148a90       ?CreateStrategyInfo@@YAXXZ 00549a90 f   TopoGraf.obj
 0001:00148d00       ?InitTopChange@@YAXXZ      00549d00 f   TopoGraf.obj
 0001:00148d50       ?ClearTopChange@@YAXXZ     00549d50 f   TopoGraf.obj
 0001:00148da0       ?AddChTop@@YAXG@Z          00549da0 f   TopoGraf.obj
 0001:00148e20       ?AddSurroundingAreas@@YAXG@Z 00549e20 f   TopoGraf.obj
 0001:00148e80       ?DynamicalLockTopCell@@YAXHH@Z 00549e80 f   TopoGraf.obj
 0001:00148f10       ?DynamicalUnLockTopCell@@YAXHH@Z 00549f10 f   TopoGraf.obj
 0001:00148fa0       ?OnePartIteration@@YAXH@Z  00549fa0 f   TopoGraf.obj
 0001:001491b0       ?LimitedClearBadLinks@@YAXPAGH00@Z 0054a1b0 f   TopoGraf.obj
 0001:001492d0       ?TotalClearBadLinks@@YAXPAG0@Z 0054a2d0 f   TopoGraf.obj
 0001:001493d0       ?LimitedSetNewLinks@@YAXPAGH00@Z 0054a3d0 f   TopoGraf.obj
 0001:001495b0       ?FastReduceWays@@YAXPAG00H@Z 0054a5b0 f   TopoGraf.obj
 0001:001498b0       ?ProcessDynamicalTopology@@YAXXZ 0054a8b0 f   TopoGraf.obj
 0001:00149a90       ?StopDynamicalTopology@@YAXXZ 0054aa90 f   TopoGraf.obj
 0001:00149b10       ??0Road@@QAE@XZ            0054ab10 f   TopoGraf.obj
 0001:00149b20       ??1Road@@QAE@XZ            0054ab20 f   TopoGraf.obj
 0001:00149b50       ?Erase@Road@@QAEXXZ        0054ab50 f   TopoGraf.obj
 0001:00149b60       ?CheckSize@Road@@QAEXH@Z   0054ab60 f   TopoGraf.obj
 0001:00149b90       ?CreateRandomWay@Road@@QAEXHHH@Z 0054ab90 f   TopoGraf.obj
 0001:00149cd0       ?Connect@Road@@QAE_NHH@Z   0054acd0 f   TopoGraf.obj
 0001:00149df0       ?ErasePart@Road@@QAEXHH@Z  0054adf0 f   TopoGraf.obj
 0001:00149e40       ?EraseCrossing@Road@@QAEXXZ 0054ae40 f   TopoGraf.obj
 0001:00149ed0       ?CreateCheckSumm@Road@@QAEXXZ 0054aed0 f   TopoGraf.obj
 0001:00149f10       ?Simplify@Road@@QAEXXZ     0054af10 f   TopoGraf.obj
 0001:00149f50       ?View@Road@@QAEXHHE@Z      0054af50 f   TopoGraf.obj
 0001:00149fd0       ?TestRoads@@YAXXZ          0054afd0 f   TopoGraf.obj
 0001:00149fe0       ?ViewRoads@@YAXHH@Z        0054afe0 f   TopoGraf.obj
 0001:00149ff0       ?AddWArea@@YA_NFF@Z        0054aff0 f   TopoGraf.obj
 0001:0014a120       ?AddWLink@@YAXHH@Z         0054b120 f   TopoGraf.obj
 0001:0014a200       ?WOneIteration@@YAHXZ      0054b200 f   TopoGraf.obj
 0001:0014a340       ?ClearWLinkInfo@@YAXXZ     0054b340 f   TopoGraf.obj
 0001:0014a430       ?CreateWLinkInfo@@YAXXZ    0054b430 f   TopoGraf.obj
 0001:0014a460       ?CreateWTopMap@@YAXXZ      0054b460 f   TopoGraf.obj
 0001:0014aa10       ?DrawAreas1@@YAXHHHHHH@Z   0054ba10 f   TopoGraf.obj
 0001:0014aaa0       ?DrawForces@@YAXHHHHHH@Z   0054baa0 f   TopoGraf.obj
 0001:0014abb0       ?SearchID@@YAHPAGHG@Z      0054bbb0 f   TopoGraf.obj
 0001:0014abe0       ?SymmetrizeLinks@@YAXXZ    0054bbe0 f   TopoGraf.obj
 0001:0014ac60       ?RemakeGroupOfAreas@@YAXPAGH@Z 0054bc60 f   TopoGraf.obj
 0001:0014b3f0       ?OnePartIterationNew@@YAXH@Z 0054c3f0 f   TopoGraf.obj
 0001:0014b580       ?EraseLinks@@YAXHH@Z       0054c580 f   TopoGraf.obj
 0001:0014b600       ?EraseAllLinks@@YAXHH@Z    0054c600 f   TopoGraf.obj
 0001:0014b690       ?SIGN@@YAHH@Z              0054c690 f   Transport.obj
 0001:0014b6af       ?GetBestDirection@@YADPAVMotionField@@HHHD@Z 0054c6af f   Transport.obj
 0001:0014b788       ?RetLock@@YAXPAVOneObject@@@Z 0054c788 f   Transport.obj
 0001:0014b80e       ?FindCostPosition@@YA_NPAVOneObject@@PAH1PAD@Z 0054c80e f   Transport.obj
 0001:0014bb2b       ?SearchTransportPlace@@YA_NPAH0H@Z 0054cb2b f   Transport.obj
 0001:0014bc0d       ?ParkWaterNewMonster@@YA_NPAVOneObject@@HHEE@Z 0054cc0d f   Transport.obj
 0001:0014bdfe       ?WaterNewMonsterSendToLink@@YAXPAVOneObject@@@Z 0054cdfe f   Transport.obj
 0001:0014c0d5       ?CheckDisconnectionAbility@TransProcess@@QAE_NPAVOneObject@@HH@Z 0054d0d5 f   Transport.obj
 0001:0014c21b       ?Disconnect@TransProcess@@QAE_NPAVOneObject@@HH@Z 0054d21b f   Transport.obj
 0001:0014c2d2       ?KillAnyway@TransProcess@@QAEXXZ 0054d2d2 f   Transport.obj
 0001:0014c4a7       ?TRP_CheckDisconnectionAbility@@YA_NPAVOneObject@@PAVGOrder@@HH@Z 0054d4a7 f   Transport.obj
 0001:0014c4cc       ?TRP_Disconnect@@YA_NPAVOneObject@@PAVGOrder@@HH@Z 0054d4cc f   Transport.obj
 0001:0014c4f1       ?TRP_KillOrder@@YA_NPAVOneObject@@PAVGOrder@@HH@Z 0054d4f1 f   Transport.obj
 0001:0014c50c       ??0TransProcess@@QAE@XZ    0054d50c f   Transport.obj
 0001:0014c533       ?TRP_LHandle@@YAXH@Z       0054d533 f   Transport.obj
 0001:0014c55f       ?TRP_IconInfo@@YAHPAVGOrder@@HPAVOneObject@@PAUGlobalIconInfo@@@Z 0054d55f f   Transport.obj
 0001:0014c5cb       ?Init@TransProcess@@QAEXG@Z 0054d5cb f   Transport.obj
 0001:0014c7e8       ?AddUnit@TransProcess@@QAEXG@Z 0054d7e8 f   Transport.obj
 0001:0014c9c1       ?ExcludeUnit@TransProcess@@QAE_NG@Z 0054d9c1 f   Transport.obj
 0001:0014ca51       ?CheckUnit@TransProcess@@QAE_NG@Z 0054da51 f   Transport.obj
 0001:0014caa0       ?FindNearestUnitIndex@TransProcess@@QAEHHH@Z 0054daa0 f   Transport.obj
 0001:0014cb55       ?RefreshUnits@TransProcess@@QAEXXZ 0054db55 f   Transport.obj
 0001:0014ccb8       ?Demobilisation@TransProcess@@QAEXXZ 0054dcb8 f   Transport.obj
 0001:0014cd7b       ?FindStartPoint@TransProcess@@QAE_NXZ 0054dd7b f   Transport.obj
 0001:0014cef1       ?FindConcPoint@TransProcess@@QAE_NXZ 0054def1 f   Transport.obj
 0001:0014d044       ?CheckUnloadAbility@TransProcess@@QAE_NXZ 0054e044 f   Transport.obj
 0001:0014d2ae       ?CheckAbsorbAbility@TransProcess@@QAE_NXZ 0054e2ae f   Transport.obj
 0001:0014d55b       ?SetFinalPoint@TransProcess@@QAE_NHH@Z 0054e55b f   Transport.obj
 0001:0014d622       ?AbsorbObject@@YAXPAVOneObject@@0E@Z 0054e622 f   Transport.obj
 0001:0014d6ad       ?AbsorbObjectLink@@YAXPAVOneObject@@@Z 0054e6ad f   Transport.obj
 0001:0014d7aa       ?LeaveShip@@YAXPAVOneObject@@E@Z 0054e7aa f   Transport.obj
 0001:0014d81f       ?LeaveShipLink@@YAXPAVOneObject@@@Z 0054e81f f   Transport.obj
 0001:0014da7a       ?TotalLeaveShip@@YAXPAVOneObject@@@Z 0054ea7a f   Transport.obj
 0001:0014dab5       ?Process@TransProcess@@QAEXXZ 0054eab5 f   Transport.obj
 0001:0014e311       ?CheckTransportOnParking@@YA_NPAVOneObject@@HH@Z 0054f311 f   Transport.obj
 0001:0014e370       ?CreateTransProcess@@YA_NPAVOneObject@@@Z 0054f370 f   Transport.obj
 0001:0014e5fe       ?CheckUnloadProcess@@YA_NPAVOneObject@@@Z 0054f5fe f   Transport.obj
 0001:0014e63b       ?CreateUnloadProcess@@YAXPAVOneObject@@HH@Z 0054f63b f   Transport.obj
 0001:0014e6b0       ?HandleTransport@@YAXXZ    0054f6b0 f   Transport.obj
 0001:0014e6ff       ??0GOrder@@QAE@XZ          0054f6ff f   Transport.obj
 0001:0014e734       ??1GOrder@@QAE@XZ          0054f734 f   Transport.obj
 0001:0014e73f       ?CheckOrderAbility@OneObject@@QAE_NHH@Z 0054f73f f   Transport.obj
 0001:0014e802       ?CheckOrderAbility@OneObject@@QAE_NXZ 0054f802 f   Transport.obj
 0001:0014e819       ?GlobLock@OneObject@@QAEXXZ 0054f819 f   Transport.obj
 0001:0014e833       ?GlobUnlock@OneObject@@QAEXXZ 0054f833 f   Transport.obj
 0001:0014e84d       ?CheckTransportEntering@@YA_NPAVOneObject@@@Z 0054f84d f   Transport.obj
 0001:0014e8ea       ?GoToTransport@OneObject@@QAE_NGE@Z 0054f8ea f   Transport.obj
 0001:0014ec93       ?GoToTransportLink@@YAXPAVOneObject@@@Z 0054fc93 f   Transport.obj
 0001:0014f0d5       ?LeaveAll@@YAXPAVOneObject@@@Z 005500d5 f   Transport.obj
 0001:0014f142       ?LeaveTransport@OneObject@@QAEXG@Z 00550142 f   Transport.obj
 0001:0014f2ca       ?LeaveTransportLink@@YAXPAVOneObject@@@Z 005502ca f   Transport.obj
 0001:0014f59a       ?InitFishMap@@YAXXZ        0055059a f   Transport.obj
 0001:0014f5a9       ?CreateFishMap@@YAXXZ      005505a9 f   Transport.obj
 0001:0014f6bb       ?TestFishMap@@YAEHH@Z      005506bb f   Transport.obj
 0001:0014f732       ?Fishing@OneObject@@QAEXXZ 00550732 f   Transport.obj
 0001:0014f7a7       ?GetMostSafePlace@@YA_NPAH0@Z 005507a7 f   Transport.obj
 0001:0014fc44       ?FishingLink@@YAXPAVOneObject@@@Z 00550c44 f   Transport.obj
 0001:001502af       ?ProcessFishing@@YAXXZ     005512af f   Transport.obj
 0001:00150340       ?DistTo@OneObject@@QAEHHH@Z 00551340 f i Transport.obj
 0001:00150370       ??0Upgrade@@QAE@XZ         00551370 f   Upgrade.obj
 0001:0015038b       ?PerformUpgrade@OneObject@@QAEXGG@Z 0055138b f   Upgrade.obj
 0001:0015070e       ?PerformUpgradeLink@@YAXPAVOneObject@@@Z 0055170e f   Upgrade.obj
 0001:00150919       ?DoUpgrade@SimpleUTP@@QAEXEPAVOneObject@@@Z 00551919 f   Upgrade.obj
 0001:00150930       ??0WallCluster@@QAE@XZ     00551930 f   walls.obj
 0001:00150994       ??1WallCluster@@QAE@XZ     00551994 f   walls.obj
 0001:00150a0d       ?SetSize@WallCluster@@QAEXH@Z 00551a0d f   walls.obj
 0001:00150a45       ?GetDir8@@YAEHH@Z          00551a45 f   walls.obj
 0001:00150a5d       ?ConnectToPoint@WallCluster@@QAEXFF@Z 00551a5d f   walls.obj
 0001:00150a7e       ?ConnectToPoint@WallCluster@@QAEXFF_N@Z 00551a7e f   walls.obj
 0001:00150f5c       ?AddPoint@WallCluster@@QAEXFF_N@Z 00551f5c f   walls.obj
 0001:00150fbc       ?UndoSegment@WallCluster@@QAEXXZ 00551fbc f   walls.obj
 0001:0015102c       ?KeepSegment@WallCluster@@QAEXXZ 0055202c f   walls.obj
 0001:001510ba       ?SetPreviousSegment@WallCluster@@QAEXXZ 005520ba f   walls.obj
 0001:00151118       ?CreateSprites@WallCluster@@QAEXXZ 00552118 f   walls.obj
 0001:001513aa       ?CreateData@WallCluster@@QAEHPAGG@Z 005523aa f   walls.obj
 0001:00151478       ?SendSelectedToWork@WallCluster@@QAEXEE@Z 00552478 f   walls.obj
 0001:0015162e       ?CreateByData@WallCluster@@QAEXPAG@Z 0055262e f   walls.obj
 0001:00151744       ??0WallSystem@@QAE@XZ      00552744 f   walls.obj
 0001:001517be       ??1WallSystem@@QAE@XZ      005527be f   walls.obj
 0001:001518bf       ?AddCluster@WallSystem@@QAEXPAVWallCluster@@@Z 005528bf f   walls.obj
 0001:00151a72       ?Show@WallSystem@@QAEXXZ   00552a72 f   walls.obj
 0001:00151abd       ?GetLockData@@YAPADE@Z     00552abd f   walls.obj
 0001:00151b71       ?CheckPosition@WallCell@@QAE_NXZ 00552b71 f   walls.obj
 0001:00151ce0       ?GetLockStatus@WallCell@@QAEHXZ 00552ce0 f   walls.obj
 0001:00151de3       ?SetLockStatus@WallCell@@QAEXXZ 00552de3 f   walls.obj
 0001:00151ef5       ?ClearLocking@WallCell@@QAEXXZ 00552ef5 f   walls.obj
 0001:00151fe9       ?StandOnLand@WallCell@@QAE_NPAVWallCluster@@@Z 00552fe9 f   walls.obj
 0001:00152280       ?CreateLocking@WallCell@@QAEXPAVWallCluster@@@Z 00553280 f   walls.obj
 0001:001523af       ?Landing@WallCell@@QAEXPAVWallCluster@@@Z 005533af f   walls.obj
 0001:0015259e       ?WallBuildStage@@YAXPAVWallCell@@@Z 0055359e f   walls.obj
 0001:0015273f       ?SetCellLife@@YAXHHH_N@Z   0055373f f   walls.obj
 0001:00152843       ?SetLife@@YAXPAVWallCell@@H@Z 00553843 f   walls.obj
 0001:00152b8e       ?LoadWallSprites@@YAXPAD0G@Z 00553b8e f   walls.obj
 0001:00152bd5       ?LoadAllWalls@@YAXXZ       00553bd5 f   walls.obj
 0001:001534a0       ?GetWallType@@YAHPAD@Z     005544a0 f   walls.obj
 0001:001534ec       ?View@WallCluster@@QAEXXZ  005544ec f   walls.obj
 0001:001542ed       ?Preview@WallCluster@@QAEXXZ 005552ed f   walls.obj
 0001:001545af       ?SetWallBuildMode@@YAXEG@Z 005555af f   walls.obj
 0001:00154644       ?WallHandleDraw@@YAXXZ     00555644 f   walls.obj
 0001:00154668       ?WallHandleMouse@@YAXXZ    00555668 f   walls.obj
 0001:001548c0       ?GetTopDistanceW@@YAHHHHH@Z 005558c0 f   walls.obj
 0001:00154b32       ?GetFreeCell@@YA_NPAH0HH0@Z 00555b32 f   walls.obj
 0001:00154f0b       ?FindPlaceForWallBuilder@@YA_NEPAH0HH@Z 00555f0b f   walls.obj
 0001:00155461       ?BuildWall@OneObject@@QAE_NHHEE_N@Z 00556461 f   walls.obj
 0001:001555bb       ?TempUnLock@@YAXPAVOneObject@@@Z 005565bb f   walls.obj
 0001:00155641       ?CheckSideForBuild@@YA_NEHH@Z 00556641 f   walls.obj
 0001:001556c5       ?BuildWallLink@@YAXPAVOneObject@@@Z 005566c5 f   walls.obj
 0001:00155e42       ?CheckWallClick@@YA_NHH@Z  00556e42 f   walls.obj
 0001:00155f57       ?DetermineWallClick@@YAXHH@Z 00556f57 f   walls.obj
 0001:001560a6       ?GetWTP@@YAHHH@Z           005570a6 f   walls.obj
 0001:0015610c       ?GetWTP1@@YAHHH@Z          0055710c f   walls.obj
 0001:00156163       ?SetWTP@@YAXHHHH@Z         00557163 f   walls.obj
 0001:001561ba       ?CheckGateUpgrade@@YA_NPAVOneObject@@@Z 005571ba f   walls.obj
 0001:001563e1       ?CheckOpenGate@@YA_NPAVOneObject@@@Z 005573e1 f   walls.obj
 0001:001564a0       ?CheckCloseGate@@YA_NPAVOneObject@@@Z 005574a0 f   walls.obj
 0001:00156561       ?CreateGates@@YA_NPAVOneObject@@@Z 00557561 f   walls.obj
 0001:00156a8d       ?CreateGatesLink@@YAXPAVOneObject@@@Z 00557a8d f   walls.obj
 0001:00156ce0       ?SetupGates@@YAXXZ         00557ce0 f   walls.obj
 0001:00156d19       ?InitGates@@YAXXZ          00557d19 f   walls.obj
 0001:00156d28       ?AddGate@@YAHFFE@Z         00557d28 f   walls.obj
 0001:00156ea0       ?DelGate@@YAXH@Z           00557ea0 f   walls.obj
 0001:00156eb6       ?CheckUnitsInCell@@YA_NHEHHH@Z 00557eb6 f   walls.obj
 0001:00156fc1       ?CheckNTPresence@@YA_NHHHE@Z 00557fc1 f   walls.obj
 0001:00157101       ?PlayOpenGate@@YAXPAVGate@@PAVWallCharacter@@@Z 00558101 f   walls.obj
 0001:001571b3       ?PlayCloseGate@@YAXPAVGate@@PAVWallCharacter@@@Z 005581b3 f   walls.obj
 0001:00157265       ?ControlGates@@YAXXZ       00558265 f   walls.obj
 0001:00157347       ?OpenGates@@YAXE@Z         00558347 f   walls.obj
 0001:00157799       ?CloseGates@@YAXE@Z        00558799 f   walls.obj
 0001:00157a66       ?CheckVisibility@@YA_NHHHHG@Z 00558a66 f   walls.obj
 0001:00157b61       ?SquishUnitsInCell@@YAXHEHHH@Z 00558b61 f   walls.obj
 0001:00157cad       ?SquishUnits@@YAXHHHE@Z    00558cad f   walls.obj
 0001:00157de2       ?ControlSquish@@YAXXZ      00558de2 f   walls.obj
 0001:00157e75       ?OpenCell@@YAXHH@Z         00558e75 f   walls.obj
 0001:00158238       ?CloseCell@@YAXHH@Z        00559238 f   walls.obj
 0001:00158483       ?CloseGates@@YAXPAVOneObject@@@Z 00559483 f   walls.obj
 0001:0015854a       ?OpenGates@@YAXPAVOneObject@@@Z 0055954a f   walls.obj
 0001:00158620       ??_GWallCluster@@QAEPAXI@Z 00559620 f i walls.obj
 0001:00158650       ?GetWeaponType@@YAHPAD@Z   00559650 f   Weapon.obj
 0001:001586b0       ?InitExplosions@@YAXXZ     005596b0 f   Weapon.obj
 0001:00158780       ?CloseExu@@YAXH@Z          00559780 f   Weapon.obj
 0001:001587b0       ?CloseExplosions@@YAXXZ    005597b0 f   Weapon.obj
 0001:001587e0       ?AOChar@@YAPADPAVAnmObject@@@Z 005597e0 f   Weapon.obj
 0001:001587f0       ?ExplodeAnmObject@@YAXPAVAnmObject@@@Z 005597f0 f   Weapon.obj
 0001:00158b10       ?ShowExpl@@YAXXZ           00559b10 f   Weapon.obj
 0001:00158df0       ?ProcessExpl@@YAXXZ        00559df0 f   Weapon.obj
 0001:001590c0       ?Create3DAnmObjectEX@@YA_NPAVWeapon@@HHHHHHPAVOneObject@@EGHHH@Z 0055a0c0 f   Weapon.obj
 0001:00159820       ?Create3DAnmObject@@YA_NPAVWeapon@@HHHHHHPAVOneObject@@EG@Z 0055a820 f   Weapon.obj
 0001:00159870       ?Create3DAnmObject@@YA_NPAVWeapon@@HHHHHHPAVOneObject@@@Z 0055a870 f   Weapon.obj
 0001:001598b0       ?InitChild@ChildWeapon@@QAEXXZ 0055a8b0 f   Weapon.obj
 0001:001598d0       ?CheckWpn@@YA_NPAVWeapon@@@Z 0055a8d0 f   Weapon.obj
 0001:001598f0       ?ReturnFlyChild@@YAPAVWeapon@@PAV1@@Z 0055a8f0 f   Weapon.obj
 0001:00159970       ?CheckWpPoint@@YAHHHHG@Z   0055a970 f   Weapon.obj
 0001:001599f0       ?CheckWpLine@@YAHHHHHHHG@Z 0055a9f0 f   Weapon.obj
 0001:00159af0       ?PredictShot@@YAHPAVWeapon@@HHHHHHG@Z 0055aaf0 f   Weapon.obj
 0001:00159dd0       ?TraceObjectsInLine@@YA_NHHHPAH00HPAVOneObject@@E@Z 0055add0 f   Weapon.obj
 0001:0015a18f       ??0ScenaryInterface@@QAE@XZ 0055b18f f   ActiveScenary.obj
 0001:0015a1ef       ??1ScenaryInterface@@QAE@XZ 0055b1ef f   ActiveScenary.obj
 0001:0015a202       ?HandleMission@@YAXXZ      0055b202 f   ActiveScenary.obj
 0001:0015a2bc       ?ScenaryLights@@YAXXZ      0055b2bc f   ActiveScenary.obj
 0001:0015a917       ?UnLoading@ScenaryInterface@@QAEXXZ 0055b917 f   ActiveScenary.obj
 0001:0015ac4d       ?ScenErr@@YAXPAD@Z         0055bc4d f   ActiveScenary.obj
 0001:0015acaa       ?ScenErr@@YAXPAD0@Z        0055bcaa f   ActiveScenary.obj
 0001:0015acdd       ?ScenErr@@YAXPAD00@Z       0055bcdd f   ActiveScenary.obj
 0001:0015ad14       ?GetCPos@@YAHD@Z           0055bd14 f   ActiveScenary.obj
 0001:0015ad51       ?CreateMissText@@YAXXZ     0055bd51 f   ActiveScenary.obj
 0001:0015aeed       ?ReadStr@@YAHPAD0D@Z       0055beed f   ActiveScenary.obj
 0001:0015af41       ?Load@ScenaryInterface@@QAEXPAD0@Z 0055bf41 f   ActiveScenary.obj
 0001:0015b53d       ?IntErr@@YAXPAD@Z          0055c53d f   ActiveScenary.obj
 0001:0015b5bf       ?IntErr@@YAXPAD0@Z         0055c5bf f   ActiveScenary.obj
 0001:0015b5f2       ?TestUnitsGroup@@YAXH@Z    0055c5f2 f   ActiveScenary.obj
 0001:0015b6c7       _AssignNation              0055c6c7 f   ActiveScenary.obj
 0001:0015b6f9       _RegisterUnits             0055c6f9 f   ActiveScenary.obj
 0001:0015b8a0       _RegisterString            0055c8a0 f   ActiveScenary.obj
 0001:0015b967       _RegisterSound             0055c967 f   ActiveScenary.obj
 0001:0015ba22       _RegisterVar               0055ca22 f   ActiveScenary.obj
 0001:0015baad       _RegisterZone              0055caad f   ActiveScenary.obj
 0001:0015bc4c       _RegisterVisibleZone       0055cc4c f   ActiveScenary.obj
 0001:0015bdeb       _RegisterUnitType          0055cdeb f   ActiveScenary.obj
 0001:0015be80       _RegisterUpgrade           0055ce80 f   ActiveScenary.obj
 0001:0015bf14       _SafeRegisterUpgrade       0055cf14 f   ActiveScenary.obj
 0001:0015bfa3       _InitialUpgrade            0055cfa3 f   ActiveScenary.obj
 0001:0015c179       _DisableUpgrade            0055d179 f   ActiveScenary.obj
 0001:0015c1fa       _EnableUpgrade             0055d1fa f   ActiveScenary.obj
 0001:0015c27b       _EnableUnit                0055d27b f   ActiveScenary.obj
 0001:0015c339       _RegisterFormation         0055d339 f   ActiveScenary.obj
 0001:0015c3c0       _RegisterUnitsForm         0055d3c0 f   ActiveScenary.obj
 0001:0015c3c7       _GetUnitsAmount0           0055d3c7 f   ActiveScenary.obj
 0001:0015c9cb       ?AddUnitToSelected@@YAXEPAVOneObject@@@Z 0055d9cb f   ActiveScenary.obj
 0001:0015cad1       _ShowAlarm                 0055dad1 f   ActiveScenary.obj
 0001:0015cbc6       _SelectUnitsInZone         0055dbc6 f   ActiveScenary.obj
 0001:0015d1fd       _ChangeUnitParam           0055e1fd f   ActiveScenary.obj
 0001:0015d31d       _SelectTypeOfUnitsInZone   0055e31d f   ActiveScenary.obj
 0001:0015d9b9       _GetUnitsAmount1           0055e9b9 f   ActiveScenary.obj
 0001:0015dd10       _GetUnitsAmount2           0055ed10 f   ActiveScenary.obj
 0001:0015e37a       _GetTotalAmount0           0055f37a f   ActiveScenary.obj
 0001:0015e4a6       _GetTotalAmount1           0055f4a6 f   ActiveScenary.obj
 0001:0015e53c       _GetTotalAmount2           0055f53c f   ActiveScenary.obj
 0001:0015e6c3       _GetReadyAmount            0055f6c3 f   ActiveScenary.obj
 0001:0015e759       _GetAmountOfWarriors       0055f759 f   ActiveScenary.obj
 0001:0015e847       _IsUpgradeDoing            0055f847 f   ActiveScenary.obj
 0001:0015e8da       _IsUpgradeDone             0055f8da f   ActiveScenary.obj
 0001:0015e96a       _IsUpgradeEnabled          0055f96a f   ActiveScenary.obj
 0001:0015e9fc       _GetDied                   0055f9fc f   ActiveScenary.obj
 0001:0015ea8c       _CreateObject0             0055fa8c f   ActiveScenary.obj
 0001:0015ee69       ?ImClearSelection@@YAXE@Z  0055fe69 f   ActiveScenary.obj
 0001:0015f014       ?ReClearSelection@@YAXE@Z  00560014 f   ActiveScenary.obj
 0001:0015f1bf       _ClearSelection            005601bf f   ActiveScenary.obj
 0001:0015f1dc       ?CopyReIm@@YAXE@Z          005601dc f   ActiveScenary.obj
 0001:0015f505       _SelectUnits               00560505 f   ActiveScenary.obj
 0001:0015f7ec       _SelectUnits1              005607ec f   ActiveScenary.obj
 0001:0015fb7a       _SelectUnitsType           00560b7a f   ActiveScenary.obj
 0001:0015fe60       _SelDie                    00560e60 f   ActiveScenary.obj
 0001:0015feb0       _DoMessagesBrief           00560eb0 f   ActiveScenary.obj
 0001:0015febc       _SelErase                  00560ebc f   ActiveScenary.obj
 0001:0015fef8       _SelAttackGroup            00560ef8 f   ActiveScenary.obj
 0001:00160132       _SelOpenGates              00561132 f   ActiveScenary.obj
 0001:00160182       _GetNInside                00561182 f   ActiveScenary.obj
 0001:00160275       _GetMaxInside              00561275 f   ActiveScenary.obj
 0001:0016037e       _PushUnitAway              0056137e f   ActiveScenary.obj
 0001:001604db       _PushAllUnitsAway          005614db f   ActiveScenary.obj
 0001:001605d7       _SendUnitsToTransport      005615d7 f   ActiveScenary.obj
 0001:001607b4       _CheckLeaveAbility         005617b4 f   ActiveScenary.obj
 0001:001608a2       ?SearchUnitInZone@@YAGHHHE@Z 005618a2 f   ActiveScenary.obj
 0001:00160aad       _AttackZoneByArtillery     00561aad f   ActiveScenary.obj
 0001:00160d2c       ?FindBuildingInZone@@YAGHHHHHE@Z 00561d2c f   ActiveScenary.obj
 0001:00160e4d       ?FindShipInZone@@YAGHHHE@Z 00561e4d f   ActiveScenary.obj
 0001:00160f52       ?SearchUnitInCell@@YAPAVOneObject@@HE@Z 00561f52 f   ActiveScenary.obj
 0001:00161014       ?SearchShipInCell@@YAPAVOneObject@@HE@Z 00562014 f   ActiveScenary.obj
 0001:001610ec       ?SearchBuildingInCell@@YAPAVOneObject@@HE@Z 005620ec f   ActiveScenary.obj
 0001:00161166       ?TryToFindEnemy@@YAPAVOneObject@@HHHHE@Z 00562166 f   ActiveScenary.obj
 0001:00161466       _AttackBuildingsInZone     00562466 f   ActiveScenary.obj
 0001:001616bf       _ProduceOneUnit            005626bf f   ActiveScenary.obj
 0001:00161703       _SelCloseGates             00562703 f   ActiveScenary.obj
 0001:00161753       _SelSendTo                 00562753 f   ActiveScenary.obj
 0001:00161861       _SelSendAndKill            00562861 f   ActiveScenary.obj
 0001:00161978       _Patrol                    00562978 f   ActiveScenary.obj
 0001:00161a76       _ChangeFriends             00562a76 f   ActiveScenary.obj
 0001:00161b2c       _SelChangeNation           00562b2c f   ActiveScenary.obj
 0001:00161d57       _SelAutoKill               00562d57 f   ActiveScenary.obj
 0001:00161e3b       _SetStandGround            00562e3b f   ActiveScenary.obj
 0001:00161ea2       _AllowAttack               00562ea2 f   ActiveScenary.obj
 0001:00161f0d       _HINT                      00562f0d f   ActiveScenary.obj
 0001:00161f69       _DisableMission            00562f69 f   ActiveScenary.obj
 0001:00161f86       _EnableMission             00562f86 f   ActiveScenary.obj
 0001:00161fa3       _SetVictoryText            00562fa3 f   ActiveScenary.obj
 0001:00161ff8       _SetLooseText              00562ff8 f   ActiveScenary.obj
 0001:0016204d       _ShowVictory               0056304d f   ActiveScenary.obj
 0001:001620b4       _LooseGame                 005630b4 f   ActiveScenary.obj
 0001:00162104       _ShowCentralText           00563104 f   ActiveScenary.obj
 0001:00162123       ?AddHistory@@YAXPAVNation@@PAD@Z 00563123 f   ActiveScenary.obj
 0001:001621c1       _ShowPage                  005631c1 f   ActiveScenary.obj
 0001:00162284       _ShowPageParam             00563284 f   ActiveScenary.obj
 0001:001623cc       _AskQuestion               005633cc f   ActiveScenary.obj
 0001:001624cf       _AskComplexQuestion        005634cf f   ActiveScenary.obj
 0001:00162659       ?RetryCQuest@@YAXXZ        00563659 f   ActiveScenary.obj
 0001:001626cf       ?ShowHistory@@YAXXZ        005636cf f   ActiveScenary.obj
 0001:0016285f       _GetResource               0056385f f   ActiveScenary.obj
 0001:001628cf       _AddResource               005638cf f   ActiveScenary.obj
 0001:001629af       _SetResource               005639af f   ActiveScenary.obj
 0001:00162a65       _GetUnitCost               00563a65 f   ActiveScenary.obj
 0001:00162b28       _GetUpgradeCost            00563b28 f   ActiveScenary.obj
 0001:00162bf5       _Trigg                     00563bf5 f   ActiveScenary.obj
 0001:00162c3e       _SetTrigg                  00563c3e f   ActiveScenary.obj
 0001:00162c8b       _WTrigg                    00563c8b f   ActiveScenary.obj
 0001:00162cd5       _SetWTrigg                 00563cd5 f   ActiveScenary.obj
 0001:00162d22       _RunAI                     00563d22 f   ActiveScenary.obj
 0001:00162f07       _RunAIWithPeasants         00563f07 f   ActiveScenary.obj
 0001:00163076       _RunTimer                  00564076 f   ActiveScenary.obj
 0001:001630d4       _TimerDone                 005640d4 f   ActiveScenary.obj
 0001:00163147       _TimerDoneFirst            00564147 f   ActiveScenary.obj
 0001:001631be       _TimerIsEmpty              005641be f   ActiveScenary.obj
 0001:00163217       _FreeTimer                 00564217 f   ActiveScenary.obj
 0001:00163276       _GetTime                   00564276 f   ActiveScenary.obj
 0001:001632c5       _GetGlobalTime             005642c5 f   ActiveScenary.obj
 0001:001632cf       _UnitsCenter               005642cf f   ActiveScenary.obj
 0001:00163450       _RefreshScreen             00564450 f   ActiveScenary.obj
 0001:0016345f       _SelCenter                 0056445f f   ActiveScenary.obj
 0001:001635f6       _CreateZoneNearUnit        005645f6 f   ActiveScenary.obj
 0001:001638c4       _CreateZoneNearGroup       005648c4 f   ActiveScenary.obj
 0001:00163af5       _SetLightSpot              00564af5 f   ActiveScenary.obj
 0001:00163bff       _ClearLightSpot            00564bff f   ActiveScenary.obj
 0001:00163c70       _SetStartPoint             00564c70 f   ActiveScenary.obj
 0001:00163d95       _AttackEnemyInZone         00564d95 f   ActiveScenary.obj
 0001:0016485a       _GetMyNation               0056585a f   ActiveScenary.obj
 0001:0016486b       _GetTopDst                 0056586b f   ActiveScenary.obj
 0001:001649be       _StartAI                   005659be f   ActiveScenary.obj
 0001:00164a84       ?StartAIEx@@YAXEPADHHHH@Z  00565a84 f   ActiveScenary.obj
 0001:00164fbb       _DoNotUseSelInAI           00565fbb f   ActiveScenary.obj
 0001:001650b9       _SetTutorial               005660b9 f   ActiveScenary.obj
 0001:001650cb       _GetQuestPressed           005660cb f   ActiveScenary.obj
 0001:00165109       _SetAIProperty             00566109 f   ActiveScenary.obj
 0001:00165282       _AskMultilineQuestion      00566282 f   ActiveScenary.obj
 0001:00165364       _SetReadyState             00566364 f   ActiveScenary.obj
 0001:00165481       _TakeFood                  00566481 f   ActiveScenary.obj
 0001:001655db       _TakeWood                  005665db f   ActiveScenary.obj
 0001:00165735       _TakeStone                 00566735 f   ActiveScenary.obj
 0001:0016588f       _RepairBuildingsBySel      0056688f f   ActiveScenary.obj
 0001:001659d4       _CheckBuildingsComplete    005669d4 f   ActiveScenary.obj
 0001:00165b23       _GetKilled                 00566b23 f   ActiveScenary.obj
 0001:00165c47       _GetUnitsByNation          00566c47 f   ActiveScenary.obj
 0001:00165d73       _ProduceUnit               00566d73 f   ActiveScenary.obj
 0001:00165ed4       _ProduceUnitFast           00566ed4 f   ActiveScenary.obj
 0001:00166043       ?AddOneUnitToGroup@@YAXPAUGAMEOBJ@@PAVOneObject@@@Z 00567043 f   ActiveScenary.obj
 0001:00166167       _SaveSelectedUnits         00567167 f   ActiveScenary.obj
 0001:00166315       _CheckProduction           00567315 f   ActiveScenary.obj
 0001:00166441       _CreateBuilding            00567441 f   ActiveScenary.obj
 0001:001666a6       _SetDestPoint              005676a6 f   ActiveScenary.obj
 0001:001668a9       _RegisterDynGroup          005678a9 f   ActiveScenary.obj
 0001:00166948       _GetNUnits                 00567948 f   ActiveScenary.obj
 0001:0016697e       _GetUnitInfo               0056797e f   ActiveScenary.obj
 0001:00166b57       _SetUnitInfo               00567b57 f   ActiveScenary.obj
 0001:00166c10       _RemoveGroup               00567c10 f   ActiveScenary.obj
 0001:00166e5f       ?AIER@@YAXPAD@Z            00567e5f f   ActiveScenary.obj
 0001:00166e98       ?AI_Error@@YAXXZ           00567e98 f   ActiveScenary.obj
 0001:00166eaa       _GetAINation               00567eaa f   ActiveScenary.obj
 0001:00166eca       _TryUnit                   00567eca f   ActiveScenary.obj
 0001:00167105       _TryUpgrade                00568105 f   ActiveScenary.obj
 0001:00167265       _SetMineBalanse            00568265 f   ActiveScenary.obj
 0001:0016729b       _SetPDistribution          0056829b f   ActiveScenary.obj
 0001:001672de       _AssignAmountOfMineUpgrades 005682de f   ActiveScenary.obj
 0001:001673e4       _AssignMineUpgrade         005683e4 f   ActiveScenary.obj
 0001:00167501       ?GETUID@@YAHPAD@Z          00568501 f   ActiveScenary.obj
 0001:00167580       _AssignMine                00568580 f   ActiveScenary.obj
 0001:001675cf       _AssignPeasant             005685cf f   ActiveScenary.obj
 0001:0016761e       _AssignHouse               0056861e f   ActiveScenary.obj
 0001:00167743       _AssignWall                00568743 f   ActiveScenary.obj
 0001:00167792       _SET_MINE_CAPTURE_RADIUS   00568792 f   ActiveScenary.obj
 0001:001677ba       _SET_MINE_UPGRADE1_RADIUS  005687ba f   ActiveScenary.obj
 0001:001677e2       _SET_MINE_UPGRADE2_RADIUS  005687e2 f   ActiveScenary.obj
 0001:0016780a       _SET_DEFAULT_MAX_WORKERS   0056880a f   ActiveScenary.obj
 0001:00167832       _SET_MIN_PEASANT_BRIGADE   00568832 f   ActiveScenary.obj
 0001:0016785a       _GetMoney                  0056885a f   ActiveScenary.obj
 0001:001678a4       _GetUnits                  005688a4 f   ActiveScenary.obj
 0001:001678f4       _GetUnitsByUsage           005688f4 f   ActiveScenary.obj
 0001:001679da       _AI_Torg                   005689da f   ActiveScenary.obj
 0001:00167a17       _GetTorgResult             00568a17 f   ActiveScenary.obj
 0001:00167a47       _GetReadyUnits             00568a47 f   ActiveScenary.obj
 0001:00167a97       _SetUpgradeLock            00568a97 f   ActiveScenary.obj
 0001:00167ac2       _SetDefSettings            00568ac2 f   ActiveScenary.obj
 0001:00167af6       _GetMaxPeasantsInMines     00568af6 f   ActiveScenary.obj
 0001:00167bad       _UpgIsDone                 00568bad f   ActiveScenary.obj
 0001:00167bfd       _UpgIsRun                  00568bfd f   ActiveScenary.obj
 0001:00167c98       _SetMinesBuildingRules     00568c98 f   ActiveScenary.obj
 0001:00167cae       _SetMinesUpgradeRules      00568cae f   ActiveScenary.obj
 0001:00167e99       _FieldExist                00568e99 f   ActiveScenary.obj
 0001:00167ea9       _GetDifficulty             00568ea9 f   ActiveScenary.obj
 0001:00167ebd       _GetStartRes               00568ebd f   ActiveScenary.obj
 0001:00167ed1       _GetDiff                   00568ed1 f   ActiveScenary.obj
 0001:00167eee       _GetResOnMap               00568eee f   ActiveScenary.obj
 0001:00167f02       _GetLandType               00568f02 f   ActiveScenary.obj
 0001:00167f16       _SetStandartVictory        00568f16 f   ActiveScenary.obj
 0001:00167f22       _NationIsErased            00568f22 f   ActiveScenary.obj
 0001:001680ba       _AssignFormUnit            005690ba f   ActiveScenary.obj
 0001:0016813f       _SetPlayerName             0056913f f   ActiveScenary.obj
 0001:001681c4       _GetMaxPeaceTime           005691c4 f   ActiveScenary.obj
 0001:001681d6       _GetPeaceTimeLeft          005691d6 f   ActiveScenary.obj
 0001:001681e0       _GetRandomIndex            005691e0 f   ActiveScenary.obj
 0001:001682e0       _SetAIRegister             005692e0 f   ActiveScenary.obj
 0001:0016830f       _GetAIRegister             0056930f f   ActiveScenary.obj
 0001:0016833f       _GetExtraction             0056933f f   ActiveScenary.obj
 0001:00168431       _SetDefenseState           00569431 f   ActiveScenary.obj
 0001:0016845a       ?ReadWinString@@YA_NPAVGFILE@@PADH@Z 0056945a f   ActiveScenary.obj
 0001:001684f0       ?ErrM@@YAXPAD0@Z           005694f0 f   ActiveScenary.obj
 0001:00168571       ?LoadMissions@MissPack@@QAEXXZ 00569571 f   ActiveScenary.obj
 0001:00168b8f       ??0MissPack@@QAE@XZ        00569b8f f   ActiveScenary.obj
 0001:00168bfe       ??1MissPack@@QAE@XZ        00569bfe f   ActiveScenary.obj
 0001:00168d89       ?InvCamp@@YAXXZ            00569d89 f   ActiveScenary.obj
 0001:00168d9b       ??0CampaginPack@@QAE@XZ    00569d9b f   ActiveScenary.obj
 0001:00169347       ??1CampaginPack@@QAE@XZ    0056a347 f   ActiveScenary.obj
 0001:001693f5       ?LoadAIFromDLL@@YAXEPAD@Z  0056a3f5 f   ActiveScenary.obj
 0001:001695ed       ?SavePlayerData@@YAXPAD@Z  0056a5ed f   ActiveScenary.obj
 0001:00169725       ?SavePlayerData@@YAXXZ     0056a725 f   ActiveScenary.obj
 0001:00169737       ?SFLB_LoadPDATA@@YAXPAD@Z  0056a737 f   ActiveScenary.obj
 0001:001698b0       ?SFLB_LoadPlayerData@@YAXXZ 0056a8b0 f   ActiveScenary.obj
 0001:00169919       ?InvBatt@@YAXXZ            0056a919 f   ActiveScenary.obj
 0001:0016992b       ?InvWar@@YAXXZ             0056a92b f   ActiveScenary.obj
 0001:0016993d       ??0WarPack@@QAE@XZ         0056a93d f   ActiveScenary.obj
 0001:0016a417       ??1WarPack@@QAE@XZ         0056b417 f   ActiveScenary.obj
 0001:0016a62a       _MissErrorMessage          0056b62a f   ActiveScenary.obj
 0001:0016a646       _RunMapeditor              0056b646 f   ActiveScenary.obj
 0001:0016a663       _RunUserMission            0056b663 f   ActiveScenary.obj
 0001:0016a680       _GetUnitExCaps             0056b680 f   ActiveScenary.obj
 0001:0016a794       _InsertUnitToGroup         0056b794 f   ActiveScenary.obj
 0001:0016a9b9       _RemoveUnitFromGroup       0056b9b9 f   ActiveScenary.obj
 0001:0016aa85       _GetZoneCoor               0056ba85 f   ActiveScenary.obj
 0001:0016ab1b       _PastePiece                0056bb1b f   ActiveScenary.obj
 0001:0016ab64       _SelectBuildingsInZone     0056bb64 f   ActiveScenary.obj
 0001:0016adc0       ?Draw3DRound@@YAXHHH@Z     0056bdc0 f   ActiveZone.obj
 0001:0016ae91       ?Draw@ActiveZone@@QAEXXZ   0056be91 f   ActiveZone.obj
 0001:0016b0d8       ?DrawAZones@@YAXXZ         0056c0d8 f   ActiveZone.obj
 0001:0016b117       ?CreateNewZone@@YAHPADHHH@Z 0056c117 f   ActiveZone.obj
 0001:0016b1fc       ?DeleteAZone@@YAXH@Z       0056c1fc f   ActiveZone.obj
 0001:0016b27a       ?DelCurrentAZone@@YA_NXZ   0056c27a f   ActiveZone.obj
 0001:0016b2b8       ?ControlAZones@@YAXHH@Z    0056c2b8 f   ActiveZone.obj
 0001:0016b748       ?Draw@ActiveGroup@@QAEXE@Z 0056c748 f   ActiveZone.obj
 0001:0016baa2       ?DrawAGroups@@YAXXZ        0056caa2 f   ActiveZone.obj
 0001:0016bb06       ?CreateNewActiveGroup@@YAXPAD@Z 0056cb06 f   ActiveZone.obj
 0001:0016bcaf       ?ProcessAGroups@@YAXHH@Z   0056ccaf f   ActiveZone.obj
 0001:0016bd5a       ?DeleteActiveGroup@@YA_NXZ 0056cd5a f   ActiveZone.obj
 0001:0016bdf4       ?DrawMinAZones@@YAXHH@Z    0056cdf4 f   ActiveZone.obj
 0001:0016bf45       ?DrawMinAZonesVis@@YAXHH@Z 0056cf45 f   ActiveZone.obj
 0001:0016c02b       ?ClearAllZones@@YAXXZ      0056d02b f   ActiveZone.obj
 0001:0016c169       ?RefreshGroup@@YAXPAVActiveGroup@@@Z 0056d169 f   ActiveZone.obj
 0001:0016c2a2       ?RefreshAGroups@@YAXXZ     0056d2a2 f   ActiveZone.obj
 0001:0016c310       ?GetSum@CSum@@QAEXPAXH@Z   0056d310 f   AntiBug.obj
 0001:0016c339       ?GetSum@CSum@@QAEXXZ       0056d339 f   AntiBug.obj
 0001:0016c386       ?ChkSum@CSum@@QAE_NXZ      0056d386 f   AntiBug.obj
 0001:0016c3d8       ?ADDSUMM@@YAXPAXH@Z        0056d3d8 f   AntiBug.obj
 0001:0016c413       ?GETALL@@YAXXZ             0056d413 f   AntiBug.obj
 0001:0016c44b       ?CheckAsks@@YAXXZ          0056d44b f   AntiBug.obj
 0001:0016c496       ?AddCS@@YAXPAXH@Z          0056d496 f   AntiBug.obj
 0001:0016c4c4       ?CHKALL@@YAXXZ             0056d4c4 f   AntiBug.obj
 0001:0016c4c9       ?SetSumms@@YAXXZ           0056d4c9 f   AntiBug.obj
 0001:0016c4e0       ?sprintAttack@@YAXPAVAdvCharacter@@PAD@Z 0056d4e0 f   Report.obj
 0001:0016c621       ?sprintAttackInComparison@@YAXPAVAdvCharacter@@0PAD@Z 0056d621 f   Report.obj
 0001:0016c742       ?sprintShield@@YAXPAVAdvCharacter@@PAD@Z 0056d742 f   Report.obj
 0001:0016c885       ?sprintShieldInComp@@YAXPAVAdvCharacter@@0PAD@Z 0056d885 f   Report.obj
 0001:0016ca13       ?PrintAttackUpgrades@@YAXPAVNation@@HPAVAdvCharacter@@PAVGFILE@@@Z 0056da13 f   Report.obj
 0001:0016cd40       ?PrintShieldUpgrades@@YAXPAVNation@@HPAVAdvCharacter@@PAVGFILE@@@Z 0056dd40 f   Report.obj
 0001:0016d03c       ?MakeReportOnUnit@@YAXPAVNation@@HPAVGFILE@@@Z 0056e03c f   Report.obj
 0001:0016d387       ?sprintBriefAttack@@YAXPAVAdvCharacter@@PAD@Z 0056e387 f   Report.obj
 0001:0016d4a5       ?sprintBriefAttackInComparison@@YAXPAVAdvCharacter@@0PAD@Z 0056e4a5 f   Report.obj
 0001:0016d5c6       ?sprintBriefShield@@YAXPAVAdvCharacter@@PAD@Z 0056e5c6 f   Report.obj
 0001:0016d709       ?sprintBriefShieldInComp@@YAXPAVAdvCharacter@@0PAD@Z 0056e709 f   Report.obj
 0001:0016d779       ?PrintBriefAttackUpgrades@@YAXPAVNation@@HPAVAdvCharacter@@PAVGFILE@@@Z 0056e779 f   Report.obj
 0001:0016dac1       ?PrintBriefShieldUpgrades@@YAXPAVNation@@HPAVAdvCharacter@@PAVGFILE@@@Z 0056eac1 f   Report.obj
 0001:0016ddea       ?MakeBriefReport@@YAXPAVNation@@HPAVGFILE@@@Z 0056edea f   Report.obj
 0001:0016e1a9       ?MakeGlobalReport@@YAXXZ   0056f1a9 f   Report.obj
 0001:0016e2b0       ?LoadF@@YAPAXPAD@Z         0056f2b0 f   UnRar.obj
 0001:0016e308       ?LoadRARLib@@YAXXZ         0056f308 f   UnRar.obj
 0001:0016e3ba       ?CloseRARLib@@YAXXZ        0056f3ba f   UnRar.obj
 0001:0016e3d4       ?ExtractArchive@@YAXPADH0@Z 0056f3d4 f   UnRar.obj
 0001:0016e503       ?ListArchive@@YAXPAD@Z     0056f503 f   UnRar.obj
 0001:0016e65f       ?ShowComment@@YAXPAD@Z     0056f65f f   UnRar.obj
 0001:0016e675       ?OutHelp@@YAXXZ            0056f675 f   UnRar.obj
 0001:0016e6c8       ?OutOpenArchiveError@@YAXHPAD@Z 0056f6c8 f   UnRar.obj
 0001:0016e749       ?OutProcessFileError@@YAXH@Z 0056f749 f   UnRar.obj
 0001:0016e80a       ?ChangeVolProc@@YAHPADH@Z  0056f80a f   UnRar.obj
 0001:0016e898       ?ProcessDataProc@@YAHPAEH@Z 0056f898 f   UnRar.obj
 0001:0016e8d3       _RAROpenArchive@4          0056f8d3 f   UnRar.obj
 0001:0016e8e4       _RARCloseArchive@4         0056f8e4 f   UnRar.obj
 0001:0016e8f5       _RARReadHeader@8           0056f8f5 f   UnRar.obj
 0001:0016e90a       _RARProcessFile@16         0056f90a f   UnRar.obj
 0001:0016e927       _RARSetChangeVolProc@8     0056f927 f   UnRar.obj
 0001:0016e93c       _RARSetProcessDataProc@8   0056f93c f   UnRar.obj
 0001:0016e951       _RARSetPassword@8          0056f951 f   UnRar.obj
 0001:0016e970       ?CleanRec@@YAXXZ           0056f970 f   UnSyncro.obj
 0001:0016e975       ?WriteRec@@YAXPAD@Z        0056f975 f   UnSyncro.obj
 0001:0016eaaa       ??0Syncro@@QAE@XZ          0056faaa f   UnSyncro.obj
 0001:0016eab8       ??1Syncro@@QAE@XZ          0056fab8 f   UnSyncro.obj
 0001:0016eac3       ?Save@Syncro@@QAEXXZ       0056fac3 f   UnSyncro.obj
 0001:0016ecef       ?Clear@Syncro@@QAEXXZ      0056fcef f   UnSyncro.obj
 0001:0016ecfa       ?its@@YAPADH@Z             0056fcfa f   UnSyncro.obj
 0001:0016ed06       ?Copy@Syncro@@QAEXPAV1@@Z  0056fd06 f   UnSyncro.obj
 0001:0016edc1       ?RandNew@@YAHPADH@Z        0056fdc1 f   UnSyncro.obj
 0001:0016ee6a       ?AddRandNew@@YAXPADHH@Z    0056fe6a f   UnSyncro.obj
 0001:0016eef7       ?AddUN@@YAXPADHHH@Z        0056fef7 f   UnSyncro.obj
 0001:0016ef90       ?CreateDirSound@CDirSound@@QAEXPAUHWND__@@@Z 0056ff90 f   Cdirsnd.obj
 0001:0016f0f4       ??1CDirSound@@QAE@XZ       005700f4 f   Cdirsnd.obj
 0001:0016f10f       ?ReleaseAll@CDirSound@@IAEXXZ 0057010f f   Cdirsnd.obj
 0001:0016f189       ?CreateSoundBuffer@CDirSound@@QAEIPAVCWave@@@Z 00570189 f   Cdirsnd.obj
 0001:0016f250       ?DuplicateSoundBuffer@CDirSound@@QAEII@Z 00570250 f   Cdirsnd.obj
 0001:0016f2eb       ?CopyWaveToBuffer@CDirSound@@QAEHPAVCWave@@I@Z 005702eb f   Cdirsnd.obj
 0001:0016f3a8       ?DirectSoundOK@CDirSound@@QAEHXZ 005703a8 f   Cdirsnd.obj
 0001:0016f3c4       ?PlaySoundA@CDirSound@@QAEHI@Z 005703c4 f   Cdirsnd.obj
 0001:0016f444       ?PlayCoorSound@CDirSound@@QAEHIHH@Z 00570444 f   Cdirsnd.obj
 0001:0016f4e8       ?ControlPan@CDirSound@@QAEXI@Z 005704e8 f   Cdirsnd.obj
 0001:0016f59a       ?SetVolume@CDirSound@@QAEXIH@Z 0057059a f   Cdirsnd.obj
 0001:0016f5dc       ?SetPan@CDirSound@@QAEXIH@Z 005705dc f   Cdirsnd.obj
 0001:0016f61e       ?ProcessSoundSystem@CDirSound@@QAEXXZ 0057061e f   Cdirsnd.obj
 0001:0016f666       ?StopSound@CDirSound@@QAEHI@Z 00570666 f   Cdirsnd.obj
 0001:0016f6b8       ?GetPos@CDirSound@@QAEHI@Z 005706b8 f   Cdirsnd.obj
 0001:0016f704       ?IsPlaying@CDirSound@@QAE_NI@Z 00570704 f   Cdirsnd.obj
 0001:0016f780       ??0CWave@@QAE@PAD@Z        00570780 f   Cwave.obj
 0001:0016f7bf       ??1CWave@@QAE@XZ           005707bf f   Cwave.obj
 0001:0016f7f2       ?LoadWaveFile@CWave@@IAEHPAD@Z 005707f2 f   Cwave.obj
 0001:0016f946       ?GetWaveSize@CWave@@QAEKXZ 00570946 f   Cwave.obj
 0001:0016f956       ?GetWaveFormatPtr@CWave@@QAEPAUtWAVEFORMATEX@@XZ 00570956 f   Cwave.obj
 0001:0016f967       ?GetWaveDataPtr@CWave@@QAEPADXZ 00570967 f   Cwave.obj
 0001:0016f978       ?WaveOK@CWave@@QAEHXZ      00570978 f   Cwave.obj
 0001:0016f990       ??0CDeviceCD@@QAE@XZ       00570990 f   DeviceCD.obj
 0001:0016fa2d       ??1CDeviceCD@@UAE@XZ       00570a2d f   DeviceCD.obj
 0001:0016fa49       ?Open@CDeviceCD@@QAE_NXZ   00570a49 f   DeviceCD.obj
 0001:0016faea       ?Close@CDeviceCD@@QAE_NXZ  00570aea f   DeviceCD.obj
 0001:0016fb4c       ?Pause@CDeviceCD@@QAE_NXZ  00570b4c f   DeviceCD.obj
 0001:0016fb9d       ?Resume@CDeviceCD@@QAE_NXZ 00570b9d f   DeviceCD.obj
 0001:0016fbee       ?Stop@CDeviceCD@@QAE_NXZ   00570bee f   DeviceCD.obj
 0001:0016fc3f       ?GetVolume@CDeviceCD@@QAEKXZ 00570c3f f   DeviceCD.obj
 0001:0016fca3       ?SetVolume@CDeviceCD@@QAE_NK@Z 00570ca3 f   DeviceCD.obj
 0001:0016fd0e       ?Play@CDeviceCD@@QAE_NK@Z  00570d0e f   DeviceCD.obj
 0001:0016fd90       ?CD_MCINotify@@YAJIJ@Z     00570d90 f   DeviceCD.obj
 0001:0016fe57       ?PlayCDTrack@@YAXH@Z       00570e57 f   DeviceCD.obj
 0001:0016fe6a       ?PlayRandomTrack@@YAXXZ    00570e6a f   DeviceCD.obj
 0001:0016ff1a       ?StopPlayCD@@YAXXZ         00570f1a f   DeviceCD.obj
 0001:0016ff29       ?GetCDVolume@@YAHXZ        00570f29 f   DeviceCD.obj
 0001:0016ff3e       ?SetCDVolume@@YAXH@Z       00570f3e f   DeviceCD.obj
 0001:0016ff60       ??_ECDeviceCD@@UAEPAXI@Z   00570f60 f i DeviceCD.obj
 0001:0016ff60       ??_GCDeviceCD@@UAEPAXI@Z   00570f60 f i DeviceCD.obj
 0001:0016ff90       ?Errs@@YAXPBD@Z            00570f90 f   GameSound.obj
 0001:0016ffc7       ?srando@@YAHXZ             00570fc7 f   GameSound.obj
 0001:0016fff9       ?LoadSounds@@YAXPAD@Z      00570ff9 f   GameSound.obj
 0001:001704b4       ?PlayEffect@@YAXHHH@Z      005714b4 f   GameSound.obj
 0001:001705f2       ?PlayCoorEffect@@YAXHHHHH@Z 005715f2 f   GameSound.obj
 0001:00170739       ?PlaySingleEffect@@YAXHHH@Z 00571739 f   GameSound.obj
 0001:001708c6       ?PrepareSound@@YAXXZ       005718c6 f   GameSound.obj
 0001:00170992       ?AddEffectV@@YAXHHHH@Z     00571992 f   GameSound.obj
 0001:00170b07       ?AddEffect@@YAXHHH@Z       00571b07 f   GameSound.obj
 0001:00170b22       ?AddUnlimitedEffect@@YAXHHH@Z 00571b22 f   GameSound.obj
 0001:00170beb       ?AddSingleEffect@@YAXHHH@Z 00571beb f   GameSound.obj
 0001:00170d2c       ?AddWarEffect@@YAXHHH@Z    00571d2c f   GameSound.obj
 0001:00170e94       ?AddWorkEffect@@YAXHHH@Z   00571e94 f   GameSound.obj
 0001:00171002       ?AddOrderEffect@@YAXHHH@Z  00572002 f   GameSound.obj
 0001:00171170       ?AddTEffect@@YAXHHH@Z      00572170 f   GameSound.obj
 0001:001711dd       ?CloseSoundSystem@@YAXXZ   005721dd f   GameSound.obj
 0001:001711f0       ?SetLastVolume@CDirSound@@QAEXF@Z 005721f0 f i GameSound.obj
 0001:00171220       ?ZeroAll@CMixer@@IAEXXZ    00572220 f   TMixer.obj
 0001:0017125d       ??0CMixer@@QAE@KKK@Z       0057225d f   TMixer.obj
 0001:00171442       ??0CMixer@@QAE@PAUHWND__@@KKK@Z 00572442 f   TMixer.obj
 0001:0017162c       ??1CMixer@@UAE@XZ          0057262c f   TMixer.obj
 0001:00171656       ?GetControlValue@CMixer@@QAEKXZ 00572656 f   TMixer.obj
 0001:001716da       ?SetControlValue@CMixer@@QAEHK@Z 005726da f   TMixer.obj
 0001:0017179e       ?On@CMixer@@QAEHXZ         0057279e f   TMixer.obj
 0001:001717b3       ?Off@CMixer@@QAEHXZ        005727b3 f   TMixer.obj
 0001:001717d0       ??_GCMixer@@UAEPAXI@Z      005727d0 f i TMixer.obj
 0001:001717d0       ??_ECMixer@@UAEPAXI@Z      005727d0 f i TMixer.obj
 0001:00171800       ?TeleLink@@YAXPAVOneObject@@@Z 00572800 f   Navorots.obj
 0001:00171805       ?SetDstPoint@OneObject@@QAEXHH@Z 00572805 f   Navorots.obj
 0001:00171847       ?InitDestn@@YAXXZ          00572847 f   Navorots.obj
 0001:00171856       ?AddDestn@@YAXHH@Z         00572856 f   Navorots.obj
 0001:00171895       ?miniShowDestn@@YAXXZ      00572895 f   Navorots.obj
 0001:001719a7       ?ShowDestn@@YAXXZ          005729a7 f   Navorots.obj
 0001:00171b10       ?ShowMiniDestn@@YAXXZ      00572b10 f   Navorots.obj
 0001:00171c3e       ?PerformAction@@YAXPAVOneObject@@HH@Z 00572c3e f   Navorots.obj
 0001:00171c43       ??0GreenPulse@@QAE@XZ      00572c43 f   Navorots.obj
 0001:00171cd5       ?AddObj@GreenPulse@@QAEXGE@Z 00572cd5 f   Navorots.obj
 0001:00171d57       ?AddXY@GreenPulse@@QAEXHH@Z 00572d57 f   Navorots.obj
 0001:00171dd9       ?Clear@GreenPulse@@QAEXXZ  00572dd9 f   Navorots.obj
 0001:00171e94       ?Show@GreenPulse@@QAEXXZ   00572e94 f   Navorots.obj
 0001:001720f3       ?InitPulse@@YAXXZ          005730f3 f   Navorots.obj
 0001:00172102       ?AddPulse@@YAXGE@Z         00573102 f   Navorots.obj
 0001:0017211a       ?AddXYPulse@@YAXHH@Z       0057311a f   Navorots.obj
 0001:00172131       ?ShowPulse@@YAXXZ          00573131 f   Navorots.obj
 0001:00172140       ?HealDoubleUnits@@YA_NXZ   00573140 f   Navorots.obj
 0001:00172220       ?CheckUnits@@YAXXZ         00573220 f   Navorots.obj
 0001:0017230a       ?SetupNatList@@YAXXZ       0057330a f   Navorots.obj
 0001:00172367       ?InitNatList@@YAXXZ        00573367 f   Navorots.obj
 0001:001723a1       ?AddObject@@YAXPAVOneObject@@@Z 005733a1 f   Navorots.obj
 0001:0017248f       ?DelObject@@YAXPAVOneObject@@@Z 0057348f f   Navorots.obj
 0001:00172560       ??0HugeExplosion@@QAE@XZ   00573560 f   Nuclear.obj
 0001:00172574       ?CreateExpl@HugeExplosion@@QAEXHHHHH@Z 00573574 f   Nuclear.obj
 0001:00172627       ?HandleExpl@HugeExplosion@@QAEXXZ 00573627 f   Nuclear.obj
 0001:00172654       ?AddHugExp@@YAXHHHHH@Z     00573654 f   Nuclear.obj
 0001:001726b3       ?HandleHExpls@@YAXXZ       005736b3 f   Nuclear.obj
 0001:001726f0       _ArrayNew                  005736f0 f   darray.obj
 0001:001727af       _ArrayFree                 005737af f   darray.obj
 0001:00172842       _ArrayLength               00573842 f   darray.obj
 0001:0017284c       _ArrayNth                  0057384c f   darray.obj
 0001:00172885       _ArrayAppend               00573885 f   darray.obj
 0001:001728a0       _ArrayInsertAt             005738a0 f   darray.obj
 0001:001729d3       _ArrayRemoveAt             005739d3 f   darray.obj
 0001:00172a59       _ArrayDeleteAt             00573a59 f   darray.obj
 0001:00172aa5       _ArrayReplaceAt            00573aa5 f   darray.obj
 0001:00172af5       _ArraySort                 00573af5 f   darray.obj
 0001:00172b1a       _ArraySearch               00573b1a f   darray.obj
 0001:00172bbd       _ArrayMap                  00573bbd f   darray.obj
 0001:00172c1b       _ArrayMap2                 00573c1b f   darray.obj
 0001:00172d50       _NewBucketSet              00573d50 f   gbucket.obj
 0001:00172dab       _FreeBucketSet             00573dab f   gbucket.obj
 0001:00172e00       _DumpBucketSet             00573e00 f   gbucket.obj
 0001:00172e70       _BucketNew                 00573e70 f   gbucket.obj
 0001:00172f03       _BucketSet                 00573f03 f   gbucket.obj
 0001:00172f42       _BucketGet                 00573f42 f   gbucket.obj
 0001:00172f60       _BucketAdd                 00573f60 f   gbucket.obj
 0001:00173009       _BucketSub                 00574009 f   gbucket.obj
 0001:001730a7       _BucketMult                005740a7 f   gbucket.obj
 0001:00173146       _BucketDiv                 00574146 f   gbucket.obj
 0001:001731e5       _BucketConcat              005741e5 f   gbucket.obj
 0001:001732b2       _BucketAvg                 005742b2 f   gbucket.obj
 0001:0017338b       _bint                      0057438b f   gbucket.obj
 0001:0017339d       _bfloat                    0057439d f   gbucket.obj
 0001:00173750       _GenerateAuth              00574750 f   gstats.obj
 0001:001737d4       _InitStatsConnection       005747d4 f   gstats.obj
 0001:001738ee       _CloseStatsConnection      005748ee f   gstats.obj
 0001:0017395a       _IsStatsConnected          0057495a f   gstats.obj
 0001:0017396b       _GetChallenge              0057496b f   gstats.obj
 0001:001739ab       _NewGame                   005749ab f   gstats.obj
 0001:00173be7       _FreeGame                  00574be7 f   gstats.obj
 0001:00173c69       _SendGameSnapShot          00574c69 f   gstats.obj
 0001:00173e08       _NewPlayer                 00574e08 f   gstats.obj
 0001:00173ed9       _RemovePlayer              00574ed9 f   gstats.obj
 0001:00173f25       _NewTeam                   00574f25 f   gstats.obj
 0001:00173ff6       _RemoveTeam                00574ff6 f   gstats.obj
 0001:00174042       _PreAuthenticatePlayerPM   00575042 f   gstats.obj
 0001:001740cc       _PreAuthenticatePlayerCD   005750cc f   gstats.obj
 0001:0017415a       _GetProfileIDFromCD        0057515a f   gstats.obj
 0001:0017422a       _GetPersistData            0057522a f   gstats.obj
 0001:00174254       _SetPersistData            00575254 f   gstats.obj
 0001:00174283       _GetPersistDataValues      00575283 f   gstats.obj
 0001:001743b9       _SetPersistDataValues      005753b9 f   gstats.obj
 0001:001743f4       _PersistThink              005753f4 f   gstats.obj
 0001:0017576e       _GetTeamIndex              0057676e f   gstats.obj
 0001:001757a1       _GetPlayerIndex            005767a1 f   gstats.obj
 0001:00175ae0       _TableNew                  00576ae0 f   hashtable.obj
 0001:00175b03       _TableNew2                 00576b03 f   hashtable.obj
 0001:00175c2e       _TableFree                 00576c2e f   hashtable.obj
 0001:00175c9d       _TableCount                00576c9d f   hashtable.obj
 0001:00175cec       _TableEnter                00576cec f   hashtable.obj
 0001:00175d6f       _TableRemove               00576d6f f   hashtable.obj
 0001:00175ddd       _TableLookup               00576ddd f   hashtable.obj
 0001:00175e46       _TableMap                  00576e46 f   hashtable.obj
 0001:00175ea6       _TableMap2                 00576ea6 f   hashtable.obj
 0001:00175f20       _MD5Init                   00576f20 f   md5c.obj
 0001:00175f60       _MD5Update                 00576f60 f   md5c.obj
 0001:0017605d       _MD5Final                  0057705d f   md5c.obj
 0001:001770ec       _MD5Print                  005780ec f   md5c.obj
 0001:00177130       _MD5Digest                 00578130 f   md5c.obj
 0001:00177180       _current_time              00578180 f   nonport.obj
 0001:0017718b       _msleep                    0057818b f   nonport.obj
 0001:0017719a       _SocketStartUp             0057819a f   nonport.obj
 0001:001771b8       _SocketShutDown            005781b8 f   nonport.obj
 0001:001771c2       _SetSockBlocking           005781c2 f   nonport.obj
 0001:00177210       ?ActiveProcess@@YAXXZ      00578210 f   IR_Main.obj
 0001:00177228       ??0PLAYERLOGIN@@QAE@XZ     00578228 f   IR_Main.obj
 0001:00177252       ??1PLAYERLOGIN@@QAE@XZ     00578252 f   IR_Main.obj
 0001:0017729c       ?ErrorCallback@@YAXPAPAXPAX1@Z 0057829c f   IR_Main.obj
 0001:001772a1       ?Setup@PLAYERLOGIN@@QAEXXZ 005782a1 f   IR_Main.obj
 0001:001772e0       ?CHECKBOXCLICK@@YA_NPAVSimpleDialog@@@Z 005782e0 f   IR_Main.obj
 0001:00177323       ?FREEPLIST@@YAXPAPAD00H@Z  00578323 f   IR_Main.obj
 0001:001773a7       ?WaitWithError@@YAXPADH@Z  005783a7 f   IR_Main.obj
 0001:00177406       ?WaitWithError4@@YAXPADH@Z 00578406 f   IR_Main.obj
 0001:0017746b       ?LoginError@@YAXH@Z        0057846b f   IR_Main.obj
 0001:00177664       ?printhex@@YAXPADE@Z       00578664 f   IR_Main.obj
 0001:001776a8       ?EncodePassword@@YAXPAD0@Z 005786a8 f   IR_Main.obj
 0001:0017778a       ?GetHByChar@@YAEE@Z        0057878a f   IR_Main.obj
 0001:0017780a       ?GetHex@@YAEPAD@Z          0057880a f   IR_Main.obj
 0001:00177842       ?DecodePassword@@YAXPAD0@Z 00578842 f   IR_Main.obj
 0001:0017797a       ?InternetGameLogin@@YA_NXZ 0057897a f   IR_Main.obj
 0001:00178af1       ?EnterEMail@@YA_NPAD@Z     00579af1 f   IR_Main.obj
 0001:00178fb9       ?EnterNewNick@@YAHPAD@Z    00579fb9 f   IR_Main.obj
 0001:00179430       ?CreateNewAccount@@YAHPAD0PA_N@Z 0057a430 f   IR_Main.obj
 0001:00179a65       ?EnterAccountPassword@@YAHPAD_N0@Z 0057aa65 f   IR_Main.obj
 0001:0017a015       ?E_Search@@YAXPAPAXPAX1@Z  0057b015 f   IR_Main.obj
 0001:0017a074       ?Conn_callback@@YAXPAPAXPAX1@Z 0057b074 f   IR_Main.obj
 0001:0017a0c6       ?ShowCentralMessage2@@YAXPADH@Z 0057b0c6 f   IR_Main.obj
 0001:0017a1e0       ?GetAllPar3@@YAXHPAH0PAD@Z 0057b1e0 f   IR_Main.obj
 0001:0017a2ae       ?ShowCentralMessage4@@YAXPADHH@Z 0057b2ae f   IR_Main.obj
 0001:0017a6fa       ?ShowCentralMessage3@@YAXPADH@Z 0057b6fa f   IR_Main.obj
 0001:0017a714       ?New_profile@@YAXPAPAXPAX1@Z 0057b714 f   IR_Main.obj
 0001:0017a75f       ?E_Search2@@YAXPAPAXPAX1@Z 0057b75f f   IR_Main.obj
 0001:0017a7c1       ?Create_account@@YAXPAPAXPAX1@Z 0057b7c1 f   IR_Main.obj
 0001:0017a805       ?CHKCLICK@@YA_NPAVSimpleDialog@@@Z 0057b805 f   IR_Main.obj
 0001:0017a829       ?SelectProfile@@YAHPAD0@Z  0057b829 f   IR_Main.obj
 0001:0017b1c5       ?AddNewProfile@@YA_NXZ     0057c1c5 f   IR_Main.obj
 0001:0017bc92       ?ProcessLogin@@YAXXZ       0057cc92 f   IR_Main.obj
 0001:0017bcad       ?GETPROFINFO@@YAXH@Z       0057ccad f   IR_Main.obj
 0001:0017bcb2       ?ProcessPlayerForm@@YA_NPAUGPGetInfoResponseArg@@@Z 0057ccb2 f   IR_Main.obj
 0001:0017c798       ?GPI_callback@@YAXPAPAXPAX1@Z 0057d798 f   IR_Main.obj
 0001:0017c7d4       ?ProcessPlayerInfo@@YAXHH@Z 0057d7d4 f   IR_Main.obj
 0001:0017c965       ?UNIQ_callback@@YAXPAPAXPAX1@Z 0057d965 f   IR_Main.obj
 0001:0017ca4d       ?CheckForOriginalName@@YAHPAD0@Z 0057da4d f   IR_Main.obj
 0001:0017cb91       ?CheckUNIQ@@YA_NPAD00@Z    0057db91 f   IR_Main.obj
 0001:0017ccfd       ?MakeUniqLastName@@YAXPAD00@Z 0057dcfd f   IR_Main.obj
 0001:0017ce64       ?TestUNIQ@@YAHPAD0@Z       0057de64 f   IR_Main.obj
 0001:0017d3a5       ?GPI_callback2@@YAXPAPAXPAX1@Z 0057e3a5 f   IR_Main.obj
 0001:0017d426       ?CheckOriginalNick@@YAXH@Z 0057e426 f   IR_Main.obj
 0001:0017d460       ?CreateGame@CurrentGame@@QAEXPAD00@Z 0057e460 f   IR_Main.obj
 0001:0017da45       ?UpdateGame@CurrentGame@@QAEXXZ 0057ea45 f   IR_Main.obj
 0001:0017e1ae       ?AssignVictory@CurrentGame@@QAEXPAD@Z 0057f1ae f   IR_Main.obj
 0001:0017e2be       ?AssignDefeat@CurrentGame@@QAEXPAD@Z 0057f2be f   IR_Main.obj
 0001:0017e4ad       ?AssignKick@CurrentGame@@QAEXPAD@Z 0057f4ad f   IR_Main.obj
 0001:0017e510       ?SaveGameToFile@CurrentGame@@QAEXXZ 0057f510 f   IR_Main.obj
 0001:0017e6e4       ?LoadGameFromFile@CurrentGame@@QAEXXZ 0057f6e4 f   IR_Main.obj
 0001:0017eb2c       ?DeleteThisGameFromFile@CurrentGame@@QAEXXZ 0057fb2c f   IR_Main.obj
 0001:0017ebcc       ??0InternetStatsChunks@@QAE@XZ 0057fbcc f   IR_Main.obj
 0001:0017ebe2       ?Init@InternetStatsChunks@@QAEXXZ 0057fbe2 f   IR_Main.obj
 0001:0017ec0a       ?Clear@InternetStatsChunks@@QAEXXZ 0057fc0a f   IR_Main.obj
 0001:0017ec77       ?InitProfileSystem@@YAXXZ  0057fc77 f   IR_Main.obj
 0001:0017ed72       ?GetData_callback@@YAXHHW4persisttype_t@@HHPADHPAX@Z 0057fd72 f   IR_Main.obj
 0001:0017efa5       ?Download@InternetStatsChunks@@QAE_NHH@Z 0057ffa5 f   IR_Main.obj
 0001:0017f034       ?GetData_callback2@@YAXHHW4persisttype_t@@HHPADHPAX@Z 00580034 f   IR_Main.obj
 0001:0017f0a0       ?StartDownload@InternetStatsChunks@@QAEXHH@Z 005800a0 f   IR_Main.obj
 0001:0017f107       ?PersAuthCallback2@@YAXHHHPADPAX@Z 00580107 f   IR_Main.obj
 0001:0017f149       ?PersDataSaveCallback2@@YAXHHW4persisttype_t@@HHPAX@Z 00580149 f   IR_Main.obj
 0001:0017f18b       ?ProcessUpload@InternetStatsChunks@@QAEXXZ 0058018b f   IR_Main.obj
 0001:0017f37d       ?PersDataSaveCallback@@YAXHHW4persisttype_t@@HHPAX@Z 0058037d f   IR_Main.obj
 0001:0017f3b3       ?StartUpload@InternetStatsChunks@@QAEXHPADH@Z 005803b3 f   IR_Main.obj
 0001:0017f45a       ?ProcessDownload@InternetStatsChunks@@QAEXXZ 0058045a f   IR_Main.obj
 0001:0017f46a       ?PersAuthCallback@@YAXHHHPADPAX@Z 0058046a f   IR_Main.obj
 0001:0017f4a0       ?Upload@InternetStatsChunks@@QAE_NHPADH@Z 005804a0 f   IR_Main.obj
 0001:0017f6d0       ?WriteChunk@InternetStatsChunks@@QAEXPAEHE@Z 005806d0 f   IR_Main.obj
 0001:0017f7d9       ?CheckProfileInit@@YAXXZ   005807d9 f   IR_Main.obj
 0001:0017f7ee       ?EncodeGS_Password@@YAXPAD0@Z 005807ee f   IR_Main.obj
 0001:0017fa42       ?DecodeGS_Password@@YAXPAD0@Z 00580a42 f   IR_Main.obj
 0001:0017fbd0       ?InitUser@@YA_NHPAD@Z      00580bd0 f   IR_Main.obj
 0001:0017ff5d       ?STARTIGAME@@YAXPAD00K@Z   00580f5d f   IR_Main.obj
 0001:00180028       ?UPDATEIGAME@@YAXXZ        00581028 f   IR_Main.obj
 0001:00180069       ?LOOSEIGAME@@YAXPAD@Z      00581069 f   IR_Main.obj
 0001:001800bb       ?LOOSEANDEXITFAST@@YAXXZ   005810bb f   IR_Main.obj
 0001:00180147       ?WINIGAME@@YAXPAD@Z        00581147 f   IR_Main.obj
 0001:00180199       ?GetAddScore@CurrentGame@@QAEHXZ 00581199 f   IR_Main.obj
 0001:0018037a       ?GetLogRank@@YAHXZ         0058137a f   IR_Main.obj
 0001:00180395       ?CheckExistingSaves@@YAXXZ 00581395 f   IR_Main.obj
 0001:001803e8       ?DontMakeRaiting@@YAXXZ    005813e8 f   IR_Main.obj
 0001:00180409       ?StopRaiting@@YAXXZ        00581409 f   IR_Main.obj
 0001:00180420       ?ProcessUpdate@@YAXXZ      00581420 f   IR_Main.obj
 0001:00180484       ?GETCOUNTRY@@YAXPAD0@Z     00581484 f   IR_Main.obj
 0001:00180592       ?Clear@Top100@@QAEXXZ      00581592 f   IR_Main.obj
 0001:00180637       ??0Top100@@QAE@XZ          00581637 f   IR_Main.obj
 0001:001806c5       ??1Top100@@QAE@XZ          005816c5 f   IR_Main.obj
 0001:001806d8       ?CHECKPLINF@@YAXXZ         005816d8 f   IR_Main.obj
 0001:00180783       ?GetTop100_callback@@YAXHHW4persisttype_t@@HHPADHPAX@Z 00581783 f   IR_Main.obj
 0001:00180c7f       ?Download@Top100@@QAEXXZ   00581c7f f   IR_Main.obj
 0001:00180cc0       ?GET_P_SCORE@@YAXHHW4persisttype_t@@HHPADHPAX@Z 00581cc0 f   IR_Main.obj
 0001:0018113b       ?GPI_callback4@@YAXPAPAXPAX1@Z 0058213b f   IR_Main.obj
 0001:00181230       ?Process@Top100@@QAEXXZ    00582230 f   IR_Main.obj
 0001:001815ad       ?RewriteTop100@@YAXHH@Z    005825ad f   IR_Main.obj
 0001:001819e8       ?AddStrToURL@@YAXPAD00PAK@Z 005829e8 f   IR_Main.obj
 0001:00181c16       ?AddIntToURL@@YAXPAD0HPAK@Z 00582c16 f   IR_Main.obj
 0001:00181c4d       ?AddIntIdxToURL@@YAXPAD0HPAKH@Z 00582c4d f   IR_Main.obj
 0001:00181c9d       ?AddStrIdxToURL@@YAXPAD00PAKH@Z 00582c9d f   IR_Main.obj
 0001:00181cd8       ?GETCOD@@YADH@Z            00582cd8 f   IR_Main.obj
 0001:00181d0b       ?SendPHPString@@YAXPAVCurrentGame@@@Z 00582d0b f   IR_Main.obj
 0001:001829bb       ?UpdateGlobalInfo@CurrentGame@@QAE_NXZ 005839bb f   IR_Main.obj
 0001:00183d7b       ?CloseLogin@@YAXXZ         00584d7b f   IR_Main.obj
 0001:00183db1       ?IsGameActive@@YA_NXZ      00584db1 f   IR_Main.obj
 0001:00183dbb       ?GetCurGamePtr@@YAHPAPAE@Z 00584dbb f   IR_Main.obj
 0001:00183dce       ?CheckLogin@@YA_NXZ        00584dce f   IR_Main.obj
 0001:00183dd8       ?UpdateCurGame@@YAXXZ      00584dd8 f   IR_Main.obj
 0001:00183e4b       ?CheckGameTime@@YA_NXZ     00584e4b f   IR_Main.obj
 0001:00183ffb       ?SetNormAttr@@YAXXZ        00584ffb f   IR_Main.obj
 0001:0018407b       ?CheckAttr@@YAXXZ          0058507b f   IR_Main.obj
 0001:00184080       ?TestHash@@YAXXZ           00585080 f   IR_Main.obj
 0001:00184582       ?TestHash1@@YA_NPAD@Z      00585582 f   IR_Main.obj
 0001:00184772       ?GetMyProfile@@YAHXZ       00585772 f   IR_Main.obj
 0001:0018478e       ?SetBrokenState@@YAXXZ     0058578e f   IR_Main.obj
 0001:001847e4       ?SendHTTPRequest@@YAKPAD@Z 005857e4 f   IR_Main.obj
 0001:001847f7       ?CheckHTTPAnswer@@YA_NKPAHPAE@Z 005857f7 f   IR_Main.obj
 0001:0018487f       ?SendOneRequest@@YAKPAD0@Z 0058587f f   IR_Main.obj
 0001:00184912       ?GetStrHASH1@@YAHPAD@Z     00585912 f   IR_Main.obj
 0001:00184b15       ?SendAllRequests@@YAXPAD00@Z 00585b15 f   IR_Main.obj
 0001:00184c75       ?SendPlayerRequest@@YAXPAD0@Z 00585c75 f   IR_Main.obj
 0001:00184e37       ?SendPlayerRequest@@YAXXZ  00585e37 f   IR_Main.obj
 0001:00184e4e       ?GetStrHASH@@YAHPAD@Z      00585e4e f   IR_Main.obj
 0001:00185051       ?CheckPlayerToExit@@YA_NXZ 00586051 f   IR_Main.obj
 0001:0018524b       _xDOTRACE                  0058624b f   IR_Main.obj
 0001:00185250       ?CheckInternet@@YA_NXZ     00586250 f   ChkInet.obj
 0001:00185270       ?LOADSC@@YAXPADPAPAD@Z     00586270 f   ConstStr.obj
 0001:001852cc       ?LoadConstStr@@YAXXZ       005862cc f   ConstStr.obj
 0001:00185a10       ?InitDANGER@@YAXXZ         00586a10 f   Danger.obj
 0001:00185af9       ?CheckDOBJS@@YAXXZ         00586af9 f   Danger.obj
 0001:00185c0b       ?GetDangValue@@YAEHH@Z     00586c0b f   Danger.obj
 0001:00185dd6       ?DrawDangerMap@@YAXXZ      00586dd6 f   Danger.obj
 0001:00185ed0       ??0GameConstants@@QAE@XZ   00586ed0 f   ExConst.obj
 0001:0018623d       ?GetValue@GameConstants@@QAEHPAD@Z 0058723d f   ExConst.obj
 0001:001862cf       ?CheckDef@GameConstants@@QAE_NPAD@Z 005872cf f   ExConst.obj
 0001:00186364       ?GetString@GameConstants@@QAEPADPAD@Z 00587364 f   ExConst.obj
 0001:001863fa       ??1GameConstants@@QAE@XZ   005873fa f   ExConst.obj
 0001:001864e2       ?GETV@@YAHPAD@Z            005874e2 f   ExConst.obj
 0001:001864f5       ?GETS@@YAPADPAD@Z          005874f5 f   ExConst.obj
 0001:00186508       ?CHKV@@YA_NPAD@Z           00587508 f   ExConst.obj
 0001:00186520       ??0CHttpComm@@QAE@XZ       00587520 f   HttpComm.obj
 0001:001866b3       ??1CHttpComm@@UAE@XZ       005876b3 f   HttpComm.obj
 0001:001866d7       ?AddRequest@CHttpComm@@QAEKPBD@Z 005876d7 f   HttpComm.obj
 0001:00186cb8       ?ProcessRequests@CHttpComm@@QAEXXZ 00587cb8 f   HttpComm.obj
 0001:00187107       ?GetData@CHttpComm@@QAEHKPAXK@Z 00588107 f   HttpComm.obj
 0001:00187232       ?FreeData@CHttpComm@@QAEXK@Z 00588232 f   HttpComm.obj
 0001:00187370       ??_ECHttpComm@@UAEPAXI@Z   00588370 f i HttpComm.obj
 0001:00187370       ??_GCHttpComm@@UAEPAXI@Z   00588370 f i HttpComm.obj
 0001:001873a0       ?GoToMine@OneObject@@QAE_NGE@Z 005883a0 f   Mine.obj
 0001:001873c0       ?GoToMine@OneObject@@QAE_NGEE@Z 005883c0 f   Mine.obj
 0001:00187665       ?GoToMineLink@@YAXPAVOneObject@@@Z 00588665 f   Mine.obj
 0001:00187db2       ?LeaveMine@OneObject@@QAEXG@Z 00588db2 f   Mine.obj
 0001:00187e49       ?LeaveMineLink@@YAXPAVOneObject@@@Z 00588e49 f   Mine.obj
 0001:001880da       ?DeleteFromSelection@@YAXPAVOneObject@@@Z 005890da f   Mine.obj
 0001:001881c2       ?HideMe@OneObject@@QAEXXZ  005891c2 f   Mine.obj
 0001:00188240       ?ShowMe@OneObject@@QAEXXZ  00589240 f   Mine.obj
 0001:0018825b       ?PushUnitOutOfMine@@YAXH@Z 0058925b f   Mine.obj
 0001:0018831e       ?DoGates@@YAXH@Z           0058931e f   Mine.obj
 0001:00188338       ?OpGates@@YAXH@Z           00589338 f   Mine.obj
 0001:00188352       ?ClGates@@YAXH@Z           00589352 f   Mine.obj
 0001:0018836c       ?GetWChar@@YAPAVWallCharacter@@PAVOneObject@@@Z 0058936c f   Mine.obj
 0001:001883e8       ?GetWCharID@@YAHPAVOneObject@@@Z 005893e8 f   Mine.obj
 0001:0018845d       ?OfficerCallback@@YAXH@Z   0058945d f   Mine.obj
 0001:0018846c       ?CrBrig@@YAXH@Z            0058946c f   Mine.obj
 0001:0018848c       ?SDS_Pro@@YAXH@Z           0058948c f   Mine.obj
 0001:00188498       ?ZAGLUXA@@YAXH@Z           00589498 f   Mine.obj
 0001:0018849d       ?StopUpgrade@@YAXH@Z       0058949d f   Mine.obj
 0001:001884b7       ?UNLOAD@@YAXH@Z            005894b7 f   Mine.obj
 0001:001884d1       ?CHGUARD@@YAXH@Z           005894d1 f   Mine.obj
 0001:001884ff       ?SELECT1@@YAXH@Z           005894ff f   Mine.obj
 0001:0018853e       ?ChOrdN@@YAXH@Z            0058953e f   Mine.obj
 0001:001885a2       ?ATTGR_PRO@@YAXH@Z         005895a2 f   Mine.obj
 0001:001885ae       ?CreateInsideList@@YA_NPAVIconSet@@E@Z 005895ae f   Mine.obj
 0001:00189a2a       ?TakeResourceFromSprite@OneObject@@QAEXH@Z 0058aa2a f   Mine.obj
 0001:00189b3d       ?TakeResourceFromSpriteLink@@YAXPAVOneObject@@@Z 0058ab3d f   Mine.obj
 0001:00189eba       ?GetSprResourceName@@YAPADPAVOneObject@@@Z 0058aeba f   Mine.obj
 0001:00189f09       ?ShowBuilding@@YAXPAVNewMonster@@HHE@Z 0058af09 f   Mine.obj
 0001:0018a14c       ?EnumerateScreenSprites@@YAXP6AXPAVOneSprite@@@Z@Z 0058b14c f   Mine.obj
 0001:0018a333       ?MSpinf@@YAXPAVOneSprite@@@Z 0058b333 f   Mine.obj
 0001:0018a422       ?ShowMines@@YAXPAVNewMonster@@@Z 0058b422 f   Mine.obj
 0001:0018a45d       ?HandleMines@@YAXXZ        0058b45d f   Mine.obj
 0001:0018a520       ?MCHOOSE@@YA_NPAVSimpleDialog@@@Z 0058b520 f   NewILogin.obj
 0001:0018a533       ?ProcessNewInternetLogin@@YA_NXZ 0058b533 f   NewILogin.obj
 0001:0018a992       ??0SelGroup@@QAE@XZ        0058b992 f   Select.obj
 0001:0018a9f8       ?CreateFromSelection@SelGroup@@QAEXE@Z 0058b9f8 f   Select.obj
 0001:0018ab3d       ?DeleteMembers@SelGroup@@QAEXE@Z 0058bb3d f   Select.obj
 0001:0018abdd       ?SelectMembers@SelGroup@@QAEXE_N@Z 0058bbdd f   Select.obj
 0001:0018af26       ?ImSelectMembers@SelGroup@@QAEXE_N@Z 0058bf26 f   Select.obj
 0001:0018b36c       ?InitPrpBar@@YAXXZ         0058c36c f   SelProp.obj
 0001:0018b3f1       ?ResFon@@YAXHHHH@Z         0058c3f1 f   SelProp.obj
 0001:0018b3f6       ?ScrCopy@@YAXHHHH@Z        0058c3f6 f   SelProp.obj
 0001:0018b4a0       ?GetMonCost@@YAXEGPAD@Z    0058c4a0 f   SelProp.obj
 0001:0018b5a3       ?GetMonsterCostString@GeneralObject@@QAEXPAD@Z 0058c5a3 f   SelProp.obj
 0001:0018b5b6       ?GetUpgradeCostString@Nation@@QAEXPADG@Z 0058c5b6 f   SelProp.obj
 0001:0018b6a2       ?HPSEL@@YAXH@Z             0058c6a2 f   SelProp.obj
 0001:0018b733       ?HPSELBRIG@@YAXH@Z         0058c733 f   SelProp.obj
 0001:0018b7c9       ?IsItInSelSet@@YA_NG@Z     0058c7c9 f   SelProp.obj
 0001:0018b810       ?FREEORD@@YAXH@Z           0058c810 f   SelProp.obj
 0001:0018b82a       ?MSTANDGR@@YAXH@Z          0058c82a f   SelProp.obj
 0001:0018b844       ?CSTANDGR@@YAXH@Z          0058c844 f   SelProp.obj
 0001:0018b85e       ?OLIHPRO@@YAXH@Z           0058c85e f   SelProp.obj
 0001:0018b874       ?SELBRIG@@YAXH@Z           0058c874 f   SelProp.obj
 0001:0018b8cb       ?PreBrig@@YAXH@Z           0058c8cb f   SelProp.obj
 0001:0018b8d8       ?EATTACK_Pro@@YAXH@Z       0058c8d8 f   SelProp.obj
 0001:0018b8f4       ?DATTACK_Pro@@YAXH@Z       0058c8f4 f   SelProp.obj
 0001:0018b910       ?DOPATROL@@YAXH@Z          0058c910 f   SelProp.obj
 0001:0018b91c       ?PATROL_Pro@@YAXH@Z        0058c91c f   SelProp.obj
 0001:0018b921       ?GOATTA_Pro@@YAXH@Z        0058c921 f   SelProp.obj
 0001:0018b926       ?REFORMA@@YAXH@Z           0058c926 f   SelProp.obj
 0001:0018b953       ?FILLFORM@@YAXH@Z          0058c953 f   SelProp.obj
 0001:0018b974       ?GONATTACK@@YAXH@Z         0058c974 f   SelProp.obj
 0001:0018b980       ?HISTORY_Call@@YAXH@Z      0058c980 f   SelProp.obj
 0001:0018b98a       ?COM_DOGROUP@@YAXH@Z       0058c98a f   SelProp.obj
 0001:0018b9a4       ?COM_UNGROUP@@YAXH@Z       0058c9a4 f   SelProp.obj
 0001:0018b9be       ?ShowProp@@YAXXZ           0058c9be f   SelProp.obj
 0001:0018d4f2       ?ShowTextDiscription@@YAXXZ 0058e4f2 f   SelProp.obj
 0001:0018e1aa       ?RHPR@@YAXH@Z              0058f1aa f   SelProp.obj
 0001:0018e2c7       ?HPR@@YAXH@Z               0058f2c7 f   SelProp.obj
 0001:0018e4fb       ?HPR1@@YAXH@Z              0058f4fb f   SelProp.obj
 0001:0018e62c       ?DoUPG@@YAXH@Z             0058f62c f   SelProp.obj
 0001:0018e671       ?DoUPG1@@YAXH@Z            0058f671 f   SelProp.obj
 0001:0018e692       ?EnterIn@@YAXH@Z           0058f692 f   SelProp.obj
 0001:0018e6ea       ?OrderMove@@YAXHHH@Z       0058f6ea f   SelProp.obj
 0001:0018e713       ?OrderAttack@@YAXHHH@Z     0058f713 f   SelProp.obj
 0001:0018e718       ?OrderPatrol@@YAXHHH@Z     0058f718 f   SelProp.obj
 0001:0018e73c       ?OrderRepair@@YAXHHH@Z     0058f73c f   SelProp.obj
 0001:0018e758       ?OrderNucAtt@@YAXHHH@Z     0058f758 f   SelProp.obj
 0001:0018e77c       ?OrderSetDst@@YAXHHH@Z     0058f77c f   SelProp.obj
 0001:0018e7a0       ?UNIPARAM@@YAXH@Z          0058f7a0 f   SelProp.obj
 0001:0018e868       ?NOPARAM@@YAXH@Z           0058f868 f   SelProp.obj
 0001:0018e90b       ?OrderPointN@@YAXHHH@Z     0058f90b f   SelProp.obj
 0001:0018e910       ?OrderPoint0@@YAXHHH@Z     0058f910 f   SelProp.obj
 0001:0018e927       ?OrderPoint1@@YAXHHH@Z     0058f927 f   SelProp.obj
 0001:0018e93e       ?OrderPoint2@@YAXHHH@Z     0058f93e f   SelProp.obj
 0001:0018e955       ?OrderPoint3@@YAXHHH@Z     0058f955 f   SelProp.obj
 0001:0018e96c       ?OrderPoint4@@YAXHHH@Z     0058f96c f   SelProp.obj
 0001:0018e983       ?OrderPoint5@@YAXHHH@Z     0058f983 f   SelProp.obj
 0001:0018e99a       ?OrderPoint6@@YAXHHH@Z     0058f99a f   SelProp.obj
 0001:0018e9b1       ?OrderPoint7@@YAXHHH@Z     0058f9b1 f   SelProp.obj
 0001:0018e9c8       ?OrderPoint8@@YAXHHH@Z     0058f9c8 f   SelProp.obj
 0001:0018e9df       ?OrderPoint9@@YAXHHH@Z     0058f9df f   SelProp.obj
 0001:0018e9f6       ?OrderPoint10@@YAXHHH@Z    0058f9f6 f   SelProp.obj
 0001:0018ea0d       ?OrderPoint11@@YAXHHH@Z    0058fa0d f   SelProp.obj
 0001:0018ea24       ?STRANGEWEAPON@@YAXH@Z     0058fa24 f   SelProp.obj
 0001:0018eb17       ?ShowUniqAbility@@YAHXZ    0058fb17 f   SelProp.obj
 0001:0018ef4e       ?ShowCommonAbl@@YA_NXZ     0058ff4e f   SelProp.obj
 0001:0018f36b       ?ShowAbility@@YAXXZ        0059036b f   SelProp.obj
 0001:0018fe54       ?PropCopy@@YAXXZ           00590e54 f   SelProp.obj
 0001:0018ff4e       ?LoadMessagesFromFile@@YAXPAD@Z 00590f4e f   SelProp.obj
 0001:001901a8       ?LoadMessages@@YAXXZ       005911a8 f   SelProp.obj
 0001:0019031a       ?GetTextByID@@YAPADPAD@Z   0059131a f   SelProp.obj
 0001:0019036f       ?GetTextIDByID@@YAHPAD@Z   0059136f f   SelProp.obj
 0001:001903c0       ??0Blob@@QAE@XZ            005913c0 f   ShipTrace.obj
 0001:001903e9       ??1Blob@@QAE@XZ            005913e9 f   ShipTrace.obj
 0001:0019040c       ?Load@Blob@@QAEXPAD@Z      0059140c f   ShipTrace.obj
 0001:00190546       ?ShowBlob@@YAXHHPAEHH@Z    00591546 f   ShipTrace.obj
 0001:00190761       ?Show@Blob@@QAEXHHH@Z      00591761 f   ShipTrace.obj
 0001:00190810       ?LoadBlobs@@YAXXZ          00591810 f   ShipTrace.obj
 0001:00190859       ?TestBlob@@YAXXZ           00591859 f   ShipTrace.obj
 0001:00190863       ?ProcessBlobs@@YAXXZ       00591863 f   ShipTrace.obj
 0001:00190ac8       ?InitBlobs@@YAXXZ          00591ac8 f   ShipTrace.obj
 0001:00190b33       ?AddBlob@@YAXHHE_N@Z       00591b33 f   ShipTrace.obj
 0001:00190c5d       ?AddBlob@@YAXHHE@Z         00591c5d f   ShipTrace.obj
 0001:00190c78       ?AddRandomBlobs@@YAXXZ     00591c78 f   ShipTrace.obj
 0001:00190d38       ?AddTrace@@YAXHHE@Z        00591d38 f   ShipTrace.obj
 0001:00190d75       ?CreateTrace@@YAXPAVOneObject@@@Z 00591d75 f   ShipTrace.obj
 0001:00190ed0       ?NLine@@YAXPAVGFILE@@@Z    00591ed0 f   stRecog.obj
 0001:00190f01       ?Errx@@YAXPBD@Z            00591f01 f   stRecog.obj
 0001:00190f38       ?GetCIndex@@YAHPAD@Z       00591f38 f   stRecog.obj
 0001:00190fc4       ?InitModes@@YAXXZ          00591fc4 f   stRecog.obj
 0001:001914c4       ?GetMode@@YAXPADPAHH@Z     005924c4 f   stRecog.obj
 0001:0019155a       ?SearchStr@@YAHPAPADPADH@Z 0059255a f   stRecog.obj
 0001:001915a0       ?GetWeaponIndex@@YAHPAD@Z  005925a0 f   stRecog.obj
 0001:001915bc       ?LoadWeapon@@YAXXZ         005925bc f   stRecog.obj
 0001:00193af5       ?normstr@@YAXPAD@Z         00594af5 f   stRecog.obj
 0001:00193b35       ?InitFlags@@YAXPAVGeneralObject@@@Z 00594b35 f   stRecog.obj
 0001:00193e02       ?InitNation@@YAXEE@Z       00594e02 f   stRecog.obj
 0001:001940f2       ?ListAllUnits@@YAXXZ       005950f2 f   stRecog.obj
 0001:00194260       ?LoadAllNations@@YAXEE@Z   00595260 f   stRecog.obj
 0001:001945c6       ?LoadNation@@YAXPADEEE@Z   005955c6 f   stRecog.obj
 0001:00197fb9       ?Get_UID@@YAHPAVNation@@PAD1H@Z 00598fb9 f   stRecog.obj
 0001:001980e6       ?Read_UIDG@@YAXPAVNation@@PAUU_Grp@@PADPAVGFILE@@2H@Z 005990e6 f   stRecog.obj
 0001:00198255       ?ReadWORD@@YAGPAD00H@Z     00599255 f   stRecog.obj
 0001:001982b9       ?LoadAI@@YAXPADPAVNation@@@Z 005992b9 f   stRecog.obj
 0001:001998c0       ??0StrHash@@QAE@XZ         0059a8c0 f   StringsHash.obj
 0001:001998e1       ?Clear@StrHash@@QAEXXZ     0059a8e1 f   StringsHash.obj
 0001:00199986       ??1StrHash@@QAE@XZ         0059a986 f   StringsHash.obj
 0001:00199999       ?AddString@StrHash@@QAEXPAD@Z 0059a999 f   StringsHash.obj
 0001:00199aa1       ?SearchString@StrHash@@QAEHPAD@Z 0059aaa1 f   StringsHash.obj
 0001:00199b30       ?CalcHash@@YAEPAD@Z        0059ab30 f i StringsHash.obj
 0001:00199b50       ?StartExplorer@@YAXXZ      0059ab50 f   testserver.obj
 0001:00199d84       ?FinExplorer@@YAXXZ        0059ad84 f   testserver.obj
 0001:00199ddc       ?ExplorerBack@@YAXH@Z      0059addc f   testserver.obj
 0001:00199df7       ?ExplorerForw@@YAXH@Z      0059adf7 f   testserver.obj
 0001:00199e12       ?ExplorerRefresh@@YAXH@Z   0059ae12 f   testserver.obj
 0001:00199e2d       ?RunExplorer@@YAXHPADHHHH@Z 0059ae2d f   testserver.obj
 0001:00199e5c       ?ProcessExplorer@@YAXH@Z   0059ae5c f   testserver.obj
 0001:00199e79       ?ProcessExplorerDSS@@YAXHPAVDialogsSystem@@@Z 0059ae79 f   testserver.obj
 0001:00199e98       ?ExplorerSetVar@@YAXHPAD0@Z 0059ae98 f   testserver.obj
 0001:00199ebb       ?ExplorerGetVar@@YAPADHPAD@Z 0059aebb f   testserver.obj
 0001:00199ede       ?ExplorerOpenRef@@YAXHPAD@Z 0059aede f   testserver.obj
 0001:00199efd       ?ExplorerResize@@YAXHHHHH@Z 0059aefd f   testserver.obj
 0001:00199f28       ?StartTest@@YAXXZ          0059af28 f   testserver.obj
 0001:00199fe2       ?InitDipFunctions@@YAXXZ   0059afe2 f   testserver.obj
 0001:0019a090       ?InitWaves@@YAXXZ          0059b090 f   Waves.obj
 0001:0019a0c2       ?LoadWaveAnimations@@YAXXZ 0059b0c2 f   Waves.obj
 0001:0019a210       ?ProcessWaveFrames@@YAXXZ  0059b210 f   Waves.obj
 0001:0019a5c0       ?CheckColor@@YA_NHH@Z      0059b5c0 f i Waves.obj
 0001:0019a628       _DeleteFileA@4             0059b628 f   kernel32:KERNEL32.dll
 0001:0019a62e       _SetLastError@4            0059b62e f   kernel32:KERNEL32.dll
 0001:0019a634       _SetCurrentDirectoryA@4    0059b634 f   kernel32:KERNEL32.dll
 0001:0019a63a       _GetCurrentDirectoryA@8    0059b63a f   kernel32:KERNEL32.dll
 0001:0019a640       _MapViewOfFile@20          0059b640 f   kernel32:KERNEL32.dll
 0001:0019a646       _CreateFileMappingA@24     0059b646 f   kernel32:KERNEL32.dll
 0001:0019a64c       _CreateFileA@28            0059b64c f   kernel32:KERNEL32.dll
 0001:0019a652       _CloseHandle@4             0059b652 f   kernel32:KERNEL32.dll
 0001:0019a658       _UnmapViewOfFile@4         0059b658 f   kernel32:KERNEL32.dll
 0001:0019a65e       _FindClose@4               0059b65e f   kernel32:KERNEL32.dll
 0001:0019a664       _FindFirstFileA@8          0059b664 f   kernel32:KERNEL32.dll
 0001:0019a66a       _ReadFile@20               0059b66a f   kernel32:KERNEL32.dll
 0001:0019a670       _SetFilePointer@16         0059b670 f   kernel32:KERNEL32.dll
 0001:0019a676       _FindNextFileA@8           0059b676 f   kernel32:KERNEL32.dll
 0001:0019a67c       _GetFileSize@8             0059b67c f   kernel32:KERNEL32.dll
 0001:0019a682       _WriteFile@20              0059b682 f   kernel32:KERNEL32.dll
 0001:0019a688       _GetTickCount@0            0059b688 f   kernel32:KERNEL32.dll
 0001:0019a68e       _lstrcpyA@8                0059b68e f   kernel32:KERNEL32.dll
 0001:0019a694       _lstrlenA@4                0059b694 f   kernel32:KERNEL32.dll
 0001:0019a69a       _GetComputerNameA@8        0059b69a f   kernel32:KERNEL32.dll
 0001:0019a6a0       _FileTimeToSystemTime@8    0059b6a0 f   kernel32:KERNEL32.dll
 0001:0019a6a6       _SystemTimeToFileTime@8    0059b6a6 f   kernel32:KERNEL32.dll
 0001:0019a6ac       _GetSystemTime@4           0059b6ac f   kernel32:KERNEL32.dll
 0001:0019a6b2       _CreateProcessA@40         0059b6b2 f   kernel32:KERNEL32.dll
 0001:0019a6b8       _GetLastError@0            0059b6b8 f   kernel32:KERNEL32.dll
 0001:0019a6be       _QueryPerformanceFrequency@4 0059b6be f   kernel32:KERNEL32.dll
 0001:0019a6c4       _QueryPerformanceCounter@4 0059b6c4 f   kernel32:KERNEL32.dll
 0001:0019a6ca       _WinExec@8                 0059b6ca f   kernel32:KERNEL32.dll
 0001:0019a6d0       _GetDriveTypeA@4           0059b6d0 f   kernel32:KERNEL32.dll
 0001:0019a6d6       _GetLogicalDriveStringsA@8 0059b6d6 f   kernel32:KERNEL32.dll
 0001:0019a6dc       _GetDiskFreeSpaceA@20      0059b6dc f   kernel32:KERNEL32.dll
 0001:0019a6e2       _GetDiskFreeSpaceExA@16    0059b6e2 f   kernel32:KERNEL32.dll
 0001:0019a6e8       _GetProcAddress@8          0059b6e8 f   kernel32:KERNEL32.dll
 0001:0019a6ee       _GetModuleHandleA@4        0059b6ee f   kernel32:KERNEL32.dll
 0001:0019a6f4       _GetWindowsDirectoryA@8    0059b6f4 f   kernel32:KERNEL32.dll
 0001:0019a6fa       _CreateDirectoryA@8        0059b6fa f   kernel32:KERNEL32.dll
 0001:0019a700       _Sleep@4                   0059b700 f   kernel32:KERNEL32.dll
 0001:0019a706       _FreeLibrary@4             0059b706 f   kernel32:KERNEL32.dll
 0001:0019a70c       _LoadLibraryA@4            0059b70c f   kernel32:KERNEL32.dll
 0001:0019a712       _MulDiv@12                 0059b712 f   kernel32:KERNEL32.dll
 0001:0019a718       _GlobalFree@4              0059b718 f   kernel32:KERNEL32.dll
 0001:0019a71e       _GlobalUnlock@4            0059b71e f   kernel32:KERNEL32.dll
 0001:0019a724       _GlobalHandle@4            0059b724 f   kernel32:KERNEL32.dll
 0001:0019a72a       _GlobalLock@4              0059b72a f   kernel32:KERNEL32.dll
 0001:0019a730       _GlobalAlloc@8             0059b730 f   kernel32:KERNEL32.dll
 0001:0019a736       _SetFileTime@16            0059b736 f   kernel32:KERNEL32.dll
 0001:0019a73c       _GetFileTime@16            0059b73c f   kernel32:KERNEL32.dll
 0001:0019a742       _MessageBoxA@16            0059b742 f   user32:USER32.dll
 0001:0019a748       _wsprintfA                 0059b748 f   user32:USER32.dll
 0001:0019a74e       _GetKeyState@4             0059b74e f   user32:USER32.dll
 0001:0019a754       _ReleaseDC@8               0059b754 f   user32:USER32.dll
 0001:0019a75a       _GetWindowDC@4             0059b75a f   user32:USER32.dll
 0001:0019a760       _ShowCursor@4              0059b760 f   user32:USER32.dll
 0001:0019a766       _DispatchMessageA@4        0059b766 f   user32:USER32.dll
 0001:0019a76c       _TranslateMessage@4        0059b76c f   user32:USER32.dll
 0001:0019a772       _PeekMessageA@20           0059b772 f   user32:USER32.dll
 0001:0019a778       _SetCursorPos@8            0059b778 f   user32:USER32.dll
 0001:0019a77e       _RedrawWindow@16           0059b77e f   user32:USER32.dll
 0001:0019a784       _DefWindowProcA@16         0059b784 f   user32:USER32.dll
 0001:0019a78a       _PostQuitMessage@4         0059b78a f   user32:USER32.dll
 0001:0019a790       _ToAscii@20                0059b790 f   user32:USER32.dll
 0001:0019a796       _GetKeyboardState@4        0059b796 f   user32:USER32.dll
 0001:0019a79c       _SetCursor@4               0059b79c f   user32:USER32.dll
 0001:0019a7a2       _ClipCursor@4              0059b7a2 f   user32:USER32.dll
 0001:0019a7a8       _PostMessageA@16           0059b7a8 f   user32:USER32.dll
 0001:0019a7ae       _DestroyWindow@4           0059b7ae f   user32:USER32.dll
 0001:0019a7b4       _SetTimer@16               0059b7b4 f   user32:USER32.dll
 0001:0019a7ba       _UpdateWindow@4            0059b7ba f   user32:USER32.dll
 0001:0019a7c0       _ShowWindow@8              0059b7c0 f   user32:USER32.dll
 0001:0019a7c6       _CreateWindowExA@48        0059b7c6 f   user32:USER32.dll
 0001:0019a7cc       _GetSystemMetrics@4        0059b7cc f   user32:USER32.dll
 0001:0019a7d2       _RegisterClassA@4          0059b7d2 f   user32:USER32.dll
 0001:0019a7d8       _LoadCursorA@8             0059b7d8 f   user32:USER32.dll
 0001:0019a7de       _LoadIconA@8               0059b7de f   user32:USER32.dll
 0001:0019a7e4       _StretchDIBits@52          0059b7e4 f   gdi32:GDI32.dll
 0001:0019a7ea       _RegCloseKey@4             0059b7ea f   advapi32:ADVAPI32.dll
 0001:0019a7f0       _RegQueryValueExA@24       0059b7f0 f   advapi32:ADVAPI32.dll
 0001:0019a7f6       _RegOpenKeyExA@20          0059b7f6 f   advapi32:ADVAPI32.dll
 0001:0019a7fc       _ShellExecuteA@24          0059b7fc f   shell32:SHELL32.dll
 0001:0019a802       _CoCreateInstance@20       0059b802 f   ole32:ole32.dll
 0001:0019a808       _CoInitialize@4            0059b808 f   ole32:ole32.dll
 0001:0019a80e       _gethostbyname@4           0059b80e f   ws2_32:WS2_32.dll
 0001:0019a814       _recv@16                   0059b814 f   ws2_32:WS2_32.dll
 0001:0019a81a       _connect@12                0059b81a f   ws2_32:WS2_32.dll
 0001:0019a820       _socket@12                 0059b820 f   ws2_32:WS2_32.dll
 0001:0019a826       _closesocket@4             0059b826 f   ws2_32:WS2_32.dll
 0001:0019a82c       _shutdown@8                0059b82c f   ws2_32:WS2_32.dll
 0001:0019a832       _send@16                   0059b832 f   ws2_32:WS2_32.dll
 0001:0019a838       _inet_addr@4               0059b838 f   ws2_32:WS2_32.dll
 0001:0019a83e       _htons@4                   0059b83e f   ws2_32:WS2_32.dll
 0001:0019a844       _select@20                 0059b844 f   ws2_32:WS2_32.dll
 0001:0019a84a       _WSAStartup@8              0059b84a f   ws2_32:WS2_32.dll
 0001:0019a850       _WSACleanup@0              0059b850 f   ws2_32:WS2_32.dll
 0001:0019a856       _ioctlsocket@12            0059b856 f   ws2_32:WS2_32.dll
 0001:0019a85c       _WSAGetLastError@0         0059b85c f   ws2_32:WS2_32.dll
 0001:0019a862       _bind@12                   0059b862 f   ws2_32:WS2_32.dll
 0001:0019a868       _htonl@4                   0059b868 f   ws2_32:WS2_32.dll
 0001:0019a86e       ___WSAFDIsSet@8            0059b86e f   ws2_32:WS2_32.dll
 0001:0019a874       _div                       0059b874 f   libc:div.obj
 0001:0019a8a0       _memcpy                    0059b8a0 f   libc:memcpy.obj
 0001:0019abe0       _strlen                    0059bbe0 f   libc:strlen.obj
 0001:0019ac5b       ??_M@YGXPAXIHP6EX0@Z@Z     0059bc5b f   libc:ehvecdtr.obj
 0001:0019acdb       ?__ArrayUnwind@@YGXPAXIHP6EX0@Z@Z 0059bcdb f   libc:ehvecdtr.obj
 0001:0019ad4f       __onexit                   0059bd4f f   libc:onexit.obj
 0001:0019adbc       _atexit                    0059bdbc f   libc:onexit.obj
 0001:0019adce       ___onexitinit              0059bdce f   libc:onexit.obj
 0001:0019ae00       _strcpy                    0059be00 f   libc:strcat.obj
 0001:0019ae10       _strcat                    0059be10 f   libc:strcat.obj
 0001:0019aef0       _realloc                   0059bef0 f   libc:realloc.obj
 0001:0019b190       _free                      0059c190 f   libc:free.obj
 0001:0019b1f9       _fclose                    0059c1f9 f   libc:fclose.obj
 0001:0019b24f       __fsopen                   0059c24f f   libc:fopen.obj
 0001:0019b26f       _fopen                     0059c26f f   libc:fopen.obj
 0001:0019b282       _sprintf                   0059c282 f   libc:sprintf.obj
 0001:0019b2e0       _strcmp                    0059c2e0 f   libc:strcmp.obj
 0001:0019b364       __strupr                   0059c364 f   libc:strupr.obj
 0001:0019b364       _strupr                    0059c364 f   libc:strupr.obj
 0001:0019b410       _memset                    0059c410 f   libc:memset.obj
 0001:0019b470       _strrchr                   0059c470 f   libc:strrchr.obj
 0001:0019b497       ?_JumpToContinuation@@YGXPAXPAUEHRegistrationNode@@@Z 0059c497 f   libc:trnsctrl.obj
 0001:0019b4cb       ?_CallMemberFunction0@@YGXPAX0@Z 0059c4cb f   libc:trnsctrl.obj
 0001:0019b4d2       ?_CallMemberFunction1@@YGXPAX00@Z 0059c4d2 f   libc:trnsctrl.obj
 0001:0019b4d9       ?_CallMemberFunction2@@YGXPAX00H@Z 0059c4d9 f   libc:trnsctrl.obj
 0001:0019b4e0       ?_UnwindNestedFrames@@YGXPAUEHRegistrationNode@@PAUEHExceptionRecord@@@Z 0059c4e0 f   libc:trnsctrl.obj
 0001:0019b52f       ___CxxFrameHandler         0059c52f f   libc:trnsctrl.obj
 0001:0019b565       ___CxxLongjmpUnwind@4      0059c565 f   libc:trnsctrl.obj
 0001:0019b57f       ?_CallCatchBlock2@@YAPAXPAUEHRegistrationNode@@PBU_s_FuncInfo@@PAXHK@Z 0059c57f f   libc:trnsctrl.obj
 0001:0019b5f8       ?_CallSETranslator@@YAHPAUEHExceptionRecord@@PAUEHRegistrationNode@@PAX2PBU_s_FuncInfo@@H1@Z 0059c5f8 f   libc:trnsctrl.obj
 0001:0019b721       ?_GetRangeOfTrysToCheck@@YAPBU_s_TryBlockMapEntry@@PBU_s_FuncInfo@@HHPAI1@Z 0059c721 f   libc:trnsctrl.obj
 0001:0019b79c       __global_unwind2           0059c79c f   libc:exsup.obj
 0001:0019b7de       __local_unwind2            0059c7de f   libc:exsup.obj
 0001:0019b836       __NLG_Return2              0059c836 f   libc:exsup.obj
 0001:0019b846       __abnormal_termination     0059c846 f   libc:exsup.obj
 0001:0019b869       __NLG_Notify1              0059c869 f   libc:exsup.obj
 0001:0019b872       __NLG_Notify               0059c872 f   libc:exsup.obj
 0001:0019b885       __NLG_Dispatch             0059c885 f   libc:exsup.obj
 0001:0019b88a       __assert                   0059c88a f   libc:assert.obj
 0001:0019bb74       _sscanf                    0059cb74 f   libc:sscanf.obj
 0001:0019bba8       _vfprintf                  0059cba8 f   libc:vfprintf.obj
 0001:0019bbe0       _memcmp                    0059cbe0 f   libc:memcmp.obj
 0001:0019bc90       __CIsin                    0059cc90 f   libc:sin.obj
 0001:0019bca4       _sin                       0059cca4 f   libc:sin.obj
 0001:0019bd3e       __fpmath                   0059cd3e f   libc:fpinit.obj
 0001:0019bd55       __fpclear                  0059cd55 f   libc:fpinit.obj
 0001:0019bd56       __cfltcvt_init             0059cd56 f   libc:fpinit.obj
 0001:0019bd8e       ___setfflag                0059cd8e f   libc:fpinit.obj
 0001:0019bda0       __ftol                     0059cda0 f   libc:ftol.obj
 0001:0019bdd0       _strstr                    0059cdd0 f   libc:strstr.obj
 0001:0019be50       __chkstk                   0059ce50 f   libc:chkstk.obj
 0001:0019be50       __alloca_probe             0059ce50 f   libc:chkstk.obj
 0001:0019be80       __stricmp                  0059ce80 f   libc:stricmp.obj
 0001:0019be80       __strcmpi                  0059ce80 f   libc:stricmp.obj
 0001:0019bf20       _strchr                    0059cf20 f   libc:strchr.obj
 0001:0019bf26       ___from_strstr_to_strchr   0059cf26 f   libc:strchr.obj
 0001:0019bfe0       __CIsqrt                   0059cfe0 f   libc:sqrt.obj
 0001:0019bff4       _sqrt                      0059cff4 f   libc:sqrt.obj
 0001:0019c09a       _abs                       0059d09a f   libc:abs.obj
 0001:0019c0a5       ??_L@YGXPAXIHP6EX0@Z1@Z    0059d0a5 f   libc:ehvecctr.obj
 0001:0019c127       _srand                     0059d127 f   libc:rand.obj
 0001:0019c131       _rand                      0059d131 f   libc:rand.obj
 0001:0019c150       _exp                       0059d150 f   libc:87ctran.obj
 0001:0019c15a       __CIexp                    0059d15a f   libc:87ctran.obj
 0001:0019c170       __CIcos                    0059d170 f   libc:cos.obj
 0001:0019c184       _cos                       0059d184 f   libc:cos.obj
 0001:0019c21e       _fprintf                   0059d21e f   libc:fprintf.obj
 0001:0019c250       _atol                      0059d250 f   libc:atox.obj
 0001:0019c2db       _atoi                      0059d2db f   libc:atox.obj
 0001:0019c2e6       __atoi64                   0059d2e6 f   libc:atox.obj
 0001:0019c3a0       __cinit                    0059d3a0 f   libc:crt0dat.obj
 0001:0019c3cd       _exit                      0059d3cd f   libc:crt0dat.obj
 0001:0019c3de       __exit                     0059d3de f   libc:crt0dat.obj
 0001:0019c3ef       __cexit                    0059d3ef f   libc:crt0dat.obj
 0001:0019c3fe       __c_exit                   0059d3fe f   libc:crt0dat.obj
 0001:0019c4c0       _fscanf                    0059d4c0 f   libc:fscanf.obj
 0001:0019c4d6       _malloc                    0059d4d6 f   libc:malloc.obj
 0001:0019c4e8       __nh_malloc                0059d4e8 f   libc:malloc.obj
 0001:0019c514       __heap_alloc               0059d514 f   libc:malloc.obj
 0001:0019c588       _calloc                    0059d588 f   libc:calloc.obj
 0001:0019c639       _rename                    0059d639 f   libc:rename.obj
 0001:0019c670       _atan2                     0059d670 f   libc:87ctriga.obj
 0001:0019c67a       __CIatan2                  0059d67a f   libc:87ctriga.obj
 0001:0019c690       __CItan                    0059d690 f   libc:tan.obj
 0001:0019c6a4       _tan                       0059d6a4 f   libc:tan.obj
 0001:0019c750       __CIlog                    0059d750 f   libc:log.obj
 0001:0019c764       _log                       0059d764 f   libc:log.obj
 0001:0019c81c       __findfirst                0059d81c f   libc:findfile.obj
 0001:0019c8e6       __findnext                 0059d8e6 f   libc:findfile.obj
 0001:0019c9ab       __findclose                0059d9ab f   libc:findfile.obj
 0001:0019c9ca       ___timet_from_ft           0059d9ca f   libc:findfile.obj
 0001:0019ca30       _strncpy                   0059da30 f   libc:strncpy.obj
 0001:0019cb2e       _time                      0059db2e f   libc:time.obj
 0001:0019cc0a       _vsprintf                  0059dc0a f   libc:vsprintf.obj
 0001:0019cc60       _memmove                   0059dc60 f   libc:memmove.obj
 0001:0019cf95       _printf                    0059df95 f   libc:printf.obj
 0001:0019cfc6       __toupper                  0059dfc6 f   libc:toupper.obj
 0001:0019cfce       _toupper                   0059dfce f   libc:toupper.obj
 0001:0019d09a       __filbuf                   0059e09a f   libc:_filbuf.obj
 0001:0019d173       ___initstdio               0059e173 f   libc:_file.obj
 0001:0019d218       ___endstdio                0059e218 f   libc:_file.obj
 0001:0019d22c       _fwrite                    0059e22c f   libc:fwrite.obj
 0001:0019d336       _fflush                    0059e336 f   libc:fflush.obj
 0001:0019d371       __flush                    0059e371 f   libc:fflush.obj
 0001:0019d3cd       __flushall                 0059e3cd f   libc:fflush.obj
 0001:0019d443       _qsort                     0059e443 f   libc:qsort.obj
 0001:0019d611       __strdup                   0059e611 f   libc:strdup.obj
 0001:0019d611       _strdup                    0059e611 f   libc:strdup.obj
 0001:0019d63c       __tolower                  0059e63c f   libc:tolower.obj
 0001:0019d644       _tolower                   0059e644 f   libc:tolower.obj
 0001:0019d70f       _remove                    0059e70f f   libc:unlink.obj
 0001:0019d739       __unlink                   0059e739 f   libc:unlink.obj
 0001:0019d744       _fread                     0059e744 f   libc:fread.obj
 0001:0019d82c       _ftell                     0059e82c f   libc:ftell.obj
 0001:0019d984       _fseek                     0059e984 f   libc:fseek.obj
 0001:0019da10       _strncmp                   0059ea10 f   libc:strncmp.obj
 0001:0019da48       _WinMainCRTStartup         0059ea48 f   libc:wincrt0.obj
 0001:0019db3e       __amsg_exit                0059eb3e f   libc:wincrt0.obj
 0001:0019db90       __except_handler3          0059eb90 f   libc:exsup3.obj
 0001:0019dc4d       __seh_longjmp_unwind@4     0059ec4d f   libc:exsup3.obj
 0001:0019dc68       ?terminate@@YAXXZ          0059ec68 f   libc:hooks.obj
 0001:0019dcbe       ?unexpected@@YAXXZ         0059ecbe f   libc:hooks.obj
 0001:0019dcce       ?_inconsistency@@YAXXZ     0059ecce f   libc:hooks.obj
 0001:0019dd24       __msize                    0059ed24 f   libc:msize.obj
 0001:0019dd85       __get_sbh_threshold        0059ed85 f   libc:sbheap.obj
 0001:0019dda4       __set_sbh_threshold        0059eda4 f   libc:sbheap.obj
 0001:0019de57       ___sbh_heap_init           0059ee57 f   libc:sbheap.obj
 0001:0019de9f       ___sbh_find_block          0059ee9f f   libc:sbheap.obj
 0001:0019deca       ___sbh_free_block          0059eeca f   libc:sbheap.obj
 0001:0019e1f3       ___sbh_alloc_block         0059f1f3 f   libc:sbheap.obj
 0001:0019e4fc       ___sbh_alloc_new_region    0059f4fc f   libc:sbheap.obj
 0001:0019e5ad       ___sbh_alloc_new_group     0059f5ad f   libc:sbheap.obj
 0001:0019e6a8       ___sbh_resize_block        0059f6a8 f   libc:sbheap.obj
 0001:0019e99e       ___sbh_heapmin             0059f99e f   libc:sbheap.obj
 0001:0019ea6f       ___sbh_heap_check          0059fa6f f   libc:sbheap.obj
 0001:0019ed9e       __get_old_sbh_threshold    0059fd9e f   libc:sbheap.obj
 0001:0019eda4       __set_old_sbh_threshold    0059fda4 f   libc:sbheap.obj
 0001:0019edc0       ___old_sbh_new_region      0059fdc0 f   libc:sbheap.obj
 0001:0019ef04       ___old_sbh_release_region  0059ff04 f   libc:sbheap.obj
 0001:0019ef5a       ___old_sbh_decommit_pages  0059ff5a f   libc:sbheap.obj
 0001:0019f01c       ___old_sbh_find_block      005a001c f   libc:sbheap.obj
 0001:0019f073       ___old_sbh_free_block      005a0073 f   libc:sbheap.obj
 0001:0019f0b8       ___old_sbh_alloc_block     005a00b8 f   libc:sbheap.obj
 0001:0019f2c0       ___old_sbh_alloc_block_from_page 005a02c0 f   libc:sbheap.obj
 0001:0019f3e4       ___old_sbh_resize_block    005a03e4 f   libc:sbheap.obj
 0001:0019f48d       ___old_sbh_heap_check      005a048d f   libc:sbheap.obj
 0001:0019f5eb       ?_set_new_handler@@YAP6AHI@ZP6AHI@Z@Z 005a05eb f   libc:handler.obj
 0001:0019f5fb       ?_query_new_handler@@YAP6AHI@ZXZ 005a05fb f   libc:handler.obj
 0001:0019f601       __callnewh                 005a0601 f   libc:handler.obj
 0001:0019f61c       __GetLinkerVersion         005a061c f   libc:heapinit.obj
 0001:0019f649       ___heap_select             005a0649 f   libc:heapinit.obj
 0001:0019f791       __heap_init                005a0791 f   libc:heapinit.obj
 0001:0019f7ee       __heap_term                005a07ee f   libc:heapinit.obj
 0001:0019f896       __close                    005a0896 f   libc:close.obj
 0001:0019f949       __freebuf                  005a0949 f   libc:_freebuf.obj
 0001:0019f974       __openfile                 005a0974 f   libc:_open.obj
 0001:0019fae4       __getstream                005a0ae4 f   libc:stream.obj
 0001:0019fb5c       __flsbuf                   005a0b5c f   libc:_flsbuf.obj
 0001:0019fc71       __output                   005a0c71 f   libc:output.obj
 0001:001a047b       ___crtLCMapStringA         005a147b f   libc:a_map.obj
 0001:001a06ca       ___InternalCxxFrameHandler 005a16ca f   libc:frame.obj
 0001:001a0a11       ___FrameUnwindToState      005a1a11 f   libc:frame.obj
 0001:001a0e3a       ?_DestructExceptionObject@@YAXPAUEHExceptionRecord@@E@Z 005a1e3a f   libc:frame.obj
 0001:001a0ed0       __CallSettingFrame@12      005a1ed0 f   libc:lowhelpr.obj
 0001:001a0ef7       __NLG_Return               005a1ef7 f   libc:lowhelpr.obj
 0001:001a0f1c       _abort                     005a1f1c f   libc:abort.obj
 0001:001a0f33       _setvbuf                   005a1f33 f   libc:setvbuf.obj
 0001:001a0fd4       _signal                    005a1fd4 f   libc:winsig.obj
 0001:001a1118       _raise                     005a2118 f   libc:winsig.obj
 0001:001a128a       ___crtMessageBoxA          005a228a f   libc:crtmbox.obj
 0001:001a1313       __itoa                     005a2313 f   libc:xtoa.obj
 0001:001a1313       _itoa                      005a2313 f   libc:xtoa.obj
 0001:001a139c       __ltoa                     005a239c f   libc:xtoa.obj
 0001:001a13c6       __ultoa                    005a23c6 f   libc:xtoa.obj
 0001:001a13e1       __i64toa                   005a23e1 f   libc:xtoa.obj
 0001:001a1498       __ui64toa                  005a2498 f   libc:xtoa.obj
 0001:001a14c0       _strncat                   005a24c0 f   libc:strncat.obj
 0001:001a15e3       __input                    005a25e3 f   libc:input.obj
 0001:001a2094       __stbuf                    005a3094 f   libc:_sftbuf.obj
 0001:001a2121       __ftbuf                    005a3121 f   libc:_sftbuf.obj
 0001:001a2160       __trandisp1                005a3160 f   libc:87disp.obj
 0001:001a21c7       __trandisp2                005a31c7 f   libc:87disp.obj
 0001:001a2253       __rttospopde               005a3253 f   libc:87disp.obj
 0001:001a2258       __rttospop                 005a3258 f   libc:87disp.obj
 0001:001a225a       __rtnospop                 005a325a f   libc:87disp.obj
 0001:001a225c       __rttosnpop                005a325c f   libc:87disp.obj
 0001:001a225d       __rtnospopde               005a325d f   libc:87disp.obj
 0001:001a2264       __rtzeropop                005a3264 f   libc:87disp.obj
 0001:001a2266       __rtzeronpop               005a3266 f   libc:87disp.obj
 0001:001a226b       __rtonepop                 005a326b f   libc:87disp.obj
 0001:001a226d       __rtonenpop                005a326d f   libc:87disp.obj
 0001:001a2272       __tosnan1                  005a3272 f   libc:87disp.obj
 0001:001a229d       __nosnan2                  005a329d f   libc:87disp.obj
 0001:001a229f       __tosnan2                  005a329f f   libc:87disp.obj
 0001:001a22c7       __nan2                     005a32c7 f   libc:87disp.obj
 0001:001a2306       __rtindfpop                005a3306 f   libc:87disp.obj
 0001:001a2308       __rtindfnpop               005a3308 f   libc:87disp.obj
 0001:001a2319       __rttosnpopde              005a3319 f   libc:87disp.obj
 0001:001a2323       __rtchsifneg               005a3323 f   libc:87disp.obj
 0001:001a2330       __twoToTOS                 005a3330 f   libc:common.obj
 0001:001a2345       __load_CW                  005a3345 f   libc:common.obj
 0001:001a235c       __convertTOStoQNaN         005a335c f   libc:common.obj
 0001:001a2375       __fload_withFB             005a3375 f   libc:common.obj
 0001:001a23b8       __checkTOS_withFB          005a33b8 f   libc:common.obj
 0001:001a23ce       __fast_exit                005a33ce f   libc:common.obj
 0001:001a23db       __math_exit                005a33db f   libc:common.obj
 0001:001a2405       __check_overflow_exit      005a3405 f   libc:common.obj
 0001:001a2419       __check_range_exit         005a3419 f   libc:common.obj
 0001:001a24c0       __startTwoArgErrorHandling 005a34c0 f   libc:genexcep.obj
 0001:001a24d7       __startOneArgErrorHandling 005a34d7 f   libc:genexcep.obj
 0001:001a2513       __setdefaultprecision      005a3513 f   libc:fp8.obj
 0001:001a2525       __ms_p5_test_fdiv          005a3525 f   libc:testfdiv.obj
 0001:001a2563       __ms_p5_mp_test_fdiv       005a3563 f   libc:testfdiv.obj
 0001:001a258c       __forcdecpt                005a358c f   libc:cvt.obj
 0001:001a25e6       __cropzeros                005a35e6 f   libc:cvt.obj
 0001:001a2634       __positive                 005a3634 f   libc:cvt.obj
 0001:001a264c       __fassign                  005a364c f   libc:cvt.obj
 0001:001a268a       __cftoe                    005a368a f   libc:cvt.obj
 0001:001a278e       __cftof                    005a378e f   libc:cvt.obj
 0001:001a286c       __cftog                    005a386c f   libc:cvt.obj
 0001:001a2951       __cfltcvt                  005a3951 f   libc:cvt.obj
 0001:001a29e1       __fFEXP                    005a39e1 f   libc:87tran.obj
 0001:001a2a48       __rtinfpopse               005a3a48 f   libc:87tran.obj
 0001:001a2a4a       __rtinfnpopse              005a3a4a f   libc:87tran.obj
 0001:001a2a5a       __fFLN                     005a3a5a f   libc:87tran.obj
 0001:001a2b0f       __rtinfpop                 005a3b0f f   libc:87tran.obj
 0001:001a2b11       __rtinfnpop                005a3b11 f   libc:87tran.obj
 0001:001a2b2e       __ffexpm1                  005a3b2e f   libc:87tran.obj
 0001:001a2be0       __cintrindisp2             005a3be0 f   libc:87cdisp.obj
 0001:001a2c1e       __cintrindisp1             005a3c1e f   libc:87cdisp.obj
 0001:001a2c54       __ctrandisp2               005a3c54 f   libc:87cdisp.obj
 0001:001a2dc5       __ctrandisp1               005a3dc5 f   libc:87cdisp.obj
 0001:001a2df1       __fload                    005a3df1 f   libc:87cdisp.obj
 0001:001a2e2d       __isctype                  005a3e2d f   libc:isctype.obj
 0001:001a2eb0       __allmul                   005a3eb0 f   libc:llmul.obj
 0001:001a2ee4       __dosmaperr                005a3ee4 f   libc:dosmap.obj
 0001:001a2f6c       __fFATN2                   005a3f6c f   libc:87triga.obj
 0001:001a2fbc       __rtpiby2                  005a3fbc f   libc:87triga.obj
 0001:001a2ff2       ___loctotime_t             005a3ff2 f   libc:dtoxtime.obj
 0001:001a30b4       __ioinit                   005a40b4 f   libc:ioinit.obj
 0001:001a325f       __ioterm                   005a425f f   libc:ioinit.obj
 0001:001a3282       __read                     005a4282 f   libc:read.obj
 0001:001a3478       __getbuf                   005a4478 f   libc:_getbuf.obj
 0001:001a34bc       __fcloseall                005a44bc f   libc:closeall.obj
 0001:001a3514       __write                    005a4514 f   libc:write.obj
 0001:001a36c1       __commit                   005a46c1 f   libc:commit.obj
 0001:001a3718       __lseek                    005a4718 f   libc:lseek.obj
 0001:001a37b2       __XcptFilter               005a47b2 f   libc:winxfltr.obj
 0001:001a3936       __wincmdln                 005a4936 f   libc:wincmdln.obj
 0001:001a398e       __setenvp                  005a498e f   libc:stdenvp.obj
 0001:001a3a47       __setargv                  005a4a47 f   libc:stdargv.obj
 0001:001a3c94       ___crtGetEnvironmentStringsA 005a4c94 f   libc:a_env.obj
 0001:001a3dc6       __FF_MSGBANNER             005a4dc6 f   libc:crt0msg.obj
 0001:001a3dff       __NMSG_WRITE               005a4dff f   libc:crt0msg.obj
 0001:001a3f52       __GET_RTERRMSG             005a4f52 f   libc:crt0msg.obj
 0001:001a3f83       _strtol                    005a4f83 f   libc:strtol.obj
 0001:001a41a2       _strtoul                   005a51a2 f   libc:strtol.obj
 0001:001a41b9       __alloc_osfhnd             005a51b9 f   libc:osfinfo.obj
 0001:001a424e       __set_osfhnd               005a524e f   libc:osfinfo.obj
 0001:001a42c5       __free_osfhnd              005a52c5 f   libc:osfinfo.obj
 0001:001a433f       __get_osfhandle            005a533f f   libc:osfinfo.obj
 0001:001a437c       __open_osfhandle           005a537c f   libc:osfinfo.obj
 0001:001a4419       __open                     005a5419 f   libc:open.obj
 0001:001a4430       __sopen                    005a5430 f   libc:open.obj
 0001:001a46e9       __isatty                   005a56e9 f   libc:isatty.obj
 0001:001a470f       _wctomb                    005a570f f   libc:wctomb.obj
 0001:001a4780       __aulldiv                  005a5780 f   libc:ulldiv.obj
 0001:001a47f0       __aullrem                  005a57f0 f   libc:ullrem.obj
 0001:001a4865       ?__CxxUnhandledExceptionFilter@@YGJPAU_EXCEPTION_POINTERS@@@Z 005a5865 f   libc:unhandld.obj
 0001:001a48ab       ?__CxxSetUnhandledExceptionFilter@@YAXXZ 005a58ab f   libc:unhandld.obj
 0001:001a48bc       ?__CxxRestoreUnhandledExceptionFilter@@YAXXZ 005a58bc f   libc:unhandld.obj
 0001:001a48c9       ?_ValidateRead@@YAHPBXI@Z  005a58c9 f   libc:validate.obj
 0001:001a48e5       ?_ValidateWrite@@YAHPAXI@Z 005a58e5 f   libc:validate.obj
 0001:001a4901       ?_ValidateExecute@@YAHP6GHXZ@Z 005a5901 f   libc:validate.obj
 0001:001a4919       _mbtowc                    005a5919 f   libc:mbtowc.obj
 0001:001a49e1       _isalpha                   005a59e1 f   libc:_ctype.obj
 0001:001a4a0f       _isupper                   005a5a0f f   libc:_ctype.obj
 0001:001a4a37       _islower                   005a5a37 f   libc:_ctype.obj
 0001:001a4a5f       _isdigit                   005a5a5f f   libc:_ctype.obj
 0001:001a4a87       _isxdigit                  005a5a87 f   libc:_ctype.obj
 0001:001a4ab4       _isspace                   005a5ab4 f   libc:_ctype.obj
 0001:001a4adc       _ispunct                   005a5adc f   libc:_ctype.obj
 0001:001a4b04       _isalnum                   005a5b04 f   libc:_ctype.obj
 0001:001a4b32       _isprint                   005a5b32 f   libc:_ctype.obj
 0001:001a4b60       _isgraph                   005a5b60 f   libc:_ctype.obj
 0001:001a4b8e       _iscntrl                   005a5b8e f   libc:_ctype.obj
 0001:001a4bb6       ___isascii                 005a5bb6 f   libc:_ctype.obj
 0001:001a4bc3       ___toascii                 005a5bc3 f   libc:_ctype.obj
 0001:001a4bcb       ___iscsymf                 005a5bcb f   libc:_ctype.obj
 0001:001a4c08       ___iscsym                  005a5c08 f   libc:_ctype.obj
 0001:001a4c50       __allshl                   005a5c50 f   libc:llshl.obj
 0001:001a4c6f       _ungetc                    005a5c6f f   libc:ungetc.obj
 0001:001a4cdd       __87except                 005a5cdd f   libc:87except.obj
 0001:001a4dad       __statusfp                 005a5dad f   libc:ieee87.obj
 0001:001a4dc0       __clearfp                  005a5dc0 f   libc:ieee87.obj
 0001:001a4dd4       __control87                005a5dd4 f   libc:ieee87.obj
 0001:001a4e09       __controlfp                005a5e09 f   libc:ieee87.obj
 0001:001a4e1f       __fpreset                  005a5e1f f   libc:ieee87.obj
 0001:001a4f99       __ZeroTail                 005a5f99 f   libc:intrncvt.obj
 0001:001a4fe2       __IncMan                   005a5fe2 f   libc:intrncvt.obj
 0001:001a5038       __RoundMan                 005a6038 f   libc:intrncvt.obj
 0001:001a50c4       __CopyMan                  005a60c4 f   libc:intrncvt.obj
 0001:001a50df       __FillZeroMan              005a60df f   libc:intrncvt.obj
 0001:001a50eb       __IsZeroMan                005a60eb f   libc:intrncvt.obj
 0001:001a5106       __ShrMan                   005a6106 f   libc:intrncvt.obj
 0001:001a5193       __ld12cvt                  005a6193 f   libc:intrncvt.obj
 0001:001a52ff       __ld12tod                  005a62ff f   libc:intrncvt.obj
 0001:001a5315       __ld12tof                  005a6315 f   libc:intrncvt.obj
 0001:001a532b       __ld12told                 005a632b f   libc:intrncvt.obj
 0001:001a53a5       __atodbl                   005a63a5 f   libc:intrncvt.obj
 0001:001a53d2       __atoldbl                  005a63d2 f   libc:intrncvt.obj
 0001:001a5400       __atoflt                   005a6400 f   libc:intrncvt.obj
 0001:001a542d       __fptostr                  005a642d f   libc:_fptostr.obj
 0001:001a54a4       __fltout                   005a64a4 f   libc:cfout.obj
 0001:001a5508       ___dtold                   005a6508 f   libc:cfout.obj
 0001:001a55be       __fptrap                   005a65be f   libc:crt0fp.obj
 0001:001a55c7       __powhlp                   005a65c7 f   libc:powhlp.obj
 0001:001a56f7       __d_inttype                005a66f7 f   libc:powhlp.obj
 0001:001a5760       _fdiv_main_routine         005a6760 f   libc:adj_fdiv.obj
 0001:001a5877       __adj_fdiv_r               005a6877 f   libc:adj_fdiv.obj
 0001:001a5d16       __fdivp_sti_st             005a6d16 f   libc:adj_fdiv.obj
 0001:001a5d29       __fdivrp_sti_st            005a6d29 f   libc:adj_fdiv.obj
 0001:001a5d3c       __adj_fdiv_m32             005a6d3c f   libc:adj_fdiv.obj
 0001:001a5d88       __adj_fdiv_m64             005a6d88 f   libc:adj_fdiv.obj
 0001:001a5dd4       __adj_fdiv_m16i            005a6dd4 f   libc:adj_fdiv.obj
 0001:001a5e08       __adj_fdiv_m32i            005a6e08 f   libc:adj_fdiv.obj
 0001:001a5e3c       __adj_fdivr_m32            005a6e3c f   libc:adj_fdiv.obj
 0001:001a5e88       __adj_fdivr_m64            005a6e88 f   libc:adj_fdiv.obj
 0001:001a5ed4       __adj_fdivr_m16i           005a6ed4 f   libc:adj_fdiv.obj
 0001:001a5f08       __adj_fdivr_m32i           005a6f08 f   libc:adj_fdiv.obj
 0001:001a5f3c       __safe_fdiv                005a6f3c f   libc:adj_fdiv.obj
 0001:001a5f51       __safe_fdivr               005a6f51 f   libc:adj_fdiv.obj
 0001:001a5f66       __fprem_common             005a6f66 f   libc:adj_fdiv.obj
 0001:001a616c       __adj_fprem                005a716c f   libc:adj_fdiv.obj
 0001:001a621e       __fprem1_common            005a721e f   libc:adj_fdiv.obj
 0001:001a6424       __adj_fprem1               005a7424 f   libc:adj_fdiv.obj
 0001:001a64d9       __safe_fprem               005a74d9 f   libc:adj_fdiv.obj
 0001:001a64df       __safe_fprem1              005a74df f   libc:adj_fdiv.obj
 0001:001a64e5       __adj_fpatan               005a74e5 f   libc:adj_fdiv.obj
 0001:001a64e8       __adj_fptan                005a74e8 f   libc:adj_fdiv.obj
 0001:001a64eb       ___crtGetStringTypeA       005a74eb f   libc:a_str.obj
 0001:001a6634       ___tzset                   005a7634 f   libc:tzset.obj
 0001:001a6649       __tzset                    005a7649 f   libc:tzset.obj
 0001:001a68a7       __isindst                  005a78a7 f   libc:tzset.obj
 0001:001a6b93       __ismbbkalnum              005a7b93 f   libc:ismbbyte.obj
 0001:001a6ba4       __ismbbkprint              005a7ba4 f   libc:ismbbyte.obj
 0001:001a6bb5       __ismbbkpunct              005a7bb5 f   libc:ismbbyte.obj
 0001:001a6bc6       __ismbbalnum               005a7bc6 f   libc:ismbbyte.obj
 0001:001a6bda       __ismbbalpha               005a7bda f   libc:ismbbyte.obj
 0001:001a6bee       __ismbbgraph               005a7bee f   libc:ismbbyte.obj
 0001:001a6c02       __ismbbprint               005a7c02 f   libc:ismbbyte.obj
 0001:001a6c16       __ismbbpunct               005a7c16 f   libc:ismbbyte.obj
 0001:001a6c27       __ismbblead                005a7c27 f   libc:ismbbyte.obj
 0001:001a6c38       __ismbbtrail               005a7c38 f   libc:ismbbyte.obj
 0001:001a6c49       __ismbbkana                005a7c49 f   libc:ismbbyte.obj
 0001:001a6ca1       __setmbcp                  005a7ca1 f   libc:mbctype.obj
 0001:001a7065       __getmbcp                  005a8065 f   libc:mbctype.obj
 0001:001a7075       ___initmbctable            005a8075 f   libc:mbctype.obj
 0001:001a7091       __chsize                   005a8091 f   libc:chsize.obj
 0001:001a71d7       __handle_qnan1             005a81d7 f   libc:fpexcept.obj
 0001:001a722a       __handle_qnan2             005a822a f   libc:fpexcept.obj
 0001:001a7289       __except1                  005a8289 f   libc:fpexcept.obj
 0001:001a7321       __except2                  005a8321 f   libc:fpexcept.obj
 0001:001a73c6       __raise_exc                005a83c6 f   libc:fpexcept.obj
 0001:001a7679       __handle_exc               005a8679 f   libc:fpexcept.obj
 0001:001a7890       __umatherr                 005a8890 f   libc:fpexcept.obj
 0001:001a7918       __set_errno                005a8918 f   libc:fpexcept.obj
 0001:001a7963       __errcode                  005a8963 f   libc:fpexcept.obj
 0001:001a7990       __matherr                  005a8990 f   libc:matherr.obj
 0001:001a7993       __statfp                   005a8993 f   libc:fpctrl.obj
 0001:001a79a1       __clrfp                    005a89a1 f   libc:fpctrl.obj
 0001:001a79b0       __ctrlfp                   005a89b0 f   libc:fpctrl.obj
 0001:001a79d3       __set_statfp               005a89d3 f   libc:fpctrl.obj
 0001:001a7a29       ___addl                    005a8a29 f   libc:mantold.obj
 0001:001a7a4a       ___add_12                  005a8a4a f   libc:mantold.obj
 0001:001a7aa8       ___shl_12                  005a8aa8 f   libc:mantold.obj
 0001:001a7ad6       ___shr_12                  005a8ad6 f   libc:mantold.obj
 0001:001a7b03       ___mtold12                 005a8b03 f   libc:mantold.obj
 0001:001a7bca       ___strgtold12              005a8bca f   libc:strgtold.obj
 0001:001a809b       ___STRINGTOLD              005a909b f   libc:strgtold.obj
 0001:001a80d7       _$I10_OUTPUT               005a90d7 f   libc:x10fout.obj
 0001:001a836a       __set_exp                  005a936a f   libc:util.obj
 0001:001a8393       __get_exp                  005a9393 f   libc:util.obj
 0001:001a83a7       __add_exp                  005a93a7 f   libc:util.obj
 0001:001a83d3       __set_bexp                 005a93d3 f   libc:util.obj
 0001:001a83f7       __sptype                   005a93f7 f   libc:util.obj
 0001:001a8451       __decomp                   005a9451 f   libc:util.obj
 0001:001a8512       __frnd                     005a9512 f   libc:frnd.obj
 0001:001a8524       __copysign                 005a9524 f   libc:ieeemisc.obj
 0001:001a8545       __chgsign                  005a9545 f   libc:ieeemisc.obj
 0001:001a856a       __scalb                    005a956a f   libc:ieeemisc.obj
 0001:001a8580       __logb                     005a9580 f   libc:ieeemisc.obj
 0001:001a8667       __nextafter                005a9667 f   libc:ieeemisc.obj
 0001:001a88fc       __finite                   005a98fc f   libc:ieeemisc.obj
 0001:001a8910       __isnan                    005a9910 f   libc:ieeemisc.obj
 0001:001a893e       __fpclass                  005a993e f   libc:ieeemisc.obj
 0001:001a89d0       _getenv                    005a99d0 f   libc:getenv.obj
 0001:001a8a4d       __setmode                  005a9a4d f   libc:setmode.obj
 0001:001a8ac3       ___ld12mul                 005a9ac3 f   libc:tenpow.obj
 0001:001a8ce3       ___multtenpow12            005a9ce3 f   libc:tenpow.obj
 0001:001a8d5f       _ldexp                     005a9d5f f   libc:ldexp.obj
 0001:001a8f45       __mbsnbicoll               005a9f45 f   libc:mbsnbico.obj
 0001:001a8f84       ___wtomb_environ           005a9f84 f   libc:wtombenv.obj
 0001:001a8ff2       ___crtCompareStringA       005a9ff2 f   libc:a_cmp.obj
 0001:001a929a       ___crtsetenv               005aa29a f   libc:setenv.obj
 0001:001a94e0       __mbschr                   005aa4e0 f   libc:mbschr.obj
 0001:001a9560       _peerInitialize            005aa560 f   Peer:peerMain.obj
 0001:001a9610       _peerConnect               005aa610 f   Peer:peerMain.obj
 0001:001a97b0       _peerRetryWithNick         005aa7b0 f   Peer:peerMain.obj
 0001:001a9800       _peerIsConnected           005aa800 f   Peer:peerMain.obj
 0001:001a9810       _peerSetTitle              005aa810 f   Peer:peerMain.obj
 0001:001a9960       _peerClearTitle            005aa960 f   Peer:peerMain.obj
 0001:001a9a00       _peerDisconnect            005aaa00 f   Peer:peerMain.obj
 0001:001a9a80       _peerShutdown              005aaa80 f   Peer:peerMain.obj
 0001:001a9b50       _peerThink                 005aab50 f   Peer:peerMain.obj
 0001:001a9ba0       _peerGetChat               005aaba0 f   Peer:peerMain.obj
 0001:001a9bc0       _peerJoinTitleRoom         005aabc0 f   Peer:peerMain.obj
 0001:001a9cc0       _peerJoinGroupRoom         005aacc0 f   Peer:peerMain.obj
 0001:001a9dd0       _peerJoinStagingRoom       005aadd0 f   Peer:peerMain.obj
 0001:001a9f70       _peerCreateStagingRoom     005aaf70 f   Peer:peerMain.obj
 0001:001aa080       _peerLeaveRoom             005ab080 f   Peer:peerMain.obj
 0001:001aa100       _peerListGroupRooms        005ab100 f   Peer:peerMain.obj
 0001:001aa1d0       _peerStartListingGames     005ab1d0 f   Peer:peerMain.obj
 0001:001aa220       _peerStopListingGames      005ab220 f   Peer:peerMain.obj
 0001:001aa290       _peerMessageRoom           005ab290 f   Peer:peerMain.obj
 0001:001aa340       _peerSetPassword           005ab340 f   Peer:peerMain.obj
 0001:001aa430       _peerSetRoomName           005ab430 f   Peer:peerMain.obj
 0001:001aa490       _peerGetRoomName           005ab490 f   Peer:peerMain.obj
 0001:001aa4c0       _peerGetRoomChannel        005ab4c0 f   Peer:peerMain.obj
 0001:001aa4f0       _peerEnumPlayers           005ab4f0 f   Peer:peerMain.obj
 0001:001aa590       _peerMessagePlayer         005ab590 f   Peer:peerMain.obj
 0001:001aa620       _peerGetPlayerPing         005ab620 f   Peer:peerMain.obj
 0001:001aa680       _peerGetPlayersCrossPing   005ab680 f   Peer:peerMain.obj
 0001:001aa6b0       _peerGetPlayerProfileID    005ab6b0 f   Peer:peerMain.obj
 0001:001aa7a0       _peerGetPlayerIP           005ab7a0 f   Peer:peerMain.obj
 0001:001aa860       _peerIsPlayerHost          005ab860 f   Peer:peerMain.obj
 0001:001aa8b0       _peerSetReady              005ab8b0 f   Peer:peerMain.obj
 0001:001aa920       _peerGetReady              005ab920 f   Peer:peerMain.obj
 0001:001aa970       _peerAreAllReady           005ab970 f   Peer:peerMain.obj
 0001:001aa9d0       _peerStartGame             005ab9d0 f   Peer:peerMain.obj
 0001:001aaaa0       _peerStartReporting        005abaa0 f   Peer:peerMain.obj
 0001:001aaae0       _peerStopGame              005abae0 f   Peer:peerMain.obj
 0001:001aab20       _peerStateChanged          005abb20 f   Peer:peerMain.obj
 0001:001aab40       _peerGetMyIP               005abb40 f   Peer:peerMain.obj
 0001:001aab50       _KICKUSER                  005abb50 f   Peer:peerMain.obj
 0001:001aab80       _ServerFree                005abb80 f   Peer:gserver.obj
 0001:001aaba0       _ServerNewData             005abba0 f   Peer:gserver.obj
 0001:001aada0       _ServerNew                 005abda0 f   Peer:gserver.obj
 0001:001aae40       _ServerParseKeyVals        005abe40 f   Peer:gserver.obj
 0001:001aaf50       _ServerGetPing             005abf50 f   Peer:gserver.obj
 0001:001aaf60       _ServerGetAddress          005abf60 f   Peer:gserver.obj
 0001:001aaf70       _ServerGetInetAddress      005abf70 f   Peer:gserver.obj
 0001:001aaf80       _ServerGetQueryPort        005abf80 f   Peer:gserver.obj
 0001:001aaf90       _ServerGetStringValue      005abf90 f   Peer:gserver.obj
 0001:001ab050       _ServerGetIntValue         005ac050 f   Peer:gserver.obj
 0001:001ab0d0       _ServerGetFloatValue       005ac0d0 f   Peer:gserver.obj
 0001:001ab100       _ServerGetPlayerStringValue 005ac100 f   Peer:gserver.obj
 0001:001ab140       _ServerGetPlayerIntValue   005ac140 f   Peer:gserver.obj
 0001:001ab180       _ServerGetPlayerFloatValue 005ac180 f   Peer:gserver.obj
 0001:001ab1c0       _ServerEnumKeys            005ac1c0 f   Peer:gserver.obj
 0001:001ab220       _GStringHash               005ac220 f   Peer:gserver.obj
 0001:001ab2a0       _GCaseInsensitiveCompare   005ac2a0 f   Peer:gserver.obj
 0001:001ab2d0       _GStringFree               005ac2d0 f   Peer:gserver.obj
 0001:001ab320       _piAddConnectCallback      005ac320 f   Peer:peerCallbacks.obj
 0001:001ab3a0       _piAddJoinRoomCallback     005ac3a0 f   Peer:peerCallbacks.obj
 0001:001ab490       _piAddListGroupRoomsCallback 005ac490 f   Peer:peerCallbacks.obj
 0001:001ab5c0       _piAddListingGamesCallback 005ac5c0 f   Peer:peerCallbacks.obj
 0001:001ab690       _piAddNickErrorCallback    005ac690 f   Peer:peerCallbacks.obj
 0001:001ab760       _piAddEnumPlayersCallback  005ac760 f   Peer:peerCallbacks.obj
 0001:001ab830       _piAddGetPlayerProfileIDCallback 005ac830 f   Peer:peerCallbacks.obj
 0001:001ab8f0       _piAddGetPlayerIPCallback  005ac8f0 f   Peer:peerCallbacks.obj
 0001:001ab9f0       _piAddRoomMessageCallback  005ac9f0 f   Peer:peerCallbacks.obj
 0001:001aba90       _piAddRoomNameChangedCallback 005aca90 f   Peer:peerCallbacks.obj
 0001:001abb80       _piAddPlayerMessageCallback 005acb80 f   Peer:peerCallbacks.obj
 0001:001abc40       _piAddReadyChangedCallback 005acc40 f   Peer:peerCallbacks.obj
 0001:001abd00       _piAddGameStartedCallback  005acd00 f   Peer:peerCallbacks.obj
 0001:001abdc0       _piAddPlayerJoinedCallback 005acdc0 f   Peer:peerCallbacks.obj
 0001:001abe80       _piAddPlayerLeftCallback   005ace80 f   Peer:peerCallbacks.obj
 0001:001abf90       _piAddPlayerChangedNickCallback 005acf90 f   Peer:peerCallbacks.obj
 0001:001ac040       _piAddDisconnectedCallback 005ad040 f   Peer:peerCallbacks.obj
 0001:001ac0f0       _piAddPingCallback         005ad0f0 f   Peer:peerCallbacks.obj
 0001:001ac200       _piAddCrossPingCallback    005ad200 f   Peer:peerCallbacks.obj
 0001:001ac250       _piCallbacksInit           005ad250 f   Peer:peerCallbacks.obj
 0001:001ac2d0       _piCallbacksCleanup        005ad2d0 f   Peer:peerCallbacks.obj
 0001:001ac2f0       _piCallbacksThink          005ad2f0 f   Peer:peerCallbacks.obj
 0001:001ac500       _piIsCallbackFinished      005ad500 f   Peer:peerCallbacks.obj
 0001:001ac560       _piOperationsInit          005ad560 f   Peer:peerOperations.obj
 0001:001ac5d0       _piOperationsCleanup       005ad5d0 f   Peer:peerOperations.obj
 0001:001ac5f0       _piRemoveOperation         005ad5f0 f   Peer:peerOperations.obj
 0001:001ac670       _piIsOperationFinished     005ad670 f   Peer:peerOperations.obj
 0001:001ac6d0       _piNewConnectOperation     005ad6d0 f   Peer:peerOperations.obj
 0001:001ac8c0       _piNewCreateStagingRoomOperation 005ad8c0 f   Peer:peerOperations.obj
 0001:001acb80       _piNewJoinRoomOperation    005adb80 f   Peer:peerOperations.obj
 0001:001aced0       _piNewListGroupRoomsOperation 005aded0 f   Peer:peerOperations.obj
 0001:001acf10       _piNewListingGamesOperation 005adf10 f   Peer:peerOperations.obj
 0001:001ad060       _piGetPlayerInfoCallback   005ae060 f   Peer:peerOperations.obj
 0001:001ad160       _piNewGetProfileIDOperation 005ae160 f   Peer:peerOperations.obj
 0001:001ad1b0       _piNewGetIPOperation       005ae1b0 f   Peer:peerOperations.obj
 0001:001ad200       _Util_RandSeed             005ae200 f   Peer:peerRand.obj
 0001:001ad220       _Util_RandInt              005ae220 f   Peer:peerRand.obj
 0001:001ad2e0       _ciSendNickAndUser         005ae2e0 f   Peer:chatMain.obj
 0001:001ad380       _chatConnectDoit           005ae380 f   Peer:chatMain.obj
 0001:001ad6d0       _chatConnect               005ae6d0 f   Peer:chatMain.obj
 0001:001ad710       _chatConnectSpecial        005ae710 f   Peer:chatMain.obj
 0001:001ad750       _chatDisconnect            005ae750 f   Peer:chatMain.obj
 0001:001ad7c0       _chatThink                 005ae7c0 f   Peer:chatMain.obj
 0001:001ad7d0       _chatSendRaw               005ae7d0 f   Peer:chatMain.obj
 0001:001ad7f0       _chatEnumChannels          005ae7f0 f   Peer:chatMain.obj
 0001:001ad890       _chatEnterChannel          005ae890 f   Peer:chatMain.obj
 0001:001ad910       _chatLeaveChannel          005ae910 f   Peer:chatMain.obj
 0001:001ad940       _chatSendChannelMessage    005ae940 f   Peer:chatMain.obj
 0001:001ada00       _chatSetChannelTopic       005aea00 f   Peer:chatMain.obj
 0001:001ada30       _chatGetChannelTopic       005aea30 f   Peer:chatMain.obj
 0001:001ada90       _chatSetChannelMode        005aea90 f   Peer:chatMain.obj
 0001:001adba0       _chatGetChannelMode        005aeba0 f   Peer:chatMain.obj
 0001:001adc90       _chatSetChannelPassword    005aec90 f   Peer:chatMain.obj
 0001:001adcd0       _chatGetChannelPassword    005aecd0 f   Peer:chatMain.obj
 0001:001add70       _chatEnumChannelBans       005aed70 f   Peer:chatMain.obj
 0001:001addd0       _chatAddChannelBan         005aedd0 f   Peer:chatMain.obj
 0001:001ade00       _chatRemoveChannelBan      005aee00 f   Peer:chatMain.obj
 0001:001ade30       _ciEnumUsersCallback       005aee30 f   Peer:chatMain.obj
 0001:001ade90       _chatEnumUsers             005aee90 f   Peer:chatMain.obj
 0001:001adf70       _chatEnumJoinedChannels    005aef70 f   Peer:chatMain.obj
 0001:001adf90       _chatSendUserMessage       005aef90 f   Peer:chatMain.obj
 0001:001ae000       _chatGetUserInfo           005af000 f   Peer:chatMain.obj
 0001:001ae060       _chatInviteUser            005af060 f   Peer:chatMain.obj
 0001:001ae090       _chatKickUser              005af090 f   Peer:chatMain.obj
 0001:001ae0d0       _chatBanUser               005af0d0 f   Peer:chatMain.obj
 0001:001ae100       _chatSetUserMode           005af100 f   Peer:chatMain.obj
 0001:001ae180       _chatGetUserMode           005af180 f   Peer:chatMain.obj
 0001:001ae260       _chatRetryWithNick         005af260 f   Peer:chatMain.obj
 0001:001ae2e0       _chatChangeNick            005af2e0 f   Peer:chatMain.obj
 0001:001ae3f0       _chatGetNick               005af3f0 f   Peer:chatMain.obj
 0001:001ae410       _piCEngineInit             005af410 f   Peer:peerCEngine.obj
 0001:001ae4d0       _piCEngineCleanup          005af4d0 f   Peer:peerCEngine.obj
 0001:001ae550       _piCEngineStartListingGames 005af550 f   Peer:peerCEngine.obj
 0001:001ae670       _piCEngineStopListingGames 005af670 f   Peer:peerCEngine.obj
 0001:001ae820       _piListingGamesChannelMessage 005af820 f   Peer:peerCEngine.obj
 0001:001aeae0       _piListingGamesChannelKicked 005afae0 f   Peer:peerCEngine.obj
 0001:001aeaf0       _piRestartListingGames     005afaf0 f   Peer:peerCEngine.obj
 0001:001aeb20       _piCEngineStartListingGroups 005afb20 f   Peer:peerCEngine.obj
 0001:001aeb80       _piCEngineStopListingGroups 005afb80 f   Peer:peerCEngine.obj
 0001:001aed10       _piCEngineThink            005afd10 f   Peer:peerCEngine.obj
 0001:001aed40       _piRoomsInit               005afd40 f   Peer:peerRooms.obj
 0001:001aed90       _piRoomsCleanup            005afd90 f   Peer:peerRooms.obj
 0001:001aee00       _piStartedEnteringRoom     005afe00 f   Peer:peerRooms.obj
 0001:001aee60       _piFinishedEnteringRoom    005afe60 f   Peer:peerRooms.obj
 0001:001aeeb0       _piStartHosting            005afeb0 f   Peer:peerRooms.obj
 0001:001aef40       _piResetHosting            005aff40 f   Peer:peerRooms.obj
 0001:001aef60       _piStopHosting             005aff60 f   Peer:peerRooms.obj
 0001:001aefb0       _piStartReporting          005affb0 f   Peer:peerRooms.obj
 0001:001af020       _piStopReporting           005b0020 f   Peer:peerRooms.obj
 0001:001af080       _piLeaveRoom               005b0080 f   Peer:peerRooms.obj
 0001:001af140       _piRoomToType              005b0140 f   Peer:peerRooms.obj
 0001:001af190       _piPingInit                005b0190 f   Peer:peerPing.obj
 0001:001af3d0       _piPingCleanup             005b03d0 f   Peer:peerPing.obj
 0001:001af430       _piPingThink               005b0430 f   Peer:peerPing.obj
 0001:001af880       _piPingInitPlayer          005b0880 f   Peer:peerPing.obj
 0001:001af8f0       _piPingCleanupPlayer       005b08f0 f   Peer:peerPing.obj
 0001:001af950       _piPingPlayerJoinedRoom    005b0950 f   Peer:peerPing.obj
 0001:001af990       _piPingPlayerLeftRoom      005b0990 f   Peer:peerPing.obj
 0001:001afaf0       _piUpdateXping             005b0af0 f   Peer:peerPing.obj
 0001:001afbf0       _piGetXping                005b0bf0 f   Peer:peerPing.obj
 0001:001afca0       _piPlayersInit             005b0ca0 f   Peer:peerPlayers.obj
 0001:001afd60       _piPlayersCleanup          005b0d60 f   Peer:peerPlayers.obj
 0001:001afda0       _piPlayerJoinedRoom        005b0da0 f   Peer:peerPlayers.obj
 0001:001aff00       _piPlayerLeftRoom          005b0f00 f   Peer:peerPlayers.obj
 0001:001affc0       _piPlayerChangedNick       005b0fc0 f   Peer:peerPlayers.obj
 0001:001b0030       _piClearRoomPlayers        005b1030 f   Peer:peerPlayers.obj
 0001:001b0090       _piGetPlayer               005b1090 f   Peer:peerPlayers.obj
 0001:001b00f0       _piEnumRoomPlayersMap      005b10f0 f   Peer:peerPlayers.obj
 0001:001b0130       _piEnumRoomPlayers         005b1130 f   Peer:peerPlayers.obj
 0001:001b0180       _qr_init                   005b1180 f   Peer:gqueryreporting.obj
 0001:001b03a0       _qr_process_queries        005b13a0 f   Peer:gqueryreporting.obj
 0001:001b03c0       _qr_check_queries          005b13c0 f   Peer:gqueryreporting.obj
 0001:001b0460       _qr_check_send_heartbeat   005b1460 f   Peer:gqueryreporting.obj
 0001:001b04e0       _qr_send_statechanged      005b14e0 f   Peer:gqueryreporting.obj
 0001:001b0500       _qr_shutdown               005b1500 f   Peer:gqueryreporting.obj
 0001:001b0620       _gs_encode                 005b1620 f   Peer:gqueryreporting.obj
 0001:001b0700       _gs_encrypt                005b1700 f   Peer:gqueryreporting.obj
 0001:001b11b0       _EncodeIPAddr              005b21b0 f   Peer:peerMangle.obj
 0001:001b1270       _DecodeIPAddr              005b2270 f   Peer:peerMangle.obj
 0001:001b1310       _piMangleTitleRoom         005b2310 f   Peer:peerMangle.obj
 0001:001b1330       _piMangleGroupRoom         005b2330 f   Peer:peerMangle.obj
 0001:001b1350       _piMangleStagingRoom       005b2350 f   Peer:peerMangle.obj
 0001:001b1380       _piMangleUpdatesRoom       005b2380 f   Peer:peerMangle.obj
 0001:001b13c0       _piMangleUser              005b23c0 f   Peer:peerMangle.obj
 0001:001b13f0       _piDemangleUser            005b23f0 f   Peer:peerMangle.obj
 0001:001b1490       _ServerListNew             005b2490 f   Peer:gserverlist.obj
 0001:001b15a0       _ServerListFree            005b25a0 f   Peer:gserverlist.obj
 0001:001b15e0       _ServerListUpdate          005b25e0 f   Peer:gserverlist.obj
 0001:001b1600       _ServerListUpdate2         005b2600 f   Peer:gserverlist.obj
 0001:001b19d0       _ServerListLANUpdate       005b29d0 f   Peer:gserverlist.obj
 0001:001b1b10       _ServerListRemoveServer    005b2b10 f   Peer:gserverlist.obj
 0001:001b1c30       _ServerListAuxUpdate       005b2c30 f   Peer:gserverlist.obj
 0001:001b1e10       _ServerListThink           005b2e10 f   Peer:gserverlist.obj
 0001:001b2730       _ServerListHalt            005b3730 f   Peer:gserverlist.obj
 0001:001b2750       _ServerListClear           005b3750 f   Peer:gserverlist.obj
 0001:001b27c0       _ServerListState           005b37c0 f   Peer:gserverlist.obj
 0001:001b27d0       _ServerListErrorDesc       005b37d0 f   Peer:gserverlist.obj
 0001:001b2830       _ServerListGetServer       005b3830 f   Peer:gserverlist.obj
 0001:001b2870       _ServerListCount           005b3870 f   Peer:gserverlist.obj
 0001:001b2890       _ServerListSort            005b3890 f   Peer:gserverlist.obj
 0001:001b2af0       _piChatDisconnected        005b3af0 f   Peer:peerGlobalCallbacks.obj
 0001:001b2b10       _piChatPrivateMessage      005b3b10 f   Peer:peerGlobalCallbacks.obj
 0001:001b2e60       _piChannelMessage          005b3e60 f   Peer:peerGlobalCallbacks.obj
 0001:001b2ed0       _piChannelKicked           005b3ed0 f   Peer:peerGlobalCallbacks.obj
 0001:001b2ee0       _piChannelUserJoined       005b3ee0 f   Peer:peerGlobalCallbacks.obj
 0001:001b2fa0       _piChannelUserParted       005b3fa0 f   Peer:peerGlobalCallbacks.obj
 0001:001b2fe0       _piChannelUserChangedNick  005b3fe0 f   Peer:peerGlobalCallbacks.obj
 0001:001b3030       _piChannelTopicChanged     005b4030 f   Peer:peerGlobalCallbacks.obj
 0001:001b30d0       _piSetChannelCallbacks     005b40d0 f   Peer:peerGlobalCallbacks.obj
 0001:001b3120       _piGOABasicCallback        005b4120 f   Peer:peerGlobalCallbacks.obj
 0001:001b3200       _piGOAInfoCallback         005b4200 f   Peer:peerGlobalCallbacks.obj
 0001:001b33b0       _piGOARulesCallback        005b43b0 f   Peer:peerGlobalCallbacks.obj
 0001:001b33f0       _piGOAPlayersCallbackEnumPlayers 005b43f0 f   Peer:peerGlobalCallbacks.obj
 0001:001b34a0       _piGOAPlayersCallback      005b44a0 f   Peer:peerGlobalCallbacks.obj
 0001:001b3530       _ciGetTime                 005b4530 f   Peer:chatSocket.obj
 0001:001b3590       _ciSocketInit              005b4590 f   Peer:chatSocket.obj
 0001:001b3640       _ciSocketConnect           005b4640 f   Peer:chatSocket.obj
 0001:001b3720       _ciSocketDisconnect        005b4720 f   Peer:chatSocket.obj
 0001:001b3800       _ciSocketThink             005b4800 f   Peer:chatSocket.obj
 0001:001b3b10       _ciSocketSend              005b4b10 f   Peer:chatSocket.obj
 0001:001b3bc0       _ciSocketSendf             005b4bc0 f   Peer:chatSocket.obj
 0001:001b3c20       _ciParseParam              005b4c20 f   Peer:chatSocket.obj
 0001:001b3d90       _ciSocketRecv              005b4d90 f   Peer:chatSocket.obj
 0001:001b44d0       _ciInitCallbacks           005b54d0 f   Peer:chatCallbacks.obj
 0001:001b4510       _ciCleanupCallbacks        005b5510 f   Peer:chatCallbacks.obj
 0001:001b48c0       _ciAddCallback_            005b58c0 f   Peer:chatCallbacks.obj
 0001:001b5290       _ciCallCallback            005b6290 f   Peer:chatCallbacks.obj
 0001:001b5500       _ciCallCallbacks           005b6500 f   Peer:chatCallbacks.obj
 0001:001b55e0       _ciCheckCallbacksForID     005b65e0 f   Peer:chatCallbacks.obj
 0001:001b5650       _ciInitChannels            005b6650 f   Peer:chatChannel.obj
 0001:001b5760       _ciCleanupChannels         005b6760 f   Peer:chatChannel.obj
 0001:001b5790       _ciChannelEntering         005b6790 f   Peer:chatChannel.obj
 0001:001b57f0       _ciEnteringChannelComparator 005b67f0 f   Peer:chatChannel.obj
 0001:001b5810       _ciIsEnteringChannel       005b6810 f   Peer:chatChannel.obj
 0001:001b5870       _ciChannelEntered          005b6870 f   Peer:chatChannel.obj
 0001:001b59c0       _ciChannelLeft             005b69c0 f   Peer:chatChannel.obj
 0001:001b5a50       _ciGetChannelCallbacks     005b6a50 f   Peer:chatChannel.obj
 0001:001b5ad0       _ciChannelListUsers        005b6ad0 f   Peer:chatChannel.obj
 0001:001b5c00       _ciInChannel               005b6c00 f   Peer:chatChannel.obj
 0001:001b5c20       _ciGetChannelMode          005b6c20 f   Peer:chatChannel.obj
 0001:001b5c60       _ciSetChannelMode          005b6c60 f   Peer:chatChannel.obj
 0001:001b5ca0       _ciSetChannelPassword      005b6ca0 f   Peer:chatChannel.obj
 0001:001b5d20       _ciGetChannelPassword      005b6d20 f   Peer:chatChannel.obj
 0001:001b5d40       _ciJoinCallbackCalled      005b6d40 f   Peer:chatChannel.obj
 0001:001b5d70       _ciWasJoinCallbackCalled   005b6d70 f   Peer:chatChannel.obj
 0001:001b5d90       _ciUserEnteredChannel      005b6d90 f   Peer:chatChannel.obj
 0001:001b5e30       _ciUserLeftChannel         005b6e30 f   Peer:chatChannel.obj
 0001:001b5ea0       _ciUserEnumChannels        005b6ea0 f   Peer:chatChannel.obj
 0001:001b5f60       _ciUserChangedNick         005b6f60 f   Peer:chatChannel.obj
 0001:001b6080       _ciUserChangedMode         005b7080 f   Peer:chatChannel.obj
 0001:001b61d0       _ciUserInChannel           005b71d0 f   Peer:chatChannel.obj
 0001:001b6250       _ciGetUserMode             005b7250 f   Peer:chatChannel.obj
 0001:001b6300       _ciEnumJoinedChannels      005b7300 f   Peer:chatChannel.obj
 0001:001b6380       _ciFilterThink             005b7380 f   Peer:chatHandlers.obj
 0001:001b6900       _ciGetNextID               005b7900 f   Peer:chatHandlers.obj
 0001:001b6930       _ciCheckFiltersForID       005b7930 f   Peer:chatHandlers.obj
 0001:001b6960       _ciCleanupFilters          005b7960 f   Peer:chatHandlers.obj
 0001:001b6990       _ciAddLISTFilter           005b7990 f   Peer:chatHandlers.obj
 0001:001b6ab0       _ciAddJOINFilter           005b7ab0 f   Peer:chatHandlers.obj
 0001:001b6b40       _ciAddTOPICFilter          005b7b40 f   Peer:chatHandlers.obj
 0001:001b6b70       _ciAddNAMESFilter          005b7b70 f   Peer:chatHandlers.obj
 0001:001b6bc0       _ciAddWHOISFilter          005b7bc0 f   Peer:chatHandlers.obj
 0001:001b6c20       _ciAddCMODEFilter          005b7c20 f   Peer:chatHandlers.obj
 0001:001b6c50       _ciAddUMODEFilter          005b7c50 f   Peer:chatHandlers.obj
 0001:001b6c80       _ciAddBANFilter            005b7c80 f   Peer:chatHandlers.obj
 0001:001b6ce0       _ciAddGETBANFilter         005b7ce0 f   Peer:chatHandlers.obj
 0001:001b6d20       _ciAddNICKFilter           005b7d20 f   Peer:chatHandlers.obj
 0001:001b6d50       _ciParseMode               005b7d50 f   Peer:chatHandlers.obj
 0001:001b6f70       _ciApplyChangesToMode      005b7f70 f   Peer:chatHandlers.obj
 0001:001b7010       _ciNickError               005b8010 f   Peer:chatHandlers.obj
 0001:001b7080       _ciPrivmsgHandler          005b8080 f   Peer:chatHandlers.obj
 0001:001b7260       _ciNoticeHandler           005b8260 f   Peer:chatHandlers.obj
 0001:001b7330       _ciPingHandler             005b8330 f   Peer:chatHandlers.obj
 0001:001b7350       _ciNickHandler             005b8350 f   Peer:chatHandlers.obj
 0001:001b7470       _ciJoinHandler             005b8470 f   Peer:chatHandlers.obj
 0001:001b7600       _ciPartHandler             005b8600 f   Peer:chatHandlers.obj
 0001:001b76e0       _ciKickHandler             005b86e0 f   Peer:chatHandlers.obj
 0001:001b7820       _ciQuitEnumChannelsCallback 005b8820 f   Peer:chatHandlers.obj
 0001:001b78d0       _ciQuitHandler             005b88d0 f   Peer:chatHandlers.obj
 0001:001b7900       _ciKillEnumChannelsCallback 005b8900 f   Peer:chatHandlers.obj
 0001:001b79b0       _ciKillHandler             005b89b0 f   Peer:chatHandlers.obj
 0001:001b79e0       _ciTopicHandler            005b89e0 f   Peer:chatHandlers.obj
 0001:001b7a40       _ciModeHandler             005b8a40 f   Peer:chatHandlers.obj
 0001:001b7b30       _ciErrorHandler            005b8b30 f   Peer:chatHandlers.obj
 0001:001b7ba0       _ciInviteHandler           005b8ba0 f   Peer:chatHandlers.obj
 0001:001b7bf0       _ciNameReplyHandler        005b8bf0 f   Peer:chatHandlers.obj
 0001:001b7d70       _ciEndOfNamesHandler       005b8d70 f   Peer:chatHandlers.obj
 0001:001b7e60       _ciRplTopicHandler         005b8e60 f   Peer:chatHandlers.obj
 0001:001b7f00       _ciRplNoTopicHandler       005b8f00 f   Peer:chatHandlers.obj
 0001:001b7fa0       _ciRplNickInUseHandler     005b8fa0 f   Peer:chatHandlers.obj
 0001:001b8010       _ciRplWhoReplyHandler      005b9010 f   Peer:chatHandlers.obj
 0001:001b80b0       _ciRplUserIPHandler        005b90b0 f   Peer:chatHandlers.obj
 0001:001b8140       _ciRplListStartHandler     005b9140 f   Peer:chatHandlers.obj
 0001:001b8170       _ciRplListHandler          005b9170 f   Peer:chatHandlers.obj
 0001:001b8350       _ciRplListEndHandler       005b9350 f   Peer:chatHandlers.obj
 0001:001b83b0       _ciRplChannelModeIsHandler 005b93b0 f   Peer:chatHandlers.obj
 0001:001b84b0       _ciRplWhoisUserHandler     005b94b0 f   Peer:chatHandlers.obj
 0001:001b8600       _ciRplWhoisChannelsHandler 005b9600 f   Peer:chatHandlers.obj
 0001:001b8700       _ciRplEndOfWhoisHandler    005b9700 f   Peer:chatHandlers.obj
 0001:001b8780       _ciRplBanListHandler       005b9780 f   Peer:chatHandlers.obj
 0001:001b8810       _ciRplEndOfBanListHandler  005b9810 f   Peer:chatHandlers.obj
 0001:001b8870       _ciRplWelcomeHandler       005b9870 f   Peer:chatHandlers.obj
 0001:001b88a0       _ciErrNoSuchChannelHandler 005b98a0 f   Peer:chatHandlers.obj
 0001:001b8930       _ciErrTooManyChannelsHandler 005b9930 f   Peer:chatHandlers.obj
 0001:001b8980       _ciErrChannelIsFullHandler 005b9980 f   Peer:chatHandlers.obj
 0001:001b89d0       _ciErrInviteOnlyChanHandler 005b99d0 f   Peer:chatHandlers.obj
 0001:001b8a20       _ciErrBannedFromChanHandler 005b9a20 f   Peer:chatHandlers.obj
 0001:001b8a70       _ciErrBadChannelKeyHandler 005b9a70 f   Peer:chatHandlers.obj
 0001:001b8ac0       _ciErrBadChanMaskHandler   005b9ac0 f   Peer:chatHandlers.obj
 0001:001b8b10       _ciErrNoSuchNickHandler    005b9b10 f   Peer:chatHandlers.obj
 0001:001b8b20       _ciErrErroneusNicknameHandler 005b9b20 f   Peer:chatHandlers.obj
 0001:001b8b40       _pingerInit                005b9b40 f   Peer:pingerMain.obj
 0001:001b8d40       _pingerShutdown            005b9d40 f   Peer:pingerMain.obj
 0001:001b8d90       _pingerThink               005b9d90 f   Peer:pingerMain.obj
 0001:001b9680       _pingerPing                005ba680 f   Peer:pingerMain.obj
 0001:001b9780       _mciGetErrorStringA@12     005ba780 f   Winmm:WINMM.dll
 0001:001b9786       _mciSendCommandA@16        005ba786 f   Winmm:WINMM.dll
 0001:001b978c       _mmioClose@8               005ba78c f   Winmm:WINMM.dll
 0001:001b9792       _mmioAscend@12             005ba792 f   Winmm:WINMM.dll
 0001:001b9798       _mmioRead@12               005ba798 f   Winmm:WINMM.dll
 0001:001b979e       _mmioDescend@16            005ba79e f   Winmm:WINMM.dll
 0001:001b97a4       _mmioOpenA@12              005ba7a4 f   Winmm:WINMM.dll
 0001:001b97aa       _mixerGetLineControlsA@12  005ba7aa f   Winmm:WINMM.dll
 0001:001b97b0       _mixerGetLineInfoA@12      005ba7b0 f   Winmm:WINMM.dll
 0001:001b97b6       _mixerOpen@20              005ba7b6 f   Winmm:WINMM.dll
 0001:001b97bc       _mixerGetNumDevs@0         005ba7bc f   Winmm:WINMM.dll
 0001:001b97c2       _mixerClose@4              005ba7c2 f   Winmm:WINMM.dll
 0001:001b97c8       _mixerGetControlDetailsA@12 005ba7c8 f   Winmm:WINMM.dll
 0001:001b97ce       _mixerSetControlDetails@12 005ba7ce f   Winmm:WINMM.dll
 0001:001b97d4       _DirectDrawCreate@12       005ba7d4 f   Ddraw:DDRAW.dll
 0001:001b97da       _DirectSoundCreate@12      005ba7da f   dsound:DSOUND.dll
 0001:001b97e0       _DirectPlayLobbyCreateA@20 005ba7e0 f   dplayx:DPLAYX.dll
 0001:001b97f0       ??0CPinger@@QAE@XZ         005ba7f0 f   Pinger:Pinger.obj
 0001:001b9830       ??_GCPinger@@UAEPAXI@Z     005ba830 f i Pinger:Pinger.obj
 0001:001b9830       ??_ECPinger@@UAEPAXI@Z     005ba830 f i Pinger:Pinger.obj
 0001:001b9850       ??1CPinger@@UAE@XZ         005ba850 f   Pinger:Pinger.obj
 0001:001b9870       ?InitNetwork@CPinger@@QAEHXZ 005ba870 f   Pinger:Pinger.obj
 0001:001b9900       ?DoneNetwork@CPinger@@QAEHXZ 005ba900 f   Pinger:Pinger.obj
 0001:001b9930       ?SetTargetName@CPinger@@QAEHPBD@Z 005ba930 f   Pinger:Pinger.obj
 0001:001b99c0       ?SendEcho@CPinger@@QAEHXZ  005ba9c0 f   Pinger:Pinger.obj
 0001:001b9a30       ?checksum@CPinger@@IAEGPAGH@Z 005baa30 f   Pinger:Pinger.obj
 0001:001b9a90       ?RecvEcho@CPinger@@QAEHXZ  005baa90 f   Pinger:Pinger.obj
 0001:001b9b20       ?GetStatistic@CPinger@@QAEHPAE0@Z 005bab20 f   Pinger:Pinger.obj
 0001:001b9b50       ?LeaveGSCRoom@@YAXXZ       005bab50 f   ichat:iChat.dll
 0001:001b9b56       ?ReportGSCGame@@YAXHHPAUOnePlayerReport@@@Z 005bab56 f   ichat:iChat.dll
 0001:001b9b5c       ?ReportAliveState@@YAXHPAH@Z 005bab5c f   ichat:iChat.dll
 0001:001b9b62       ?StartGSCGame@@YAXPAD0HPAHPAPAD11@Z 005bab62 f   ichat:iChat.dll
 0001:001b9b68       ?SendPrivateMessage@@YAXPAD0@Z 005bab68 f   ichat:iChat.dll
 0001:001b9b6e       ?Process_GSC_ChatWindow@@YAH_NPAURoomInfo@@@Z 005bab6e f   ichat:iChat.dll
 0001:001b9b74       ?ChatProcess@@YAXXZ        005bab74 f   ichat:iChat.dll
 0001:001b9b7a       ?GoHomeAnyway@@YAXXZ       005bab7a f   ichat:iChat.dll
 0001:001b9b80       ?GetGameID@@YAXPAD@Z       005bab80 f   ichat:iChat.dll
 0001:001b9b86       ?SendVictoryState@@YAXHE@Z 005bab86 f   ichat:iChat.dll
 0001:001b9b90       ??0CCommCore@@QAE@XZ       005bab90 f   CommCore:CommInit.obj
 0001:001b9d40       ??_GCCommCore@@UAEPAXI@Z   005bad40 f i CommCore:CommInit.obj
 0001:001b9d40       ??_ECCommCore@@UAEPAXI@Z   005bad40 f i CommCore:CommInit.obj
 0001:001b9da0       ??1CCommCore@@UAE@XZ       005bada0 f   CommCore:CommInit.obj
 0001:001b9e00       ?InitServer@CCommCore@@QAEHPBD0@Z 005bae00 f   CommCore:CommInit.obj
 0001:001b9f80       ?InitClient@CCommCore@@QAEHPBD0@Z 005baf80 f   CommCore:CommInit.obj
 0001:001ba1b0       ?DoneClient@CCommCore@@QAEHXZ 005bb1b0 f   CommCore:CommInit.obj
 0001:001ba230       ?DoneServer@CCommCore@@QAEHXZ 005bb230 f   CommCore:CommInit.obj
 0001:001ba2c0       ?Cleanup@CCommCore@@IAEXXZ 005bb2c0 f   CommCore:CommInit.obj
 0001:001ba3f0       ?SetSessionName@CCommCore@@QAEHPBD@Z 005bb3f0 f   CommCore:CommCore.obj
 0001:001ba440       ?GetUserNameA@CCommCore@@QAEPBDG@Z 005bb440 f   CommCore:CommCore.obj
 0001:001ba4d0       ?SetUserName@CCommCore@@QAEHPBD@Z 005bb4d0 f   CommCore:CommCore.obj
 0001:001ba520       ?SendUserName@CCommCore@@QAEHXZ 005bb520 f   CommCore:CommCore.obj
 0001:001ba5d0       ?GetUserData@CCommCore@@QAEHGPAEPAG@Z 005bb5d0 f   CommCore:CommCore.obj
 0001:001ba700       ?SetUserData@CCommCore@@QAEHQAEG@Z 005bb700 f   CommCore:CommCore.obj
 0001:001ba7d0       ?SendUserData@CCommCore@@QAEHXZ 005bb7d0 f   CommCore:CommCore.obj
 0001:001ba9b0       ?SendDropClient@CCommCore@@QAEHG@Z 005bb9b0 f   CommCore:CommCore.obj
 0001:001baa50       ?SendToAll@CCommCore@@QAEHPAEGH@Z 005bba50 f   CommCore:CommCore.obj
 0001:001baae0       ?SendToPeer@CCommCore@@QAEHGPAEGH@Z 005bbae0 f   CommCore:CommCore.obj
 0001:001bac20       ?SendConfirmDataPacket@CCommCore@@IAEHPAUsockaddr_in@@K@Z 005bbc20 f   CommCore:CommCore.obj
 0001:001bac90       ?SendConnectReject@CCommCore@@IAEHPAUsockaddr_in@@G@Z 005bbc90 f   CommCore:CommCore.obj
 0001:001bad00       ?SendConnectOk@CCommCore@@IAEHPAUsockaddr_in@@G@Z 005bbd00 f   CommCore:CommCore.obj
 0001:001bad90       ?SendDropOk@CCommCore@@IAEHPAUsockaddr_in@@@Z 005bbd90 f   CommCore:CommCore.obj
 0001:001bae00       ?SetCommCoreUID@CCommCore@@IAEXPBD@Z 005bbe00 f   CommCore:CommCore.obj
 0001:001baea0       ?NewCommCoreUID@CCommCore@@IAEXPAD@Z 005bbea0 f   CommCore:CommCore.obj
 0001:001bafc0       ?GetCommCoreUID@CCommCore@@IAEXPAD@Z 005bbfc0 f   CommCore:CommCore.obj
 0001:001bb0b0       ?SendNewName@CCommCore@@IAEHG@Z 005bc0b0 f   CommCore:CommCore.obj
 0001:001bb1a0       ?SendNewData@CCommCore@@IAEHG@Z 005bc1a0 f   CommCore:CommCore.obj
 0001:001bb340       ?IsOverNAT@CCommCore@@QAEHG@Z 005bc340 f   CommCore:CommCore.obj
 0001:001bb3c0       ?GetServerAddress@CCommCore@@QAEXPAD@Z 005bc3c0 f   CommCore:CommCore.obj
 0001:001bb420       ?GetPeerByCCUID@CCommCore@@IAEGPBD@Z 005bc420 f   CommCore:CommPeers.obj
 0001:001bb4b0       ?GetPeerById@CCommCore@@IAEGG@Z 005bc4b0 f   CommCore:CommPeers.obj
 0001:001bb530       ?DropPeer@CCommCore@@IAEHG@Z 005bc530 f   CommCore:CommPeers.obj
 0001:001bb5f0       ?DeletePeer@CCommCore@@QAEHG@Z 005bc5f0 f   CommCore:CommPeers.obj
 0001:001bb660       ?EnumPeers@CCommCore@@QAEHXZ 005bc660 f   CommCore:CommPeers.obj
 0001:001bb740       ?ReceiveData@CCommCore@@QAEGPAEPAG@Z 005bc740 f   CommCore:CommRecv.obj
 0001:001bc230       ?InitNetwork@CCommCore@@QAEHXZ 005bd230 f   CommCore:CommInet.obj
 0001:001bc2b0       ?InitHost@CCommCore@@IAEHXZ 005bd2b0 f   CommCore:CommInet.obj
 0001:001bc3a0       ?CloseNetwork@CCommCore@@QAEHXZ 005bd3a0 f   CommCore:CommInet.obj
 0001:001bc400       ?InitSocket@CCommCore@@IAEHXZ 005bd400 f   CommCore:CommInet.obj
 0001:001bc540       ?CloseSocket@CCommCore@@IAEHXZ 005bd540 f   CommCore:CommInet.obj
 0001:001bc5a0       ?QueuePacketExists@CCommCore@@IAEHK@Z 005bd5a0 f   CommCore:CommQueue.obj
 0001:001bc610       ?QueueAddPacket@CCommCore@@IAEHUin_addr@@GPAUCC_PK_RAW_FRAME@@G@Z 005bd610 f   CommCore:CommQueue.obj
 0001:001bc730       ?QueueDropPacket@CCommCore@@IAEHH@Z 005bd730 f   CommCore:CommQueue.obj
 0001:001bc7e0       ?QueueDropConfirmedPacket@CCommCore@@IAEHK@Z 005bd7e0 f   CommCore:CommQueue.obj
 0001:001bc860       ?QueueProcess@CCommCore@@QAEHXZ 005bd860 f   CommCore:CommQueue.obj
 0001:001bc9a0       ?QueueClearAll@CCommCore@@IAEHXZ 005bd9a0 f   CommCore:CommQueue.obj
 0001:001bca20       ?ReSendFrame@CCommCore@@IAEHG@Z 005bda20 f   CommCore:CommRaw.obj
 0001:001bcb30       ?SendRawPacket@CCommCore@@IAEHUin_addr@@GGPAEGHH@Z 005bdb30 f   CommCore:CommRaw.obj
 0001:001bcdb0       ?SendServerList@CCommCore@@QAEHXZ 005bddb0 f   CommCore:CommServerList.obj
 0001:001bcfe0       ?ProcessServerList@CCommCore@@IAEHPAUCC_PK_SERVER_LIST@@@Z 005bdfe0 f   CommCore:CommServerList.obj
 0001:001bd310       _gpInitialize              005be310 f   GP:gp.obj
 0001:001bd330       _gpDestroy                 005be330 f   GP:gp.obj
 0001:001bd350       _gpEnable                  005be350 f   GP:gp.obj
 0001:001bd380       _gpDisable                 005be380 f   GP:gp.obj
 0001:001bd3b0       _gpProcess                 005be3b0 f   GP:gp.obj
 0001:001bd3e0       _gpSetCallback             005be3e0 f   GP:gp.obj
 0001:001bd430       _gpConnect                 005be430 f   GP:gp.obj
 0001:001bd4c0       _gpConnectNewUser          005be4c0 f   GP:gp.obj
 0001:001bd550       _gpDisconnect              005be550 f   GP:gp.obj
 0001:001bd580       _gpGetErrorCode            005be580 f   GP:gp.obj
 0001:001bd5c0       _gpGetErrorString          005be5c0 f   GP:gp.obj
 0001:001bd600       _gpNewProfile              005be600 f   GP:gp.obj
 0001:001bd6d0       _gpDeleteProfile           005be6d0 f   GP:gp.obj
 0001:001bd720       _gpProfileFromID           005be720 f   GP:gp.obj
 0001:001bd730       _gpIDFromProfile           005be730 f   GP:gp.obj
 0001:001bd740       _gpUserIDFromProfile       005be740 f   GP:gp.obj
 0001:001bd7b0       _gpProfileSearch           005be7b0 f   GP:gp.obj
 0001:001bd850       _gpGetInfo                 005be850 f   GP:gp.obj
 0001:001bd910       _gpSetInfoi                005be910 f   GP:gp.obj
 0001:001bd960       _gpSetInfos                005be960 f   GP:gp.obj
 0001:001bd9b0       _gpSetInfod                005be9b0 f   GP:gp.obj
 0001:001bda10       _gpSetInfoMask             005bea10 f   GP:gp.obj
 0001:001bda60       _gpSendBuddyRequest        005bea60 f   GP:gp.obj
 0001:001bdb60       _gpAuthBuddyRequest        005beb60 f   GP:gp.obj
 0001:001bdbb0       _gpDenyBuddyRequest        005bebb0 f   GP:gp.obj
 0001:001bdc70       _gpGetNumBuddies           005bec70 f   GP:gp.obj
 0001:001bdcb0       _gpGetBuddyStatus          005becb0 f   GP:gp.obj
 0001:001bddd0       _gpGetBuddyIndex           005bedd0 f   GP:gp.obj
 0001:001bde40       _gpDeleteBuddy             005bee40 f   GP:gp.obj
 0001:001bde90       _gpSetStatus               005bee90 f   GP:gp.obj
 0001:001be0b0       _gpSendBuddyMessage        005bf0b0 f   GP:gp.obj
 0001:001be120       _gpIsValidEmail            005bf120 f   GP:gp.obj
 0001:001be1f0       _gpGetUserNicks            005bf1f0 f   GP:gp.obj
 0001:001be2e0       _gpSetInvitableGames       005bf2e0 f   GP:gp.obj
 0001:001be400       _gpFindPlayers             005bf400 f   GP:gp.obj
 0001:001be4c0       _gpInvitePlayer            005bf4c0 f   GP:gp.obj
 0001:001be580       _gpiInitialize             005bf580 f   GP:gpi.obj
 0001:001be6d0       _gpiDestroy                005bf6d0 f   GP:gpi.obj
 0001:001be740       _gpiResetProfile           005bf740 f   GP:gpi.obj
 0001:001be760       _gpiReset                  005bf760 f   GP:gpi.obj
 0001:001be8c0       _gpiProcessConnectionManager 005bf8c0 f   GP:gpi.obj
 0001:001bebe0       _gpiProcess                005bfbe0 f   GP:gpi.obj
 0001:001bee30       _gpiEnable                 005bfe30 f   GP:gpi.obj
 0001:001bee80       _gpiFreeProfileInfo        005bfe80 f   GP:gpi.obj
 0001:001beed0       _gpiDisable                005bfed0 f   GP:gpi.obj
 0001:001bef50       _strzcpy                   005bff50 f   GP:gpiUtility.obj
 0001:001bef80       _gpiDebug                  005bff80 f   GP:gpiUtility.obj
 0001:001bef90       _gpiCheckForError          005bff90 f   GP:gpiUtility.obj
 0001:001bf050       _gpiValueForKey            005c0050 f   GP:gpiUtility.obj
 0001:001bf0c0       _gpiCheckSocketConnect     005c00c0 f   GP:gpiUtility.obj
 0001:001bf1f0       _gpiReadKeyAndValue        005c01f0 f   GP:gpiUtility.obj
 0001:001bf2a0       _gpiSetError               005c02a0 f   GP:gpiUtility.obj
 0001:001bf2d0       _gpiSetErrorString         005c02d0 f   GP:gpiUtility.obj
 0001:001bf2f0       _randomString              005c02f0 f   GP:gpiConnect.obj
 0001:001bf340       _gpiStartConnect           005c0340 f   GP:gpiConnect.obj
 0001:001bf540       _gpiConnect                005c0540 f   GP:gpiConnect.obj
 0001:001bf730       _gpiSendLogin              005c0730 f   GP:gpiConnect.obj
 0001:001bf950       _gpiSendNewuser            005c0950 f   GP:gpiConnect.obj
 0001:001bf9e0       _gpiProcessConnect         005c09e0 f   GP:gpiConnect.obj
 0001:001bfe80       _gpiCheckConnect           005c0e80 f   GP:gpiConnect.obj
 0001:001bfef0       _gpiDisconnectCleanupProfile 005c0ef0 f   GP:gpiConnect.obj
 0001:001bff70       _gpiDisconnect             005c0f70 f   GP:gpiConnect.obj
 0001:001c0100       _gpiInitProfiles           005c1100 f   GP:gpiProfile.obj
 0001:001c01d0       _gpiOpenDiskProfiles       005c11d0 f   GP:gpiProfile.obj
 0001:001c0220       _gpiCloseDiskProfiles      005c1220 f   GP:gpiProfile.obj
 0001:001c0250       _gpiReadDiskKeyValue       005c1250 f   GP:gpiProfile.obj
 0001:001c0260       _gpiReadDiskProfile        005c1260 f   GP:gpiProfile.obj
 0001:001c0270       _gpiLoadDiskProfiles       005c1270 f   GP:gpiProfile.obj
 0001:001c0300       _gpiSaveDiskProfile        005c1300 f   GP:gpiProfile.obj
 0001:001c0460       _gpiSaveDiskProfiles       005c1460 f   GP:gpiProfile.obj
 0001:001c04b0       _gpiProcessNewProfile      005c14b0 f   GP:gpiProfile.obj
 0001:001c05c0       _gpiProfileListAdd         005c15c0 f   GP:gpiProfile.obj
 0001:001c0660       _gpiGetProfile             005c1660 f   GP:gpiProfile.obj
 0001:001c06a0       _gpiNewProfile             005c16a0 f   GP:gpiProfile.obj
 0001:001c0830       _gpiDeleteProfile          005c1830 f   GP:gpiProfile.obj
 0001:001c0890       _gpiRemoveProfileByID      005c1890 f   GP:gpiProfile.obj
 0001:001c08d0       _gpiRemoveProfile          005c18d0 f   GP:gpiProfile.obj
 0001:001c08f0       _gpiFindProfileByUser      005c18f0 f   GP:gpiProfile.obj
 0001:001c09e0       _gpiProfileMap             005c19e0 f   GP:gpiProfile.obj
 0001:001c0a40       _gpiCheckForBuddy          005c1a40 f   GP:gpiProfile.obj
 0001:001c0a70       _gpiFindBuddy              005c1a70 f   GP:gpiProfile.obj
 0001:001c0aa0       _gpiCanFreeProfile         005c1aa0 f   GP:gpiProfile.obj
 0001:001c0ad0       _gpiStartProfileSearch     005c1ad0 f   GP:gpiSearch.obj
 0001:001c0c40       _gpiInitSearchData         005c1c40 f   GP:gpiSearch.obj
 0001:001c0ce0       _gpiStartSearch            005c1ce0 f   GP:gpiSearch.obj
 0001:001c0d50       _gpiProfileSearch          005c1d50 f   GP:gpiSearch.obj
 0001:001c0eb0       _gpiIsValidEmail           005c1eb0 f   GP:gpiSearch.obj
 0001:001c0f40       _gpiGetUserNicks           005c1f40 f   GP:gpiSearch.obj
 0001:001c1030       _gpiFindPlayers            005c2030 f   GP:gpiSearch.obj
 0001:001c1080       _gpiProcessSearch          005c2080 f   GP:gpiSearch.obj
 0001:001c2030       _gpiProcessSearches        005c3030 f   GP:gpiSearch.obj
 0001:001c2130       _gpiIsValidDate            005c3130 f   GP:gpiInfo.obj
 0001:001c2220       _gpiDateToInt              005c3220 f   GP:gpiInfo.obj
 0001:001c2270       _gpiIntToDate              005c3270 f   GP:gpiInfo.obj
 0001:001c22d0       _gpiInfoCacheToArg         005c32d0 f   GP:gpiInfo.obj
 0001:001c2460       _gpiProcessGetInfo         005c3460 f   GP:gpiInfo.obj
 0001:001c28b0       _gpiSendInfo               005c38b0 f   GP:gpiInfo.obj
 0001:001c2920       _gpiAddLocalInfo           005c3920 f   GP:gpiInfo.obj
 0001:001c29d0       _gpiSendLocalInfo          005c39d0 f   GP:gpiInfo.obj
 0001:001c2a10       _gpiSendUserInfo           005c3a10 f   GP:gpiInfo.obj
 0001:001c2a50       _gpiSetInfoi               005c3a50 f   GP:gpiInfo.obj
 0001:001c2d30       _gpiSetInfos               005c3d30 f   GP:gpiInfo.obj
 0001:001c3110       _gpiSetInfod               005c4110 f   GP:gpiInfo.obj
 0001:001c3190       _gpiSetInfoMask            005c4190 f   GP:gpiInfo.obj
 0001:001c31c0       _gpiSendGetInfo            005c41c0 f   GP:gpiInfo.obj
 0001:001c3240       _gpiGetInfo                005c4240 f   GP:gpiInfo.obj
 0001:001c33a0       _gpiSetInfoCache           005c43a0 f   GP:gpiInfo.obj
 0001:001c3440       _gpiFreeInfoCache          005c4440 f   GP:gpiInfo.obj
 0001:001c34b0       _gpiAppendStringToBufferLen 005c44b0 f   GP:gpiBuffer.obj
 0001:001c3560       _gpiAppendStringToBuffer   005c4560 f   GP:gpiBuffer.obj
 0001:001c3590       _gpiAppendIntToBuffer      005c4590 f   GP:gpiBuffer.obj
 0001:001c35c0       _gpiRecvToBuffer           005c45c0 f   GP:gpiBuffer.obj
 0001:001c36e0       _gpiSendFromBuffer         005c46e0 f   GP:gpiBuffer.obj
 0001:001c37e0       _gpiAppendMessageToBuffer  005c47e0 f   GP:gpiBuffer.obj
 0001:001c3850       _gpiReadMessageFromBuffer  005c4850 f   GP:gpiBuffer.obj
 0001:001c39c0       _gpiSendAuthBuddyRequest   005c49c0 f   GP:gpiBuddy.obj
 0001:001c3a40       _gpiProcessRecvBuddyMessage 005c4a40 f   GP:gpiBuddy.obj
 0001:001c4090       _gpiSendServerBuddyMessage 005c5090 f   GP:gpiBuddy.obj
 0001:001c4140       _gpiSendBuddyMessage       005c5140 f   GP:gpiBuddy.obj
 0001:001c4200       _gpiAuthBuddyRequest       005c5200 f   GP:gpiBuddy.obj
 0001:001c42b0       _gpiFixBuddyIndices        005c52b0 f   GP:gpiBuddy.obj
 0001:001c42d0       _gpiDeleteBuddy            005c52d0 f   GP:gpiBuddy.obj
 0001:001c4420       _gpiFailedOpCallback       005c5420 f   GP:gpiOperation.obj
 0001:001c44f0       _gpiAddOperation           005c54f0 f   GP:gpiOperation.obj
 0001:001c45a0       _gpiDestroyOperation       005c55a0 f   GP:gpiOperation.obj
 0001:001c4610       _gpiRemoveOperation        005c5610 f   GP:gpiOperation.obj
 0001:001c4670       _gpiFindOperationByID      005c5670 f   GP:gpiOperation.obj
 0001:001c46c0       _gpiOperationsAreBlocking  005c56c0 f   GP:gpiOperation.obj
 0001:001c46f0       _gpiProcessOperation       005c56f0 f   GP:gpiOperation.obj
 0001:001c4760       _gpiCallErrorCallback      005c5760 f   GP:gpiCallback.obj
 0001:001c47d0       _gpiAddCallback            005c57d0 f   GP:gpiCallback.obj
 0001:001c4860       _gpiProcessCallbacks       005c5860 f   GP:gpiCallback.obj
 0001:001c4ac0       _gpiProcessPeerInitiatingConnection 005c5ac0 f   GP:gpiPeer.obj
 0001:001c4d60       _gpiProcessPeerAcceptingConnection 005c5d60 f   GP:gpiPeer.obj
 0001:001c4f50       _gpiProcessPeerConnected   005c5f50 f   GP:gpiPeer.obj
 0001:001c5150       _gpiProcessPeer            005c6150 f   GP:gpiPeer.obj
 0001:001c51a0       _gpiDestroyPeer            005c61a0 f   GP:gpiPeer.obj
 0001:001c5210       _gpiRemovePeer             005c6210 f   GP:gpiPeer.obj
 0001:001c5290       _gpiProcessPeers           005c6290 f   GP:gpiPeer.obj
 0001:001c5330       _gpiGetConnectedPeer       005c6330 f   GP:gpiPeer.obj
 0001:001c5360       _gpiAddPeer                005c6360 f   GP:gpiPeer.obj
 0001:001c53d0       _gpiPeerGetSig             005c63d0 f   GP:gpiPeer.obj
 0001:001c5420       _gpiPeerStartConnect       005c6420 f   GP:gpiPeer.obj
 0001:001c5580       _gpiPeerAddMessage         005c6580 f   GP:gpiPeer.obj
 0001:001c5660       _HeapReAlloc@16            005c6660 f   kernel32:KERNEL32.dll
 0001:001c5666       _HeapAlloc@12              005c6666 f   kernel32:KERNEL32.dll
 0001:001c566c       _HeapFree@12               005c666c f   kernel32:KERNEL32.dll
 0001:001c5672       _RtlUnwind@16              005c6672 f   kernel32:KERNEL32.dll
 0001:001c5678       _GetModuleFileNameA@12     005c6678 f   kernel32:KERNEL32.dll
 0001:001c567e       _ExitProcess@4             005c667e f   kernel32:KERNEL32.dll
 0001:001c5684       _TerminateProcess@8        005c6684 f   kernel32:KERNEL32.dll
 0001:001c568a       _GetCurrentProcess@0       005c668a f   kernel32:KERNEL32.dll
 0001:001c5690       _MoveFileA@8               005c6690 f   kernel32:KERNEL32.dll
 0001:001c5696       _FileTimeToLocalFileTime@8 005c6696 f   kernel32:KERNEL32.dll
 0001:001c569c       _GetTimeZoneInformation@4  005c669c f   kernel32:KERNEL32.dll
 0001:001c56a2       _GetLocalTime@4            005c66a2 f   kernel32:KERNEL32.dll
 0001:001c56a8       _GetStartupInfoA@4         005c66a8 f   kernel32:KERNEL32.dll
 0001:001c56ae       _GetCommandLineA@0         005c66ae f   kernel32:KERNEL32.dll
 0001:001c56b4       _GetVersion@0              005c66b4 f   kernel32:KERNEL32.dll
 0001:001c56ba       _HeapSize@12               005c66ba f   kernel32:KERNEL32.dll
 0001:001c56c0       _VirtualFree@12            005c66c0 f   kernel32:KERNEL32.dll
 0001:001c56c6       _VirtualAlloc@16           005c66c6 f   kernel32:KERNEL32.dll
 0001:001c56cc       _IsBadWritePtr@8           005c66cc f   kernel32:KERNEL32.dll
 0001:001c56d2       _GetEnvironmentVariableA@12 005c66d2 f   kernel32:KERNEL32.dll
 0001:001c56d8       _GetVersionExA@4           005c66d8 f   kernel32:KERNEL32.dll
 0001:001c56de       _HeapDestroy@4             005c66de f   kernel32:KERNEL32.dll
 0001:001c56e4       _HeapCreate@12             005c66e4 f   kernel32:KERNEL32.dll
 0001:001c56ea       _WideCharToMultiByte@32    005c66ea f   kernel32:KERNEL32.dll
 0001:001c56f0       _MultiByteToWideChar@24    005c66f0 f   kernel32:KERNEL32.dll
 0001:001c56f6       _LCMapStringA@24           005c66f6 f   kernel32:KERNEL32.dll
 0001:001c56fc       _LCMapStringW@24           005c66fc f   kernel32:KERNEL32.dll
 0001:001c5702       _SetConsoleCtrlHandler@8   005c6702 f   kernel32:KERNEL32.dll
 0001:001c5708       _SetHandleCount@4          005c6708 f   kernel32:KERNEL32.dll
 0001:001c570e       _GetStdHandle@4            005c670e f   kernel32:KERNEL32.dll
 0001:001c5714       _GetFileType@4             005c6714 f   kernel32:KERNEL32.dll
 0001:001c571a       _FlushFileBuffers@4        005c671a f   kernel32:KERNEL32.dll
 0001:001c5720       _UnhandledExceptionFilter@4 005c6720 f   kernel32:KERNEL32.dll
 0001:001c5726       _FreeEnvironmentStringsA@4 005c6726 f   kernel32:KERNEL32.dll
 0001:001c572c       _FreeEnvironmentStringsW@4 005c672c f   kernel32:KERNEL32.dll
 0001:001c5732       _GetEnvironmentStrings@0   005c6732 f   kernel32:KERNEL32.dll
 0001:001c5738       _GetEnvironmentStringsW@0  005c6738 f   kernel32:KERNEL32.dll
 0001:001c573e       _SetStdHandle@8            005c673e f   kernel32:KERNEL32.dll
 0001:001c5744       _SetUnhandledExceptionFilter@4 005c6744 f   kernel32:KERNEL32.dll
 0001:001c574a       _IsBadReadPtr@8            005c674a f   kernel32:KERNEL32.dll
 0001:001c5750       _IsBadCodePtr@4            005c6750 f   kernel32:KERNEL32.dll
 0001:001c5756       _GetStringTypeA@20         005c6756 f   kernel32:KERNEL32.dll
 0001:001c575c       _GetStringTypeW@16         005c675c f   kernel32:KERNEL32.dll
 0001:001c5762       _GetCPInfo@8               005c6762 f   kernel32:KERNEL32.dll
 0001:001c5768       _GetACP@0                  005c6768 f   kernel32:KERNEL32.dll
 0001:001c576e       _GetOEMCP@0                005c676e f   kernel32:KERNEL32.dll
 0001:001c5774       _SetEndOfFile@4            005c6774 f   kernel32:KERNEL32.dll
 0001:001c577a       _RaiseException@16         005c677a f   kernel32:KERNEL32.dll
 0001:001c5780       _CompareStringA@24         005c6780 f   kernel32:KERNEL32.dll
 0001:001c5786       _CompareStringW@24         005c6786 f   kernel32:KERNEL32.dll
 0001:001c578c       _SetEnvironmentVariableA@8 005c678c f   kernel32:KERNEL32.dll
 0001:001c5792       _GetCurrentProcessId@0     005c6792 f   kernel32:KERNEL32.dll
 0001:001c5798       _RegSetValueExA@24         005c6798 f   advapi32:ADVAPI32.dll
 0001:001c579e       _RegCreateKeyExA@36        005c679e f   advapi32:ADVAPI32.dll
 0001:001c57a4       _inet_ntoa@4               005c67a4 f   ws2_32:WS2_32.dll
 0001:001c57aa       _ntohs@4                   005c67aa f   ws2_32:WS2_32.dll
 0001:001c57b0       _getsockname@12            005c67b0 f   ws2_32:WS2_32.dll
 0001:001c57b6       _recvfrom@24               005c67b6 f   ws2_32:WS2_32.dll
 0001:001c57bc       _sendto@24                 005c67bc f   ws2_32:WS2_32.dll
 0001:001c57c2       _WSASetBlockingHook@4      005c67c2 f   ws2_32:WS2_32.dll
 0001:001c57c8       _setsockopt@20             005c67c8 f   ws2_32:WS2_32.dll
 0001:001c57ce       _gethostname@8             005c67ce f   ws2_32:WS2_32.dll
 0001:001c57d4       _getsockopt@20             005c67d4 f   ws2_32:WS2_32.dll
 0001:001c57da       _listen@8                  005c67da f   ws2_32:WS2_32.dll
 0001:001c57e0       _accept@12                 005c67e0 f   ws2_32:WS2_32.dll
 0001:001c57e6       _atof                      005c67e6 f   libc:atof.obj
 0001:001c5840       __strnicmp                 005c6840 f   libc:strnicmp.obj
 0001:001c58ed       __strlwr                   005c68ed f   libc:strlwr.obj
 0001:001c598b       _localtime                 005c698b f   libc:localtim.obj
 0001:001c5aeb       _strtok                    005c6aeb f   libc:strtok.obj
 0001:001c5b87       __chkesp                   005c6b87 f   libc:chkesp.obj
 0001:001c5b9f       __fltin                    005c6b9f f   libc:cfin.obj
 0001:001c5c30       _gmtime                    005c6c30 f   libc:gmtime.obj
 0002:00000000       __imp__RegCreateKeyExA@36  005ca000     advapi32:ADVAPI32.dll
 0002:00000004       __imp__RegSetValueExA@24   005ca004     advapi32:ADVAPI32.dll
 0002:00000008       __imp__RegOpenKeyExA@20    005ca008     advapi32:ADVAPI32.dll
 0002:0000000c       __imp__RegQueryValueExA@24 005ca00c     advapi32:ADVAPI32.dll
 0002:00000010       __imp__RegCloseKey@4       005ca010     advapi32:ADVAPI32.dll
 0002:00000014       \177ADVAPI32_NULL_THUNK_DATA 005ca014     advapi32:ADVAPI32.dll
 0002:00000018       __imp__DirectDrawCreate@12 005ca018     Ddraw:DDRAW.dll
 0002:0000001c       \177DDRAW_NULL_THUNK_DATA  005ca01c     Ddraw:DDRAW.dll
 0002:00000020       __imp__DirectPlayLobbyCreateA@20 005ca020     dplayx:DPLAYX.dll
 0002:00000024       \177DPLAYX_NULL_THUNK_DATA 005ca024     dplayx:DPLAYX.dll
 0002:00000028       __imp__DirectSoundCreate@12 005ca028     dsound:DSOUND.dll
 0002:0000002c       \177DSOUND_NULL_THUNK_DATA 005ca02c     dsound:DSOUND.dll
 0002:00000030       __imp__StretchDIBits@52    005ca030     gdi32:GDI32.dll
 0002:00000034       \177GDI32_NULL_THUNK_DATA  005ca034     gdi32:GDI32.dll
 0002:00000038       __imp__GetFileSize@8       005ca038     kernel32:KERNEL32.dll
 0002:0000003c       __imp__WriteFile@20        005ca03c     kernel32:KERNEL32.dll
 0002:00000040       __imp__GetTickCount@0      005ca040     kernel32:KERNEL32.dll
 0002:00000044       __imp__lstrcpyA@8          005ca044     kernel32:KERNEL32.dll
 0002:00000048       __imp__lstrlenA@4          005ca048     kernel32:KERNEL32.dll
 0002:0000004c       __imp__GetComputerNameA@8  005ca04c     kernel32:KERNEL32.dll
 0002:00000050       __imp__FileTimeToSystemTime@8 005ca050     kernel32:KERNEL32.dll
 0002:00000054       __imp__SystemTimeToFileTime@8 005ca054     kernel32:KERNEL32.dll
 0002:00000058       __imp__GetSystemTime@4     005ca058     kernel32:KERNEL32.dll
 0002:0000005c       __imp__CreateProcessA@40   005ca05c     kernel32:KERNEL32.dll
 0002:00000060       __imp__GetLastError@0      005ca060     kernel32:KERNEL32.dll
 0002:00000064       __imp__QueryPerformanceFrequency@4 005ca064     kernel32:KERNEL32.dll
 0002:00000068       __imp__QueryPerformanceCounter@4 005ca068     kernel32:KERNEL32.dll
 0002:0000006c       __imp__WinExec@8           005ca06c     kernel32:KERNEL32.dll
 0002:00000070       __imp__GetDriveTypeA@4     005ca070     kernel32:KERNEL32.dll
 0002:00000074       __imp__GetLogicalDriveStringsA@8 005ca074     kernel32:KERNEL32.dll
 0002:00000078       __imp__GetDiskFreeSpaceA@20 005ca078     kernel32:KERNEL32.dll
 0002:0000007c       __imp__GetDiskFreeSpaceExA@16 005ca07c     kernel32:KERNEL32.dll
 0002:00000080       __imp__GetProcAddress@8    005ca080     kernel32:KERNEL32.dll
 0002:00000084       __imp__GetModuleHandleA@4  005ca084     kernel32:KERNEL32.dll
 0002:00000088       __imp__GetWindowsDirectoryA@8 005ca088     kernel32:KERNEL32.dll
 0002:0000008c       __imp__CreateDirectoryA@8  005ca08c     kernel32:KERNEL32.dll
 0002:00000090       __imp__Sleep@4             005ca090     kernel32:KERNEL32.dll
 0002:00000094       __imp__FreeLibrary@4       005ca094     kernel32:KERNEL32.dll
 0002:00000098       __imp__LoadLibraryA@4      005ca098     kernel32:KERNEL32.dll
 0002:0000009c       __imp__MulDiv@12           005ca09c     kernel32:KERNEL32.dll
 0002:000000a0       __imp__GlobalFree@4        005ca0a0     kernel32:KERNEL32.dll
 0002:000000a4       __imp__GlobalUnlock@4      005ca0a4     kernel32:KERNEL32.dll
 0002:000000a8       __imp__GlobalHandle@4      005ca0a8     kernel32:KERNEL32.dll
 0002:000000ac       __imp__GlobalLock@4        005ca0ac     kernel32:KERNEL32.dll
 0002:000000b0       __imp__FindNextFileA@8     005ca0b0     kernel32:KERNEL32.dll
 0002:000000b4       __imp__SetFileTime@16      005ca0b4     kernel32:KERNEL32.dll
 0002:000000b8       __imp__GetFileTime@16      005ca0b8     kernel32:KERNEL32.dll
 0002:000000bc       __imp__CompareStringA@24   005ca0bc     kernel32:KERNEL32.dll
 0002:000000c0       __imp__RaiseException@16   005ca0c0     kernel32:KERNEL32.dll
 0002:000000c4       __imp__SetEndOfFile@4      005ca0c4     kernel32:KERNEL32.dll
 0002:000000c8       __imp__GetOEMCP@0          005ca0c8     kernel32:KERNEL32.dll
 0002:000000cc       __imp__GetACP@0            005ca0cc     kernel32:KERNEL32.dll
 0002:000000d0       __imp__GetCPInfo@8         005ca0d0     kernel32:KERNEL32.dll
 0002:000000d4       __imp__GetStringTypeW@16   005ca0d4     kernel32:KERNEL32.dll
 0002:000000d8       __imp__GetStringTypeA@20   005ca0d8     kernel32:KERNEL32.dll
 0002:000000dc       __imp__CloseHandle@4       005ca0dc     kernel32:KERNEL32.dll
 0002:000000e0       __imp__IsBadReadPtr@8      005ca0e0     kernel32:KERNEL32.dll
 0002:000000e4       __imp__SetUnhandledExceptionFilter@4 005ca0e4     kernel32:KERNEL32.dll
 0002:000000e8       __imp__ReadFile@20         005ca0e8     kernel32:KERNEL32.dll
 0002:000000ec       __imp__GetEnvironmentStringsW@0 005ca0ec     kernel32:KERNEL32.dll
 0002:000000f0       __imp__GetEnvironmentStrings@0 005ca0f0     kernel32:KERNEL32.dll
 0002:000000f4       __imp__FreeEnvironmentStringsW@4 005ca0f4     kernel32:KERNEL32.dll
 0002:000000f8       __imp__FreeEnvironmentStringsA@4 005ca0f8     kernel32:KERNEL32.dll
 0002:000000fc       __imp__UnhandledExceptionFilter@4 005ca0fc     kernel32:KERNEL32.dll
 0002:00000100       __imp__FlushFileBuffers@4  005ca100     kernel32:KERNEL32.dll
 0002:00000104       __imp__GetFileType@4       005ca104     kernel32:KERNEL32.dll
 0002:00000108       __imp__GetStdHandle@4      005ca108     kernel32:KERNEL32.dll
 0002:0000010c       __imp__SetHandleCount@4    005ca10c     kernel32:KERNEL32.dll
 0002:00000110       __imp__SetConsoleCtrlHandler@8 005ca110     kernel32:KERNEL32.dll
 0002:00000114       __imp__LCMapStringW@24     005ca114     kernel32:KERNEL32.dll
 0002:00000118       __imp__LCMapStringA@24     005ca118     kernel32:KERNEL32.dll
 0002:0000011c       __imp__MultiByteToWideChar@24 005ca11c     kernel32:KERNEL32.dll
 0002:00000120       __imp__WideCharToMultiByte@32 005ca120     kernel32:KERNEL32.dll
 0002:00000124       __imp__HeapCreate@12       005ca124     kernel32:KERNEL32.dll
 0002:00000128       __imp__HeapDestroy@4       005ca128     kernel32:KERNEL32.dll
 0002:0000012c       __imp__GlobalAlloc@8       005ca12c     kernel32:KERNEL32.dll
 0002:00000130       __imp__SetFilePointer@16   005ca130     kernel32:KERNEL32.dll
 0002:00000134       __imp__CreateFileA@28      005ca134     kernel32:KERNEL32.dll
 0002:00000138       __imp__CreateFileMappingA@24 005ca138     kernel32:KERNEL32.dll
 0002:0000013c       __imp__MapViewOfFile@20    005ca13c     kernel32:KERNEL32.dll
 0002:00000140       __imp__GetCurrentDirectoryA@8 005ca140     kernel32:KERNEL32.dll
 0002:00000144       __imp__GetVersionExA@4     005ca144     kernel32:KERNEL32.dll
 0002:00000148       __imp__GetEnvironmentVariableA@12 005ca148     kernel32:KERNEL32.dll
 0002:0000014c       __imp__IsBadWritePtr@8     005ca14c     kernel32:KERNEL32.dll
 0002:00000150       __imp__VirtualAlloc@16     005ca150     kernel32:KERNEL32.dll
 0002:00000154       __imp__VirtualFree@12      005ca154     kernel32:KERNEL32.dll
 0002:00000158       __imp__HeapSize@12         005ca158     kernel32:KERNEL32.dll
 0002:0000015c       __imp__GetVersion@0        005ca15c     kernel32:KERNEL32.dll
 0002:00000160       __imp__GetCommandLineA@0   005ca160     kernel32:KERNEL32.dll
 0002:00000164       __imp__GetStartupInfoA@4   005ca164     kernel32:KERNEL32.dll
 0002:00000168       __imp__GetLocalTime@4      005ca168     kernel32:KERNEL32.dll
 0002:0000016c       __imp__GetTimeZoneInformation@4 005ca16c     kernel32:KERNEL32.dll
 0002:00000170       __imp__CompareStringW@24   005ca170     kernel32:KERNEL32.dll
 0002:00000174       __imp__FileTimeToLocalFileTime@8 005ca174     kernel32:KERNEL32.dll
 0002:00000178       __imp__MoveFileA@8         005ca178     kernel32:KERNEL32.dll
 0002:0000017c       __imp__GetCurrentProcess@0 005ca17c     kernel32:KERNEL32.dll
 0002:00000180       __imp__TerminateProcess@8  005ca180     kernel32:KERNEL32.dll
 0002:00000184       __imp__ExitProcess@4       005ca184     kernel32:KERNEL32.dll
 0002:00000188       __imp__GetModuleFileNameA@12 005ca188     kernel32:KERNEL32.dll
 0002:0000018c       __imp__RtlUnwind@16        005ca18c     kernel32:KERNEL32.dll
 0002:00000190       __imp__HeapFree@12         005ca190     kernel32:KERNEL32.dll
 0002:00000194       __imp__HeapAlloc@12        005ca194     kernel32:KERNEL32.dll
 0002:00000198       __imp__HeapReAlloc@16      005ca198     kernel32:KERNEL32.dll
 0002:0000019c       __imp__SetEnvironmentVariableA@8 005ca19c     kernel32:KERNEL32.dll
 0002:000001a0       __imp__GetCurrentProcessId@0 005ca1a0     kernel32:KERNEL32.dll
 0002:000001a4       __imp__SetCurrentDirectoryA@4 005ca1a4     kernel32:KERNEL32.dll
 0002:000001a8       __imp__SetLastError@4      005ca1a8     kernel32:KERNEL32.dll
 0002:000001ac       __imp__FindFirstFileA@8    005ca1ac     kernel32:KERNEL32.dll
 0002:000001b0       __imp__FindClose@4         005ca1b0     kernel32:KERNEL32.dll
 0002:000001b4       __imp__SetStdHandle@8      005ca1b4     kernel32:KERNEL32.dll
 0002:000001b8       __imp__UnmapViewOfFile@4   005ca1b8     kernel32:KERNEL32.dll
 0002:000001bc       __imp__IsBadCodePtr@4      005ca1bc     kernel32:KERNEL32.dll
 0002:000001c0       __imp__DeleteFileA@4       005ca1c0     kernel32:KERNEL32.dll
 0002:000001c4       \177KERNEL32_NULL_THUNK_DATA 005ca1c4     kernel32:KERNEL32.dll
 0002:000001c8       __imp__ShellExecuteA@24    005ca1c8     shell32:SHELL32.dll
 0002:000001cc       \177SHELL32_NULL_THUNK_DATA 005ca1cc     shell32:SHELL32.dll
 0002:000001d0       __imp__MessageBoxA@16      005ca1d0     user32:USER32.dll
 0002:000001d4       __imp__LoadIconA@8         005ca1d4     user32:USER32.dll
 0002:000001d8       __imp__LoadCursorA@8       005ca1d8     user32:USER32.dll
 0002:000001dc       __imp__RegisterClassA@4    005ca1dc     user32:USER32.dll
 0002:000001e0       __imp__GetSystemMetrics@4  005ca1e0     user32:USER32.dll
 0002:000001e4       __imp__CreateWindowExA@48  005ca1e4     user32:USER32.dll
 0002:000001e8       __imp__ShowWindow@8        005ca1e8     user32:USER32.dll
 0002:000001ec       __imp__UpdateWindow@4      005ca1ec     user32:USER32.dll
 0002:000001f0       __imp__SetTimer@16         005ca1f0     user32:USER32.dll
 0002:000001f4       __imp__DestroyWindow@4     005ca1f4     user32:USER32.dll
 0002:000001f8       __imp__wsprintfA           005ca1f8     user32:USER32.dll
 0002:000001fc       __imp__GetKeyState@4       005ca1fc     user32:USER32.dll
 0002:00000200       __imp__ReleaseDC@8         005ca200     user32:USER32.dll
 0002:00000204       __imp__GetWindowDC@4       005ca204     user32:USER32.dll
 0002:00000208       __imp__ShowCursor@4        005ca208     user32:USER32.dll
 0002:0000020c       __imp__DispatchMessageA@4  005ca20c     user32:USER32.dll
 0002:00000210       __imp__TranslateMessage@4  005ca210     user32:USER32.dll
 0002:00000214       __imp__PostMessageA@16     005ca214     user32:USER32.dll
 0002:00000218       __imp__ClipCursor@4        005ca218     user32:USER32.dll
 0002:0000021c       __imp__SetCursor@4         005ca21c     user32:USER32.dll
 0002:00000220       __imp__PeekMessageA@20     005ca220     user32:USER32.dll
 0002:00000224       __imp__SetCursorPos@8      005ca224     user32:USER32.dll
 0002:00000228       __imp__RedrawWindow@16     005ca228     user32:USER32.dll
 0002:0000022c       __imp__DefWindowProcA@16   005ca22c     user32:USER32.dll
 0002:00000230       __imp__PostQuitMessage@4   005ca230     user32:USER32.dll
 0002:00000234       __imp__ToAscii@20          005ca234     user32:USER32.dll
 0002:00000238       __imp__GetKeyboardState@4  005ca238     user32:USER32.dll
 0002:0000023c       \177USER32_NULL_THUNK_DATA 005ca23c     user32:USER32.dll
 0002:00000240       __imp__mciSendCommandA@16  005ca240     Winmm:WINMM.dll
 0002:00000244       __imp__mmioClose@8         005ca244     Winmm:WINMM.dll
 0002:00000248       __imp__mmioAscend@12       005ca248     Winmm:WINMM.dll
 0002:0000024c       __imp__mmioRead@12         005ca24c     Winmm:WINMM.dll
 0002:00000250       __imp__mmioDescend@16      005ca250     Winmm:WINMM.dll
 0002:00000254       __imp__mmioOpenA@12        005ca254     Winmm:WINMM.dll
 0002:00000258       __imp__mixerOpen@20        005ca258     Winmm:WINMM.dll
 0002:0000025c       __imp__mixerGetLineControlsA@12 005ca25c     Winmm:WINMM.dll
 0002:00000260       __imp__mixerGetLineInfoA@12 005ca260     Winmm:WINMM.dll
 0002:00000264       __imp__mixerSetControlDetails@12 005ca264     Winmm:WINMM.dll
 0002:00000268       __imp__mixerGetControlDetailsA@12 005ca268     Winmm:WINMM.dll
 0002:0000026c       __imp__mixerClose@4        005ca26c     Winmm:WINMM.dll
 0002:00000270       __imp__mixerGetNumDevs@0   005ca270     Winmm:WINMM.dll
 0002:00000274       __imp__mciGetErrorStringA@12 005ca274     Winmm:WINMM.dll
 0002:00000278       \177WINMM_NULL_THUNK_DATA  005ca278     Winmm:WINMM.dll
 0002:0000027c       __imp__listen@8            005ca27c     ws2_32:WS2_32.dll
 0002:00000280       __imp__getsockopt@20       005ca280     ws2_32:WS2_32.dll
 0002:00000284       __imp__gethostname@8       005ca284     ws2_32:WS2_32.dll
 0002:00000288       __imp__gethostbyname@4     005ca288     ws2_32:WS2_32.dll
 0002:0000028c       __imp__recv@16             005ca28c     ws2_32:WS2_32.dll
 0002:00000290       __imp__socket@12           005ca290     ws2_32:WS2_32.dll
 0002:00000294       __imp__closesocket@4       005ca294     ws2_32:WS2_32.dll
 0002:00000298       __imp__shutdown@8          005ca298     ws2_32:WS2_32.dll
 0002:0000029c       __imp__inet_addr@4         005ca29c     ws2_32:WS2_32.dll
 0002:000002a0       __imp__htons@4             005ca2a0     ws2_32:WS2_32.dll
 0002:000002a4       __imp__select@20           005ca2a4     ws2_32:WS2_32.dll
 0002:000002a8       __imp__WSAStartup@8        005ca2a8     ws2_32:WS2_32.dll
 0002:000002ac       __imp__WSACleanup@0        005ca2ac     ws2_32:WS2_32.dll
 0002:000002b0       __imp__ioctlsocket@12      005ca2b0     ws2_32:WS2_32.dll
 0002:000002b4       __imp__WSAGetLastError@0   005ca2b4     ws2_32:WS2_32.dll
 0002:000002b8       __imp__bind@12             005ca2b8     ws2_32:WS2_32.dll
 0002:000002bc       __imp__htonl@4             005ca2bc     ws2_32:WS2_32.dll
 0002:000002c0       __imp____WSAFDIsSet@8      005ca2c0     ws2_32:WS2_32.dll
 0002:000002c4       __imp__inet_ntoa@4         005ca2c4     ws2_32:WS2_32.dll
 0002:000002c8       __imp__ntohs@4             005ca2c8     ws2_32:WS2_32.dll
 0002:000002cc       __imp__getsockname@12      005ca2cc     ws2_32:WS2_32.dll
 0002:000002d0       __imp__recvfrom@24         005ca2d0     ws2_32:WS2_32.dll
 0002:000002d4       __imp__sendto@24           005ca2d4     ws2_32:WS2_32.dll
 0002:000002d8       __imp__WSASetBlockingHook@4 005ca2d8     ws2_32:WS2_32.dll
 0002:000002dc       __imp__setsockopt@20       005ca2dc     ws2_32:WS2_32.dll
 0002:000002e0       __imp__connect@12          005ca2e0     ws2_32:WS2_32.dll
 0002:000002e4       __imp__send@16             005ca2e4     ws2_32:WS2_32.dll
 0002:000002e8       __imp__accept@12           005ca2e8     ws2_32:WS2_32.dll
 0002:000002ec       \177WS2_32_NULL_THUNK_DATA 005ca2ec     ws2_32:WS2_32.dll
 0002:000002f0       __imp_?SendVictoryState@@YAXHE@Z 005ca2f0     ichat:iChat.dll
 0002:000002f4       __imp_?GetGameID@@YAXPAD@Z 005ca2f4     ichat:iChat.dll
 0002:000002f8       __imp_?GoHomeAnyway@@YAXXZ 005ca2f8     ichat:iChat.dll
 0002:000002fc       __imp_?ChatProcess@@YAXXZ  005ca2fc     ichat:iChat.dll
 0002:00000300       __imp_?Process_GSC_ChatWindow@@YAH_NPAURoomInfo@@@Z 005ca300     ichat:iChat.dll
 0002:00000304       __imp_?SendPrivateMessage@@YAXPAD0@Z 005ca304     ichat:iChat.dll
 0002:00000308       __imp_?StartGSCGame@@YAXPAD0HPAHPAPAD11@Z 005ca308     ichat:iChat.dll
 0002:0000030c       __imp_?ReportAliveState@@YAXHPAH@Z 005ca30c     ichat:iChat.dll
 0002:00000310       __imp_?ReportGSCGame@@YAXHHPAUOnePlayerReport@@@Z 005ca310     ichat:iChat.dll
 0002:00000314       __imp_?LeaveGSCRoom@@YAXXZ 005ca314     ichat:iChat.dll
 0002:00000318       \177iChat_NULL_THUNK_DATA  005ca318     ichat:iChat.dll
 0002:0000031c       __imp__CoCreateInstance@20 005ca31c     ole32:ole32.dll
 0002:00000320       __imp__CoInitialize@4      005ca320     ole32:ole32.dll
 0002:00000324       \177ole32_NULL_THUNK_DATA  005ca324     ole32:ole32.dll
 0002:0000034c       ??_7CGSCarch@@6B@          005ca34c     Resfile.obj
 0002:00000350       ??_7CGSCset@@6B@           005ca350     Resfile.obj
 0002:00000354       _CLSID_DirectDraw          005ca354     MPlayer.obj
 0002:00000364       _CLSID_DirectDraw7         005ca364     MPlayer.obj
 0002:00000374       _CLSID_DirectDrawClipper   005ca374     MPlayer.obj
 0002:00000384       _IID_IDirectDraw           005ca384     MPlayer.obj
 0002:00000394       _IID_IDirectDraw2          005ca394     MPlayer.obj
 0002:000003a4       _IID_IDirectDraw4          005ca3a4     MPlayer.obj
 0002:000003b4       _IID_IDirectDraw7          005ca3b4     MPlayer.obj
 0002:000003c4       _IID_IDirectDrawSurface    005ca3c4     MPlayer.obj
 0002:000003d4       _IID_IDirectDrawSurface2   005ca3d4     MPlayer.obj
 0002:000003e4       _IID_IDirectDrawSurface3   005ca3e4     MPlayer.obj
 0002:000003f4       _IID_IDirectDrawSurface4   005ca3f4     MPlayer.obj
 0002:00000404       _IID_IDirectDrawSurface7   005ca404     MPlayer.obj
 0002:00000414       _IID_IDirectDrawPalette    005ca414     MPlayer.obj
 0002:00000424       _IID_IDirectDrawClipper    005ca424     MPlayer.obj
 0002:00000434       _IID_IDirectDrawColorControl 005ca434     MPlayer.obj
 0002:00000444       _IID_IDirectDrawGammaControl 005ca444     MPlayer.obj
 0002:00000454       _IID_IDirectPlay2          005ca454     MPlayer.obj
 0002:00000464       _IID_IDirectPlay2A         005ca464     MPlayer.obj
 0002:00000474       _IID_IDirectPlay3          005ca474     MPlayer.obj
 0002:00000484       _IID_IDirectPlay3A         005ca484     MPlayer.obj
 0002:00000494       _CLSID_DirectPlay          005ca494     MPlayer.obj
 0002:000004a4       _DPSPGUID_IPX              005ca4a4     MPlayer.obj
 0002:000004b4       _DPSPGUID_TCPIP            005ca4b4     MPlayer.obj
 0002:000004c4       _DPSPGUID_SERIAL           005ca4c4     MPlayer.obj
 0002:000004d4       _DPSPGUID_MODEM            005ca4d4     MPlayer.obj
 0002:000004e4       _DPCHAT_GUID               005ca4e4     MPlayer.obj
 0002:000004f4       _IID_IDirectPlayLobby      005ca4f4     MPlayer.obj
 0002:00000504       _IID_IDirectPlayLobbyA     005ca504     MPlayer.obj
 0002:00000514       _IID_IDirectPlayLobby2     005ca514     MPlayer.obj
 0002:00000524       _IID_IDirectPlayLobby2A    005ca524     MPlayer.obj
 0002:00000534       _CLSID_DirectPlayLobby     005ca534     MPlayer.obj
 0002:00000544       _DPLPROPERTY_MessagesSupported 005ca544     MPlayer.obj
 0002:00000554       _DPLPROPERTY_LobbyGuid     005ca554     MPlayer.obj
 0002:00000564       _DPLPROPERTY_PlayerGuid    005ca564     MPlayer.obj
 0002:00000574       _DPLPROPERTY_PlayerScore   005ca574     MPlayer.obj
 0002:00000584       _DPAID_TotalSize           005ca584     MPlayer.obj
 0002:00000594       _DPAID_ServiceProvider     005ca594     MPlayer.obj
 0002:000005a4       _DPAID_LobbyProvider       005ca5a4     MPlayer.obj
 0002:000005b4       _DPAID_Phone               005ca5b4     MPlayer.obj
 0002:000005c4       _DPAID_PhoneW              005ca5c4     MPlayer.obj
 0002:000005d4       _DPAID_Modem               005ca5d4     MPlayer.obj
 0002:000005e4       _DPAID_ModemW              005ca5e4     MPlayer.obj
 0002:000005f4       _DPAID_INet                005ca5f4     MPlayer.obj
 0002:00000604       _DPAID_INetW               005ca604     MPlayer.obj
 0002:00000614       _DPAID_ComPort             005ca614     MPlayer.obj
 0002:00000628       __real@406f400000000000    005ca628     MPlayer.obj
 0002:00000630       __real@3ff0000000000000    005ca630     MPlayer.obj
 0002:00000638       __real@469c4000            005ca638     MPlayer.obj
 0002:00000728       __real@400921cac083126f    005ca728     3DMapEd.obj
 0002:00000730       __real@4034000000000000    005ca730     3DMapEd.obj
 0002:00000738       __real@4008000000000000    005ca738     3DMapEd.obj
 0002:00000740       __real@400921fb54442d11    005ca740     3DRandMap.obj
 0002:00000748       __real@3ff921fb54442d11    005ca748     3DRandMap.obj
 0002:00000750       __real@401921fb54442d11    005ca750     3DRandMap.obj
 0002:00000758       __real@0000000000000000    005ca758     3DRandMap.obj
 0002:00000760       __real@3fa6800000000000    005ca760     3DRandMap.obj
 0002:00000768       __real@4060000000000000    005ca768     3DRandMap.obj
 0002:00000770       __real@3fd45f306e2dc32d    005ca770     3DRandMap.obj
 0002:00000778       __real@3fa999999999999a    005ca778     3DRandMap.obj
 0002:00000780       __real@402e000000000000    005ca780     3DRandMap.obj
 0002:00000788       __real@3f5934c67f9b2ce6    005ca788     3DRandMap.obj
 0002:00000790       __real@3f60000000000000    005ca790     3DRandMap.obj
 0002:00000798       __real@3fe999999999999a    005ca798     3DRandMap.obj
 0002:000007a0       __real@3fd999999999999a    005ca7a0     3DRandMap.obj
 0002:000007a8       __real@3f80000000000000    005ca7a8     3DRandMap.obj
 0002:000007b0       __real@3f18583fe7a7c018    005ca7b0     3DRandMap.obj
 0002:000007b8       __real@3f00000000000000    005ca7b8     3DRandMap.obj
 0002:000007c0       __real@3fe3333333333333    005ca7c0     3DRandMap.obj
 0002:000007c8       __real@3fe0000000000000    005ca7c8     3DRandMap.obj
 0002:000007d0       __real@4030000000000000    005ca7d0     3DRandMap.obj
 0002:000007d8       __real@3fe6666666666666    005ca7d8     3DRandMap.obj
 0002:000007e0       __real@406fe00000000000    005ca7e0     3DRandMap.obj
 0002:000007e8       __real@4024000000000000    005ca7e8     3DRandMap.obj
 0002:000007f0       __real@4059000000000000    005ca7f0     3DSurf.obj
 0002:000007f8       __real@4066800000000000    005ca7f8     3DSurf.obj
 0002:00000800       __real@42c80000            005ca800     Interface.obj
 0002:00000808       __real@3ff199999999999a    005ca808     Interface.obj
 0002:00000810       __real@3ff4cccccccccccd    005ca810     Interface.obj
 0002:00000818       __real@3ff6666666666666    005ca818     Interface.obj
 0002:00000820       __real@4000000000000000    005ca820     Interface.obj
 0002:00000828       __real@3ff8000000000000    005ca828     Interface.obj
 0002:00000830       __real@408f400000000000    005ca830     Interface.obj
 0002:00000838       __real@401921cac083126f    005ca838     Interface.obj
 0002:00000840       __real@4070000000000000    005ca840     Interface.obj
 0002:00000848       __real@4014000000000000    005ca848     Interface.obj
 0002:00000850       __real@c008000000000000    005ca850     ZBuffer.obj
 0002:00000858       __real@3f81f7047dc11f70    005ca858     ZBuffer.obj
 0002:00000860       __real@c020000000000000    005ca860     ZBuffer.obj
 0002:00000868       __real@3f847ae147ae147b    005ca868     ZBuffer.obj
 0002:00000870       ?drr@@3QBHB                005ca870     Build.obj
 0002:000008a0       __real@4020000000000000    005ca8a0     mapa.obj
 0002:000009a0       __real@40445f3068bd36f6    005ca9a0     Weapon.obj
 0002:000009a8       __real@3f9921fb5a7ed197    005ca9a8     Weapon.obj
 0002:000009b0       __real@3fd45f4b5d9ae65e    005ca9b0     Weapon.obj
 0002:000009b8       __real@401921da19109d31    005ca9b8     Weapon.obj
 0002:000009c0       __real@400921da52c74d31    005ca9c0     Weapon.obj
 0002:000009c8       __real@4010000000000000    005ca9c8     Weapon.obj
 0002:000009d0       __real@3f91df24171ea105    005ca9d0     Weapon.obj
 0002:000009d8       __real@bfe62e429e0a41a2    005ca9d8     Weapon.obj
 0002:000009e0       __real@400921fb54411744    005ca9e0     ActiveZone.obj
 0002:000009e8       ??_7CDeviceCD@@6B@         005ca9e8     DeviceCD.obj
 0002:000009ec       ??_7CMixer@@6B@            005ca9ec     TMixer.obj
 0002:000009f0       ??_7CHttpComm@@6B@         005ca9f0     HttpComm.obj
 0002:00000a14       ??_C@_02JJJH@?6?6?$AA@     005caa14     libc:assert.obj
 0002:00000a18       ??_C@_01BJG@?6?$AA@        005caa18     libc:assert.obj
 0002:00000a1c       ??_C@_03NAME@?4?4?4?$AA@   005caa1c     libc:assert.obj
 0002:00000a20       ??_C@_0CF@JPDF@Microsoft?5Visual?5C?$CL?$CL?5Runtime?5Lib@ 005caa20     libc:assert.obj
 0002:00000a48       ??_C@_0DN@MHHJ@?$CIPress?5Retry?5to?5debug?5the?5applic@ 005caa48     libc:assert.obj
 0002:00000a88       ??_C@_0HA@EJLJ@For?5information?5on?5how?5your?5prog@ 005caa88     libc:assert.obj
 0002:00000af8       ??_C@_0N@NOAB@Expression?3?5?$AA@ 005caaf8     libc:assert.obj
 0002:00000b08       ??_C@_06JMOL@Line?3?5?$AA@ 005cab08     libc:assert.obj
 0002:00000b10       ??_C@_06FAAO@File?3?5?$AA@ 005cab10     libc:assert.obj
 0002:00000b18       ??_C@_0BH@NNCD@?$DMprogram?5name?5unknown?$DO?$AA@ 005cab18     libc:assert.obj
 0002:00000b30       ??_C@_09PIFG@Program?3?5?$AA@ 005cab30     libc:assert.obj
 0002:00000b3c       ??_C@_0BC@OIMC@Assertion?5failed?$CB?$AA@ 005cab3c     libc:assert.obj
 0002:00000ba0       ??_C@_0BH@PHHF@__GLOBAL_HEAP_SELECTED?$AA@ 005caba0     libc:heapinit.obj
 0002:00000bb8       ??_C@_0BF@BBGL@__MSVCRT_HEAP_SELECT?$AA@ 005cabb8     libc:heapinit.obj
 0002:00000bd0       ___lookuptable             005cabd0     libc:output.obj
 0002:00000c2c       ??_C@_1O@POHA@?$AA?$CI?$AAn?$AAu?$AAl?$AAl?$AA?$CJ?$AA?$AA@ 005cac2c     libc:output.obj
 0002:00000c3c       ??_C@_06ONKE@?$CInull?$CJ?$AA@ 005cac3c     libc:output.obj
 0002:00000c44       ??_C@_01A@?$AA?$AA@        005cac44     libc:a_map.obj
 0002:00000c48       ??_C@_13A@?$AA?$AA?$AA?$AA@ 005cac48     libc:a_map.obj
 0002:00000cac       ??_C@_0BD@NJFP@GetLastActivePopup?$AA@ 005cacac     libc:crtmbox.obj
 0002:00000cc0       ??_C@_0BA@GILI@GetActiveWindow?$AA@ 005cacc0     libc:crtmbox.obj
 0002:00000cd0       ??_C@_0M@PKCK@MessageBoxA?$AA@ 005cacd0     libc:crtmbox.obj
 0002:00000cdc       ??_C@_0L@HKL@user32?4dll?$AA@ 005cacdc     libc:crtmbox.obj
 0002:00000cf8       __DEFAULT_CW_in_mem        005cacf8     libc:common.obj
 0002:00000cfa       __pi_by_2_to_61            005cacfa     libc:common.obj
 0002:00000d38       __real@8@3fff8000000000000000 005cad38     libc:testfdiv.obj
 0002:00000d40       __real@8@4015800bf60000000000 005cad40     libc:testfdiv.obj
 0002:00000d48       __real@8@4014bffffc0000000000 005cad48     libc:testfdiv.obj
 0002:00000d50       ??_C@_0BK@JEGK@IsProcessorFeaturePresent?$AA@ 005cad50     libc:testfdiv.obj
 0002:00000d6c       ??_C@_08OBID@KERNEL32?$AA@ 005cad6c     libc:testfdiv.obj
 0002:00000d78       __real@8@00000000000000000000 005cad78     libc:cvt.obj
 0002:00000d80       ??_C@_05OFLO@e?$CL000?$AA@ 005cad80     libc:cvt.obj
 0002:00000dc0       ??_C@_0P@GGKG@runtime?5error?5?$AA@ 005cadc0     libc:crt0msg.obj
 0002:00000dd0       ??_C@_02PIMC@?$AN?6?$AA@   005cadd0     libc:crt0msg.obj
 0002:00000dd4       ??_C@_0O@DELO@TLOSS?5error?$AN?6?$AA@ 005cadd4     libc:crt0msg.obj
 0002:00000de4       ??_C@_0N@OMLL@SING?5error?$AN?6?$AA@ 005cade4     libc:crt0msg.obj
 0002:00000df4       ??_C@_0P@OJAK@DOMAIN?5error?$AN?6?$AA@ 005cadf4     libc:crt0msg.obj
 0002:00000e04       ??_C@_0CF@EANP@R6028?$AN?6?9?5unable?5to?5initialize?5he@ 005cae04     libc:crt0msg.obj
 0002:00000e2c       ??_C@_0DF@ECGN@R6027?$AN?6?9?5not?5enough?5space?5for?5lo@ 005cae2c     libc:crt0msg.obj
 0002:00000e64       ??_C@_0DF@FKAC@R6026?$AN?6?9?5not?5enough?5space?5for?5st@ 005cae64     libc:crt0msg.obj
 0002:00000e9c       ??_C@_0CG@DPMN@R6025?$AN?6?9?5pure?5virtual?5function?5c@ 005cae9c     libc:crt0msg.obj
 0002:00000ec4       ??_C@_0DF@CKIP@R6024?$AN?6?9?5not?5enough?5space?5for?5_o@ 005caec4     libc:crt0msg.obj
 0002:00000efc       ??_C@_0CJ@GGOE@R6019?$AN?6?9?5unable?5to?5open?5console?5@ 005caefc     libc:crt0msg.obj
 0002:00000f28       ??_C@_0CB@LBOB@R6018?$AN?6?9?5unexpected?5heap?5error?$AN?6@ 005caf28     libc:crt0msg.obj
 0002:00000f4c       ??_C@_0CN@FPEG@R6017?$AN?6?9?5unexpected?5multithread?5@ 005caf4c     libc:crt0msg.obj
 0002:00000f7c       ??_C@_0CM@OBIC@R6016?$AN?6?9?5not?5enough?5space?5for?5th@ 005caf7c     libc:crt0msg.obj
 0002:00000fa8       ??_C@_0CB@HPAL@?$AN?6abnormal?5program?5termination?$AN?6@ 005cafa8     libc:crt0msg.obj
 0002:00000fcc       ??_C@_0CM@JOOB@R6009?$AN?6?9?5not?5enough?5space?5for?5en@ 005cafcc     libc:crt0msg.obj
 0002:00000ff8       ??_C@_0CK@OIBL@R6008?$AN?6?9?5not?5enough?5space?5for?5ar@ 005caff8     libc:crt0msg.obj
 0002:00001024       ??_C@_0CF@LKPB@R6002?$AN?6?9?5floating?5point?5not?5load@ 005cb024     libc:crt0msg.obj
 0002:0000104c       ??_C@_0BK@DEOK@Runtime?5Error?$CB?6?6Program?3?5?$AA@ 005cb04c     libc:crt0msg.obj
 0002:00001068       __real@8@40008000000000000000 005cb068     libc:powhlp.obj
 0002:0000107c       ___dnames                  005cb07c     libc:timeset.obj
 0002:00001094       ___mnames                  005cb094     libc:timeset.obj
 0002:000010bc       ??_C@_02JHIA@TZ?$AA@       005cb0bc     libc:tzset.obj
 0002:000010c0       ??_C@_03GAFO@_yn?$AA@      005cb0c0     libc:fpexcept.obj
 0002:000010c4       ??_C@_03GNLD@_y1?$AA@      005cb0c4     libc:fpexcept.obj
 0002:000010c8       ??_C@_03MHCE@_y0?$AA@      005cb0c8     libc:fpexcept.obj
 0002:000010cc       ??_C@_05PAK@frexp?$AA@     005cb0cc     libc:fpexcept.obj
 0002:000010d4       ??_C@_04JKCH@fmod?$AA@     005cb0d4     libc:fpexcept.obj
 0002:000010dc       ??_C@_06GGHF@_hypot?$AA@   005cb0dc     libc:fpexcept.obj
 0002:000010e4       ??_C@_05JNMC@_cabs?$AA@    005cb0e4     libc:fpexcept.obj
 0002:000010ec       ??_C@_05MEKH@ldexp?$AA@    005cb0ec     libc:fpexcept.obj
 0002:000010f4       ??_C@_04KAOJ@modf?$AA@     005cb0f4     libc:fpexcept.obj
 0002:000010fc       ??_C@_04EHAJ@fabs?$AA@     005cb0fc     libc:fpexcept.obj
 0002:00001104       ??_C@_05MFBN@floor?$AA@    005cb104     libc:fpexcept.obj
 0002:0000110c       ??_C@_04JJMP@ceil?$AA@     005cb10c     libc:fpexcept.obj
 0002:00001114       ??_C@_03JLPI@tan?$AA@      005cb114     libc:fpexcept.obj
 0002:00001118       ??_C@_03DLFL@cos?$AA@      005cb118     libc:fpexcept.obj
 0002:0000111c       ??_C@_03JAMN@sin?$AA@      005cb11c     libc:fpexcept.obj
 0002:00001120       ??_C@_04LMBE@sqrt?$AA@     005cb120     libc:fpexcept.obj
 0002:00001128       ??_C@_05BFPO@atan2?$AA@    005cb128     libc:fpexcept.obj
 0002:00001130       ??_C@_04EAGN@atan?$AA@     005cb130     libc:fpexcept.obj
 0002:00001138       ??_C@_04OAMO@acos?$AA@     005cb138     libc:fpexcept.obj
 0002:00001140       ??_C@_04ELFI@asin?$AA@     005cb140     libc:fpexcept.obj
 0002:00001148       ??_C@_04LFAD@tanh?$AA@     005cb148     libc:fpexcept.obj
 0002:00001150       ??_C@_04PFKD@cosh?$AA@     005cb150     libc:fpexcept.obj
 0002:00001158       ??_C@_04NPAI@sinh?$AA@     005cb158     libc:fpexcept.obj
 0002:00001160       ??_C@_05IJHH@log10?$AA@    005cb160     libc:fpexcept.obj
 0002:00001168       ??_C@_03BGKD@log?$AA@      005cb168     libc:fpexcept.obj
 0002:0000116c       ??_C@_03EGFG@pow?$AA@      005cb16c     libc:fpexcept.obj
 0002:00001170       ??_C@_03CDGJ@exp?$AA@      005cb170     libc:fpexcept.obj
 0002:00001174       ??_C@_06PAPI@1?$CDQNAN?$AA@ 005cb174     libc:x10fout.obj
 0002:0000117c       ??_C@_05BGNL@1?$CDINF?$AA@ 005cb17c     libc:x10fout.obj
 0002:00001184       ??_C@_05EDPF@1?$CDIND?$AA@ 005cb184     libc:x10fout.obj
 0002:0000118c       ??_C@_06LKFM@1?$CDSNAN?$AA@ 005cb18c     libc:x10fout.obj
 0002:0000131c       _querylengths              005cb31c     Peer:gserverlist.obj
 0002:00001334       __real@4@00000000000000000000 005cb334     Peer:gserverlist.obj
 0002:00001338       ??_7CPinger@@6B@           005cb338     Pinger:Pinger.obj
 0002:0000133c       ??_C@_07IJDM@0?40?40?40?$AA@ 005cb33c     CommCore:CommInit.obj
 0002:00001344       ??_C@_0BA@CHEM@m_lpbRecvBuffer?$AA@ 005cb344     CommCore:CommInit.obj
 0002:00001354       ??_C@_0BP@JPKI@E?3?2?9UDP?9?2CommCore?2CommInit?4cpp?$AA@ 005cb354     CommCore:CommInit.obj
 0002:00001374       ??_7CCommCore@@6B@         005cb374     CommCore:CommInit.obj
 0002:00001378       ??_C@_0O@JOFL@m_lpbUserData?$AA@ 005cb378     CommCore:CommCore.obj
 0002:00001388       ??_C@_0BP@MEEI@e?3?2?9udp?9?2commcore?2commcore?4cpp?$AA@ 005cb388     CommCore:CommCore.obj
 0002:000013a8       ??_C@_0BF@IMGG@lpSendUserDataPacket?$AA@ 005cb3a8     CommCore:CommCore.obj
 0002:000013c0       ??_C@_0BM@HPDP@m_PeerList?$FL0?$FN?4m_lpbUserData?$AA@ 005cb3c0     CommCore:CommCore.obj
 0002:000013dc       ??_C@_05GKAD@CCUID?$AA@    005cb3dc     CommCore:CommCore.obj
 0002:000013e4       ??_C@_0BI@HELA@Software?2GSC?5Game?5World?$AA@ 005cb3e4     CommCore:CommCore.obj
 0002:000013fc       ??_C@_0BD@NLIB@?$CF?98?48s?9?$CF8?48X?9?$CF4?44X?$AA@ 005cb3fc     CommCore:CommCore.obj
 0002:00001410       ??_C@_0CA@DDCE@m_PeerList?$FLuPeer?$FN?4m_lpbUserData?$AA@ 005cb410     CommCore:CommRecv.obj
 0002:00001430       ??_C@_0BP@EFFO@E?3?2?9UDP?9?2CommCore?2CommRecv?4cpp?$AA@ 005cb430     CommCore:CommRecv.obj
 0002:00001450       ??_C@_0L@FEJD@lpRawFrame?$AA@ 005cb450     CommCore:CommRaw.obj
 0002:0000145c       ??_C@_0BO@KPHD@E?3?2?9UDP?9?2CommCore?2CommRaw?4cpp?$AA@ 005cb45c     CommCore:CommRaw.obj
 0002:0000147c       ??_C@_0N@MILG@lpServerList?$AA@ 005cb47c     CommCore:CommServerList.obj
 0002:0000148c       ??_C@_0CF@CGLM@E?3?2?9UDP?9?2CommCore?2CommServerList@ 005cb48c     CommCore:CommServerList.obj
 0002:000014b4       ??_C@_0BM@DMGK@m_PeerList?$FLi?$FN?4m_lpbUserData?$AA@ 005cb4b4     CommCore:CommServerList.obj
 0002:000014d0       __imp__free                005cb4d0     <linker-defined>
 0002:000014d4       __imp__srand               005cb4d4     <linker-defined>
 0002:000014d8       __imp__malloc              005cb4d8     <linker-defined>
 0002:000014dc       __imp__strncmp             005cb4dc     <linker-defined>
 0002:000014e0       __imp__atoi                005cb4e0     <linker-defined>
 0002:000014e4       __imp__memmove             005cb4e4     <linker-defined>
 0002:000014e8       __imp__realloc             005cb4e8     <linker-defined>
 0002:000014ec       __imp__strstr              005cb4ec     <linker-defined>
 0002:000014f0       __imp__strdup              005cb4f0     <linker-defined>
 0002:000014f4       __imp__strncpy             005cb4f4     <linker-defined>
 0002:000014f8       __imp__rand                005cb4f8     <linker-defined>
 0002:000014fc       __imp___strlwr             005cb4fc     <linker-defined>
 0002:00001500       __imp__sprintf             005cb500     <linker-defined>
 0002:00001504       __imp__fopen               005cb504     <linker-defined>
 0002:00001508       __imp__fclose              005cb508     <linker-defined>
 0002:0000150c       __imp__fprintf             005cb50c     <linker-defined>
 0002:00001510       __imp__toupper             005cb510     <linker-defined>
 0002:00001514       __imp__strchr              005cb514     <linker-defined>
 0002:00001518       __imp__time                005cb518     <linker-defined>
 0002:0000151c       __imp___strdup             005cb51c     <linker-defined>
 0002:00009f48       __IMPORT_DESCRIPTOR_KERNEL32 005d3f48     kernel32:KERNEL32.dll
 0002:00009f5c       __IMPORT_DESCRIPTOR_USER32 005d3f5c     user32:USER32.dll
 0002:00009f70       __IMPORT_DESCRIPTOR_GDI32  005d3f70     gdi32:GDI32.dll
 0002:00009f84       __IMPORT_DESCRIPTOR_ADVAPI32 005d3f84     advapi32:ADVAPI32.dll
 0002:00009f98       __IMPORT_DESCRIPTOR_SHELL32 005d3f98     shell32:SHELL32.dll
 0002:00009fac       __IMPORT_DESCRIPTOR_ole32  005d3fac     ole32:ole32.dll
 0002:00009fc0       __IMPORT_DESCRIPTOR_WS2_32 005d3fc0     ws2_32:WS2_32.dll
 0002:00009fd4       __IMPORT_DESCRIPTOR_WINMM  005d3fd4     Winmm:WINMM.dll
 0002:00009fe8       __IMPORT_DESCRIPTOR_DDRAW  005d3fe8     Ddraw:DDRAW.dll
 0002:00009ffc       __IMPORT_DESCRIPTOR_DSOUND 005d3ffc     dsound:DSOUND.dll
 0002:0000a010       __IMPORT_DESCRIPTOR_DPLAYX 005d4010     dplayx:DPLAYX.dll
 0002:0000a024       __IMPORT_DESCRIPTOR_iChat  005d4024     ichat:iChat.dll
 0002:0000a038       __NULL_IMPORT_DESCRIPTOR   005d4038     kernel32:KERNEL32.dll
 0003:00000000       ___xc_a                    005db000     libc:crt0init.obj
 0003:00000240       ___xc_z                    005db240     libc:crt0init.obj
 0003:00000244       ___xi_a                    005db244     libc:crt0init.obj
 0003:00000258       ___xi_z                    005db258     libc:crt0init.obj
 0003:0000025c       ___xp_a                    005db25c     libc:crt0init.obj
 0003:00000264       ___xp_z                    005db264     libc:crt0init.obj
 0003:00000268       ___xt_a                    005db268     libc:crt0init.obj
 0003:00000270       ___xt_z                    005db270     libc:crt0init.obj
 0003:00000430       ?CurrentMaxPing@@3PAHA     005db430     MPlayer.obj
 0003:00000450       ?ExitNI@@3HA               005db450     MPlayer.obj
 0003:0000045c       ?txREADYTX@@3PADA          005db45c     MPlayer.obj
 0003:00000468       ?txLOADTX@@3PADA           005db468     MPlayer.obj
 0003:00000474       ?txNOANSTX@@3PADA          005db474     MPlayer.obj
 0003:00000480       ?txLOOKSTX@@3PADA          005db480     MPlayer.obj
 0003:0000048c       ?txNOPLAYTX@@3PADA         005db48c     MPlayer.obj
 0003:00000498       ?txDISCNTX@@3PADA          005db498     MPlayer.obj
 0003:000004a4       ?txALTTAB@@3PADA           005db4a4     MPlayer.obj
 0003:000007b8       ?LobbyVersion@@3PADA       005db7b8     PeerClass.obj
 0003:00000824       ?VALCHAR@@3PADA            005db824     PeerClass.obj
 0003:00000c48       ?LS_Mess@@3PADA            005dbc48     Brigade.obj
 0003:00000c64       ?WLS_Mess@@3PADA           005dbc64     Brigade.obj
 0003:00000c7c       ?GS_Mess@@3PADA            005dbc7c     Brigade.obj
 0003:00000c90       ?CM_Mess@@3PADA            005dbc90     Brigade.obj
 0003:00000ca4       ?BTL_Mess@@3PADA           005dbca4     Brigade.obj
 0003:00000cb8       ?PFM_Mess@@3PADA           005dbcb8     Brigade.obj
 0003:00000cd0       ?HLST_Message@@3PADA       005dbcd0     Brigade.obj
 0003:00000ce4       ?KP_Message@@3PADA         005dbce4     Brigade.obj
 0003:00000cfc       ?HGST_Message@@3PADA       005dbcfc     Brigade.obj
 0003:00000d14       ?BBIT_Message@@3PADA       005dbd14     Brigade.obj
 0003:00000d18       ?FormSize@@3PAEA           005dbd18     Brigade.obj
 0003:000016c0       ?NTows@@3HA                005dc6c0     EinfoClass.obj
 0003:00001b40       ?FIELDID@@3GA              005dcb40     Megapolis.obj
 0003:00001b44       ?DefPreBDef@@3PAEA         005dcb44     Megapolis.obj
 0003:00001b4c       ?PreBDef@@3PAEA            005dcb4c     Megapolis.obj
 0003:00001b50       ?NPreBDef@@3HA             005dcb50     Megapolis.obj
 0003:00001b54       ?DefaultResTBL@@3PAHA      005dcb54     Megapolis.obj
 0003:00001b84       ?ResTBL@@3PAHA             005dcb84     Megapolis.obj
 0003:00001b88       ?NInResTBL@@3HA            005dcb88     Megapolis.obj
 0003:00001b8c       ?MUtbl@@3PAHA              005dcb8c     Megapolis.obj
 0003:00001bb4       ?wrs@@3HA                  005dcbb4     Megapolis.obj
 0003:00001bb8       ?ArmType@@3PAEA            005dcbb8     Megapolis.obj
 0003:00001bdc       ?ArmSpec@@3PAEA            005dcbdc     Megapolis.obj
 0003:00001c00       ?BriMax@@3PAGA             005dcc00     Megapolis.obj
 0003:00001c14       ?BriMin@@3PAGA             005dcc14     Megapolis.obj
 0003:00001c28       ?DefBriMin@@3PAGA          005dcc28     Megapolis.obj
 0003:00001c54       ?AO_LST@@3PADA             005dcc54     Megapolis.obj
 0003:00001c74       ?ACTA_Message@@3PADA       005dcc74     Megapolis.obj
 0003:00001c90       ?ABTL_Mess@@3PADA          005dcc90     Megapolis.obj
 0003:00001ca4       ?ABIT_Message@@3PADA       005dcca4     Megapolis.obj
 0003:00001cc0       ?ADIV_Message@@3PADA       005dccc0     Megapolis.obj
 0003:00001cc4       ?MaxDiver@@3PAEA           005dccc4     Megapolis.obj
 0003:000039d0       ?PlatoHi@@3HA              005de9d0     3DMapEd.obj
 0003:000039d4       ?SurfType@@3HA             005de9d4     3DMapEd.obj
 0003:000039d8       ?RTARR0@@3PAEA             005de9d8     3DMapEd.obj
 0003:000039e8       ?RTARR1@@3PAEA             005de9e8     3DMapEd.obj
 0003:000039f8       ?RTARR2@@3PAEA             005de9f8     3DMapEd.obj
 0003:00003a08       ?RoadPrio@@3PAEA           005dea08     3DMapEd.obj
 0003:00003d38       ?MinLinkDist@@3HA          005ded38     3DRandMap.obj
 0003:00003d3c       ?StartHillHeight@@3HA      005ded3c     3DRandMap.obj
 0003:00003d40       ?MaxHillHeight@@3HA        005ded40     3DRandMap.obj
 0003:00003d44       ?HillWidth@@3HA            005ded44     3DRandMap.obj
 0003:00003d48       ?HILLHI@@3PANA             005ded48     3DRandMap.obj
 0003:00003e48       ?xRMp@@3HA                 005dee48     3DRandMap.obj
 0003:00003e4c       ?yRMp@@3HA                 005dee4c     3DRandMap.obj
 0003:00003e50       ?RN_FName@@3PADA           005dee50     3DRandMap.obj
 0003:00003e90       ?SaveState@@3EA            005dee90     3DRandMap.obj
 0003:00003e94       ?LastPalette@@3HA          005dee94     3DRandMap.obj
 0003:00003e98       ?NdMaxX@@3HA               005dee98     3DRandMap.obj
 0003:00003e9c       ?PeaceTimeLeft@@3HA        005dee9c     3DRandMap.obj
 0003:00003ea0       ?DDDXX@@3PAHA              005deea0     3DRandMap.obj
 0003:00003ec0       ?DDDYY@@3PAHA              005deec0     3DRandMap.obj
 0003:00003ee0       ?LIDX@@3GA                 005deee0     3DRandMap.obj
 0003:00003ee4       ?carr@@3PAEA               005deee4     3DRandMap.obj
 0003:00003f10       ?GrassMask@@3PAEA          005def10     3DRandMap.obj
 0003:00004010       ?dx_p@@3PAHA               005df010     3DRandMap.obj
 0003:0000403c       ?dy_p@@3PAHA               005df03c     3DRandMap.obj
 0003:00004068       ??_C@_0BB@JFCC@Invalid?5file?3?5?$CFs?$AA@ 005df068     3DRandMap.obj
 0003:0000407c       ??_C@_06MJLD@?$CFs?$CFd?$CFd?$AA@ 005df07c     3DRandMap.obj
 0003:00004084       ??_C@_09HJEM@TexAmount?$AA@ 005df084     3DRandMap.obj
 0003:00004090       ??_C@_02DILL@?$CFs?$AA@    005df090     3DRandMap.obj
 0003:00004094       ??_C@_07OIBO@NLayers?$AA@  005df094     3DRandMap.obj
 0003:0000409c       ??_C@_04MOFI@?$CFs?$CFd?$AA@ 005df09c     3DRandMap.obj
 0003:000040a4       ??_C@_02MECO@?$CFd?$AA@    005df0a4     3DRandMap.obj
 0003:000040a8       ??_C@_01LHO@r?$AA@         005df0a8     3DRandMap.obj
 0003:000040ac       ??_C@_0BE@DDNE@Terrain?2Hills?$CFd?4dat?$AA@ 005df0ac     3DRandMap.obj
 0003:000040c0       ??_C@_09DHPC@Texturing?$AA@ 005df0c0     3DRandMap.obj
 0003:000040cc       ??_C@_0BD@PPAK@Generating?5hill?5?$CFd?$AA@ 005df0cc     3DRandMap.obj
 0003:000040e0       ??_C@_08KNJI@?$CFs?$CFx?$CFx?$CFs?$AA@ 005df0e0     3DRandMap.obj
 0003:000040ec       ??_C@_08IMJL@00000000?$AA@ 005df0ec     3DRandMap.obj
 0003:000040f8       ??_C@_06FHIJ@?$CFd?$CFd?$CFs?$AA@ 005df0f8     3DRandMap.obj
 0003:00004100       ??_C@_0BF@DHCB@Terrain?2terrlist?4dat?$AA@ 005df100     3DRandMap.obj
 0003:00004118       ??_C@_0L@FGME@Terrain?2?$CFs?$AA@ 005df118     3DRandMap.obj
 0003:00004124       ??_C@_0BA@IEEA@Terrain?2res?4dat?$AA@ 005df124     3DRandMap.obj
 0003:00004134       ??_C@_0BP@GEMA@Creating?5map?3?5Unknown?5unit?3?5?$CFs?$AA@ 005df134     3DRandMap.obj
 0003:00004154       ??_C@_0L@MBEG@?$CFs?$CFx?$CFx?$CFs?$CFd?$AA@ 005df154     3DRandMap.obj
 0003:00004160       ??_C@_06DJDD@?$CFs?4lnk?$AA@ 005df160     3DRandMap.obj
 0003:00004168       ??_C@_0BC@FMCK@UserPieces?2?$CFs?4smp?$AA@ 005df168     3DRandMap.obj
 0003:0000417c       ??_C@_0M@BBIG@Load?5sample?$AA@ 005df17c     3DRandMap.obj
 0003:00004188       ??_C@_0M@FGA@Save?5sample?$AA@ 005df188     3DRandMap.obj
 0003:00004194       ??_C@_0N@EHGN@TEXTURESONLY?$AA@ 005df194     3DRandMap.obj
 0003:000041a4       ??_C@_03HHKO@?$CFs?6?$AA@  005df1a4     3DRandMap.obj
 0003:000041a8       ??_C@_0BA@NJPJ@Pieces?2?$CFs?$CFs?4smp?$AA@ 005df1a8     3DRandMap.obj
 0003:000041b8       ??_C@_03KHJB@0?$CFd?$AA@   005df1b8     3DRandMap.obj
 0003:000041bc       ??_C@_04FIPC@00?$CFd?$AA@  005df1bc     3DRandMap.obj
 0003:000041c4       ??_C@_01LLF@w?$AA@         005df1c4     3DRandMap.obj
 0003:000041c8       ??_C@_0O@GGGM@Pieces?2?$CFs?4lst?$AA@ 005df1c8     3DRandMap.obj
 0003:000041d8       ??_C@_0BB@GNKH@Save?5all?5pieces?4?$AA@ 005df1d8     3DRandMap.obj
 0003:000041ec       ??_C@_0BC@NOPB@Generating?5nature?$AA@ 005df1ec     3DRandMap.obj
 0003:00004200       ??_C@_0BB@BDAB@Pieces?2MINA0?4LST?$AA@ 005df200     3DRandMap.obj
 0003:00004214       ??_C@_0BA@NGIK@Pieces?2TRSS?4LST?$AA@ 005df214     3DRandMap.obj
 0003:00004224       ??_C@_0BB@EGBK@Pieces?2STNN0?4LST?$AA@ 005df224     3DRandMap.obj
 0003:00004238       ??_C@_0BC@DCEO@Terrain?2Mount?4dat?$AA@ 005df238     3DRandMap.obj
 0003:0000424c       ??_C@_0BO@CLPC@Invalid?5file?5Terrain?2cost?4dat?$AA@ 005df24c     3DRandMap.obj
 0003:0000426c       ??_C@_04FBFD@?$CFd?$CFd?$AA@ 005df26c     3DRandMap.obj
 0003:00004274       ??_C@_0BB@LNPM@Terrain?2cost?4dat?$AA@ 005df274     3DRandMap.obj
 0003:00004288       ??_C@_04FOAE@?$CFd?$CF?$CF?$AA@ 005df288     3DRandMap.obj
 0003:00004290       ??_C@_0BM@DECO@Interface?2Palettes?2Loading0?$AA@ 005df290     3DRandMap.obj
 0003:000042ac       ??_C@_0BD@OMAE@Interface?2Loading1?$AA@ 005df2ac     3DRandMap.obj
 0003:000042c0       ??_C@_0CD@IMPK@File?5?$CFs?5is?5corrupted?5in?5section?5@ 005df2c0     3DRandMap.obj
 0003:000042e4       ??_C@_04KNMG@?$CFd?$CFs?$AA@ 005df2e4     3DRandMap.obj
 0003:000042ec       ??_C@_06EBPA@STYLES?$AA@   005df2ec     3DRandMap.obj
 0003:000042f4       ??_C@_06CAOM@RELIEF?$AA@   005df2f4     3DRandMap.obj
 0003:000042fc       ??_C@_08JABE@STARTRES?$AA@ 005df2fc     3DRandMap.obj
 0003:00004308       ??_C@_08CLGC@?$CFs?$CFd?$CFd?$CFd?$AA@ 005df308     3DRandMap.obj
 0003:00004314       ??_C@_05JPEN@MINES?$AA@    005df314     3DRandMap.obj
 0003:0000431c       ??_C@_0BE@BCHG@Preparing?5to?5render?$AA@ 005df31c     3DRandMap.obj
 0003:00004330       ??_C@_0BB@PGJE@Pieces?2Empty?4sty?$AA@ 005df330     3DRandMap.obj
 0003:00004344       ??_C@_0BG@FMEH@Generating?5background?$AA@ 005df344     3DRandMap.obj
 0003:0000435c       ??_C@_0BB@LFDB@Pieces?2LESU0?4LST?$AA@ 005df35c     3DRandMap.obj
 0003:00004370       ??_C@_07EPCK@Softing?$AA@  005df370     3DRandMap.obj
 0003:00004378       ??_C@_0BB@CCFB@Generating?5hills?$AA@ 005df378     3DRandMap.obj
 0003:0000438c       ??_C@_0O@NIJP@Creating?5cost?$AA@ 005df38c     3DRandMap.obj
 0003:0000439c       ??_C@_0P@CEHI@Creating?5water?$AA@ 005df39c     3DRandMap.obj
 0003:000043ac       ??_C@_0BC@BGCE@Generating?5map?4?4?4?$AA@ 005df3ac     3DRandMap.obj
 0003:000043c0       ??_C@_01PLJA@0?$AA@        005df3c0     3DRandMap.obj
 0003:000043c4       ??_C@_05FE@Type?3?$AA@     005df3c4     3DRandMap.obj
 0003:000043cc       ??_C@_02OCMF@RD?$AA@       005df3cc     3DRandMap.obj
 0003:000043d0       ??_C@_02EKMH@LD?$AA@       005df3d0     3DRandMap.obj
 0003:000043d4       ??_C@_02OBCC@RU?$AA@       005df3d4     3DRandMap.obj
 0003:000043d8       ??_C@_02EJCA@LU?$AA@       005df3d8     3DRandMap.obj
 0003:000043dc       ??_C@_01FJJO@R?$AA@        005df3dc     3DRandMap.obj
 0003:000043e0       ??_C@_01FLCE@L?$AA@        005df3e0     3DRandMap.obj
 0003:000043e4       ??_C@_01PJM@D?$AA@         005df3e4     3DRandMap.obj
 0003:000043e8       ??_C@_01MHL@U?$AA@         005df3e8     3DRandMap.obj
 0003:000043ec       ??_C@_05FLDH@?3?3new?$AA@  005df3ec     3DRandMap.obj
 0003:000043f4       ??_C@_06HLID@?3?3goto?$AA@ 005df3f4     3DRandMap.obj
 0003:000043fc       ??_C@_04DCMN@?$CFs?$CFs?$AA@ 005df3fc     3DRandMap.obj
 0003:00004404       ??_C@_06JOBP@?3?3pass?$AA@ 005df404     3DRandMap.obj
 0003:0000440c       ??_C@_06HIML@?3?3root?$AA@ 005df40c     3DRandMap.obj
 0003:00004414       ??_C@_07BBHA@?3?3dosmp?$AA@ 005df414     3DRandMap.obj
 0003:0000441c       ??_C@_04OMJH@LOW_?$AA@     005df41c     3DRandMap.obj
 0003:000044b4       ?BestVX@@3HA               005df4b4     Ddini.obj
 0003:000044b8       ?BestVY@@3HA               005df4b8     Ddini.obj
 0003:000044bc       ?BestBPP@@3HA              005df4bc     Ddini.obj
 0003:00004600       ?ROLLU2@@3HA               005df600     Dialogs.obj
 0003:0000478c       ?StdRect@@3UCorners@@A     005df78c     DrawForms.obj
 0003:000047ac       ?LeftRect@@3UCorners@@A    005df7ac     DrawForms.obj
 0003:000047cc       ?RightRect@@3UCorners@@A   005df7cc     DrawForms.obj
 0003:000047ec       ?UpRect@@3UCorners@@A      005df7ec     DrawForms.obj
 0003:0000480c       ?DnRect@@3UCorners@@A      005df80c     DrawForms.obj
 0003:0000482c       ?Table@@3UCorners@@A       005df82c     DrawForms.obj
 0003:0000484c       ?UpTable@@3UCorners@@A     005df84c     DrawForms.obj
 0003:0000486c       ?UpTable1@@3UCorners@@A    005df86c     DrawForms.obj
 0003:0000488c       ?DnTable@@3UCorners@@A     005df88c     DrawForms.obj
 0003:000048ac       ?DnTable1@@3UCorners@@A    005df8ac     DrawForms.obj
 0003:000048cc       ?DnTable2@@3UCorners@@A    005df8cc     DrawForms.obj
 0003:000048ec       ?Paper@@3UCorners@@A       005df8ec     DrawForms.obj
 0003:0000490c       ?HintPan@@3UCorners@@A     005df90c     DrawForms.obj
 0003:0000492c       ?UpTable3@@3UCorners@@A    005df92c     DrawForms.obj
 0003:0000494c       ?DnTable3@@3UCorners@@A    005df94c     DrawForms.obj
 0003:0000496c       ?HdrTbl@@3UCorners@@A      005df96c     DrawForms.obj
 0003:0000498c       ?ST_Top@@3UCorners@@A      005df98c     DrawForms.obj
 0003:000049ac       ?ST_Middle@@3UCorners@@A   005df9ac     DrawForms.obj
 0003:000049cc       ?ST_Bottom@@3UCorners@@A   005df9cc     DrawForms.obj
 0003:000049ec       ?ST_Left@@3UCorners@@A     005df9ec     DrawForms.obj
 0003:00004a0c       ?ST_Right@@3UCorners@@A    005dfa0c     DrawForms.obj
 0003:00004a2c       ?P2_NORMAL@@3UCorners@@A   005dfa2c     DrawForms.obj
 0003:00004a4c       ?BordGP2@@3HA              005dfa4c     DrawForms.obj
 0003:00004a50       ?BordGP@@3HA               005dfa50     DrawForms.obj
 0003:00004a6c       ?BytesPerPixel@@3HA        005dfa6c     Fastdraw.obj
 0003:00004bb8       ?ddd@@3HA                  005dfbb8     GP_Draw.obj
 0003:00004bc0       ?NatPal@@3PAEA             005dfbc0     GP_Draw.obj
 0003:00004ea0       ?GHDR@@3PAPADA             005dfea0     Graphs.obj
 0003:00004f00       ?RedColor2@@3EA            005dff00     Interface.obj
 0003:00004f04       ?CurrentNation@@3HA        005dff04     Interface.obj
 0003:00004f08       ?TM_Angle1@@3HA            005dff08     Interface.obj
 0003:00004f0c       ?TM_Height1@@3HA           005dff0c     Interface.obj
 0003:00004f10       ?NameChoose@@3HA           005dff10     Interface.obj
 0003:00004f18       ?Unknm@@3PADA              005dff18     Interface.obj
 0003:00004f28       ?UNKN@@3PADA               005dff28     Interface.obj
 0003:00004f2c       ?GMMAXPL@@3HA              005dff2c     Interface.obj
 0003:00004f58       ?_engNOCONN@@3PADA         005dff58     Interface.obj
 0003:00004f5c       ?MPL_NatRefTBL@@3PAEA      005dff5c     Interface.obj
 0003:00004f64       ?PlayMode@@3HA             005dff64     Interface.obj
 0003:00004f68       ?FullScreenMode@@3_NA      005dff68     Interface.obj
 0003:00004f6c       ?NAboutLn@@3HA             005dff6c     Interface.obj
 0003:00004f70       ?prevVid@@3HA              005dff70     Interface.obj
 0003:00004f74       ?prevVid1@@3HA             005dff74     Interface.obj
 0003:00004f78       ?prevVid2@@3HA             005dff78     Interface.obj
 0003:00004f7c       ?prevVid3@@3HA             005dff7c     Interface.obj
 0003:00004f94       ?MapGP@@3HA                005dff94     Interface.obj
 0003:00004f98       ?CurrentCampagin@@3HA      005dff98     Interface.obj
 0003:00004f9c       ?CurrentMission@@3HA       005dff9c     Interface.obj
 0003:00004fb8       ?ROME@@3PAPADA             005dffb8     Interface.obj
 0003:00004fd0       ?LPAL@@3HA                 005dffd0     Interface.obj
 0003:00004fd4       ?MI_Mode@@3EA              005dffd4     Interface.obj
 0003:00004fdc       ?UNKED@@3PADA              005dffdc     Interface.obj
 0003:00004fe0       ?PrevRelBr@@3HA            005dffe0     Interface.obj
 0003:00004fe4       ?BT_COLOR@@3EA             005dffe4     Interface.obj
 0003:00004fe8       ?CurrPiece@@3HA            005dffe8     Interface.obj
 0003:00004fec       ?PrevCostW@@3HA            005dffec     Interface.obj
 0003:00004ff0       ?PrevScrLx@@3HA            005dfff0     Interface.obj
 0003:00008f84       ?LastPressedCodes@@3PAEA   005e3f84     MousZone.obj
 0003:00008fac       ??_C@_0BD@MDBD@VirtualScreen?$CIEnd?$CJ?$AA@ 005e3fac     VirtScr.obj
 0003:00008fc0       ??_C@_0BF@DBAI@VirtualScreen?$CIStart?$CJ?$AA@ 005e3fc0     VirtScr.obj
 0003:00009318       ?FrmDec@@3HA               005e4318     Ddex1.obj
 0003:0000931c       ?SpeedSh@@3HA              005e431c     Ddex1.obj
 0003:00009320       ?exFMode@@3HA              005e4320     Ddex1.obj
 0003:00009324       ?SHOWSLIDE@@3_NA           005e4324     Ddex1.obj
 0003:00009325       ?FullMini@@3_NA            005e4325     Ddex1.obj
 0003:00009328       ?NoCD@@3EA                 005e4328     Ddex1.obj
 0003:00009329       ?First@@3_NA               005e4329     Ddex1.obj
 0003:0000932a       ?NOPAUSE@@3_NA             005e432a     Ddex1.obj
 0003:0000932c       ?CurrentStepTime@@3HA      005e432c     Ddex1.obj
 0003:00009330       ?TAverage@@3HA             005e4330     Ddex1.obj
 0003:00009334       ?ROLL@@3HA                 005e4334     Ddex1.obj
 0003:00009338       ?dwVersion@@3GA            005e4338     Ddex1.obj
 0003:0000a3a8       ?LastTimeStage@@3HA        005e53a8     LoadSave.obj
 0003:0000a3b0       ?ORDLIST@@3PAP6AXPAVOneObject@@@ZA 005e53b0     LoadSave.obj
 0003:0000a430       ?LS_CFN@@3PAP6AHPAVOneObject@@PAVCity@@@ZA 005e5430     LoadSave.obj
 0003:0000a448       ?BR_ORD@@3PAP6AXPAVBrigade@@@ZA 005e5448     LoadSave.obj
 0003:0000a480       ?AR_ORD@@3PAP6AXPAVAI_Army@@@ZA 005e5480     LoadSave.obj
 0003:0000a498       ?IBR@@3PAP6AXPAVIdea@@@ZA  005e5498     LoadSave.obj
 0003:0000a4a8       ?std_mess@@3PADA           005e54a8     LoadSave.obj
 0003:0000a4ac       ?ADDSH@@3HA                005e54ac     LoadSave.obj
 0003:0000a4b0       ?TEXARR@@3PAHA             005e54b0     LoadSave.obj
 0003:0000abe8       ?GridX@@3HA                005e5be8     mapa.obj
 0003:0000abec       ?GridY@@3HA                005e5bec     mapa.obj
 0003:0000abf0       ?GridLx@@3HA               005e5bf0     mapa.obj
 0003:0000abf4       ?GridLy@@3HA               005e5bf4     mapa.obj
 0003:0000abf8       ?GridNx@@3HA               005e5bf8     mapa.obj
 0003:0000abfc       ?GridNy@@3HA               005e5bfc     mapa.obj
 0003:0000ac00       ?PreviewBrig@@3HA          005e5c00     mapa.obj
 0003:0000ac04       ?ScrollSpeed@@3HA          005e5c04     mapa.obj
 0003:0000ac08       ?InfAddY@@3HA              005e5c08     mapa.obj
 0003:0000ac0c       ?InfDX@@3HA                005e5c0c     mapa.obj
 0003:0000ac10       ?OldLpressed@@3HA          005e5c10     mapa.obj
 0003:0000ac14       ?GuardPtr1@@3HA            005e5c14     mapa.obj
 0003:0000ac18       ?GuardPtr2@@3HA            005e5c18     mapa.obj
 0003:0000ac1c       ?PatrolPtr@@3HA            005e5c1c     mapa.obj
 0003:0000ac20       ?AttGrPtr@@3HA             005e5c20     mapa.obj
 0003:0000ac24       ?EnterTrPtr@@3HA           005e5c24     mapa.obj
 0003:0000ac50       ?MMITM@@3PAPADA            005e5c50     mapa.obj
 0003:0000ac64       ?UI_PrmPage@@3PAHA         005e5c64     mapa.obj
 0003:0000ac74       ?DECO@@3PAEA               005e5c74     mapa.obj
 0003:0000ac7c       ?EECO@@3PAEA               005e5c7c     mapa.obj
 0003:0000ac82       ?LastSelID@@3GA            005e5c82     mapa.obj
 0003:0000ac84       ?RSN_CurResAmount@@3HA     005e5c84     mapa.obj
 0003:0000ac88       ?GAME_CLICK_RESULT@@3HA    005e5c88     mapa.obj
 0003:0000b2e0       ??_C@_0P@FMKP@nn?$DMVAL_SPRSIZE?$AA@ 005e62e0     MapSprites.obj
 0003:0000b2f0       ??_C@_0GG@GGGB@C?3?2OLD_PROJECTS_BACKUP?2BackToWar@ 005e62f0     MapSprites.obj
 0003:0000b358       ??_C@_07DMAD@complex?$AA@  005e6358     MapSprites.obj
 0003:0000b360       ??_C@_08BBDG@holelist?$AA@ 005e6360     MapSprites.obj
 0003:0000b36c       ??_C@_08LLDE@stonlist?$AA@ 005e636c     MapSprites.obj
 0003:0000b378       ??_C@_08MDIE@treelist?$AA@ 005e6378     MapSprites.obj
 0003:0000b3f0       ?PrevProdPos@@3HA          005e63f0     Multi.obj
 0003:0000b3f4       ?CURMAXP@@3HA              005e63f4     Multi.obj
 0003:0000b3f8       ?PREVSEUSETPOS@@3HA        005e63f8     Multi.obj
 0003:0000b3fc       ?PREVSEUSETPOSTART@@3HA    005e63fc     Multi.obj
 0003:0000b400       ?PREVNAT@@3HA              005e6400     Multi.obj
 0003:0000b6ac       ?LastAttackX@@3HA          005e66ac     Nation.obj
 0003:0000b6b0       ?LastAttackY@@3HA          005e66b0     Nation.obj
 0003:0000b6b4       ?AttackLink@@3P6AXPAVOneObject@@@ZA 005e66b4     Nation.obj
 0003:0000bb90       ?SGenIcon@@3HA             005e6b90     Nature.obj
 0003:0000bb94       ?FREE_ORDER_ICON@@3HA      005e6b94     Nature.obj
 0003:0000bb98       ?STAND_GROUND_ICON@@3HA    005e6b98     Nature.obj
 0003:0000bb9c       ?NOT_STAND_GROUND_ICON@@3HA 005e6b9c     Nature.obj
 0003:0000bba0       ?SET_DEST_ICON@@3HA        005e6ba0     Nature.obj
 0003:0000bba4       ?SDS_X@@3HA                005e6ba4     Nature.obj
 0003:0000bba8       ?SDS_Y@@3HA                005e6ba8     Nature.obj
 0003:0000bbac       ?STAND_GRUND_ORDER_ICON@@3HA 005e6bac     Nature.obj
 0003:0000bbb0       ?ORDERS_LIST_ICON@@3HA     005e6bb0     Nature.obj
 0003:0000bbb4       ?EATT_X@@3HA               005e6bb4     Nature.obj
 0003:0000bbb8       ?EATT_Y@@3HA               005e6bb8     Nature.obj
 0003:0000bbbc       ?EATT_Icon@@3HA            005e6bbc     Nature.obj
 0003:0000bbc0       ?DATT_X@@3HA               005e6bc0     Nature.obj
 0003:0000bbc4       ?DATT_Y@@3HA               005e6bc4     Nature.obj
 0003:0000bbc8       ?DATT_Icon@@3HA            005e6bc8     Nature.obj
 0003:0000bbcc       ?GATT_X@@3HA               005e6bcc     Nature.obj
 0003:0000bbd0       ?GATT_Y@@3HA               005e6bd0     Nature.obj
 0003:0000bbd4       ?GATT_Icon@@3HA            005e6bd4     Nature.obj
 0003:0000bbd8       ?PATR_X@@3HA               005e6bd8     Nature.obj
 0003:0000bbdc       ?PATR_Y@@3HA               005e6bdc     Nature.obj
 0003:0000bbe0       ?PATR_Icon@@3HA            005e6be0     Nature.obj
 0003:0000bbe4       ?STOP_ICON@@3HA            005e6be4     Nature.obj
 0003:0000bbe8       ?UNLOAD_ICON@@3HA          005e6be8     Nature.obj
 0003:0000bbec       ?IDLE_PICON@@3HA           005e6bec     Nature.obj
 0003:0000bbf0       ?IDLE_MICON@@3HA           005e6bf0     Nature.obj
 0003:0000bbf4       ?IDLE_PX@@3HA              005e6bf4     Nature.obj
 0003:0000bbf8       ?IDLE_MX@@3HA              005e6bf8     Nature.obj
 0003:0000bbfc       ?GOAT_Icon@@3HA            005e6bfc     Nature.obj
 0003:0000bc00       ?GOAT_PX@@3HA              005e6c00     Nature.obj
 0003:0000bc04       ?GOAT_PY@@3HA              005e6c04     Nature.obj
 0003:0000bc08       ?HISTORY_Icon@@3HA         005e6c08     Nature.obj
 0003:0000bc0c       ?FILLFORM_ICON@@3HA        005e6c0c     Nature.obj
 0003:0000bc10       ?DOGUARD_ICON@@3HA         005e6c10     Nature.obj
 0003:0000bc14       ?NOGUARD_ICON@@3HA         005e6c14     Nature.obj
 0003:0000bc18       ?PATROL_ICON@@3HA          005e6c18     Nature.obj
 0003:0000bc1c       ?ATTGR_ICON@@3HA           005e6c1c     Nature.obj
 0003:0000bc20       ?AttGrPos@@3HA             005e6c20     Nature.obj
 0003:0000bc24       ?ADDRANGE@@3HA             005e6c24     Nature.obj
 0003:0000bc28       ?ADDPAUSE@@3HA             005e6c28     Nature.obj
 0003:0000bc2c       ?UNGROUP_ICON@@3HA         005e6c2c     Nature.obj
 0003:0000bc30       ?DOGROUP_ICON@@3HA         005e6c30     Nature.obj
 0003:0000bc34       ?GroupIconPos@@3HA         005e6c34     Nature.obj
 0003:0000bc38       ?AlarmSoundID@@3FA         005e6c38     Nature.obj
 0003:0000bc3c       ?xit@@3PAHA                005e6c3c     Nature.obj
 0003:0000c408       ?LastDirection@@3FA        005e7408     NewMon.obj
 0003:0000c410       ?KeyNames@@3PAPADA         005e7410     NewMon.obj
 0003:0000c520       ?ScanKeys@@3PAEA           005e7520     NewMon.obj
 0003:0000c564       ?GroundBox@@3_NA           005e7564     NewMon.obj
 0003:0000c568       ?SmartLink@@3HA            005e7568     NewMon.obj
 0003:0000c56c       ?CurTR@@3HA                005e756c     NewMon.obj
 0003:0000c570       ?PreMID@@3HA               005e7570     NewMon.obj
 0003:0000c574       ?NatRefTBL@@3PAEA          005e7574     NewMon.obj
 0003:0000c57c       ??_C@_01PKMN@?$DP?$AA@     005e757c     NewMon.obj
 0003:0000c580       ??_C@_01FAFK@?$DO?$AA@     005e7580     NewMon.obj
 0003:0000c584       ??_C@_01FHE@?$DM?$AA@      005e7584     NewMon.obj
 0003:0000c588       ??_C@_04BPDJ@NUM?1?$AA@    005e7588     NewMon.obj
 0003:0000c590       ??_C@_04BPPC@NUM?$CK?$AA@  005e7590     NewMon.obj
 0003:0000c598       ??_C@_04EKBH@NUM?9?$AA@    005e7598     NewMon.obj
 0003:0000c5a0       ??_C@_04LFGF@NUM?$CL?$AA@  005e75a0     NewMon.obj
 0003:0000c5a8       ??_C@_03NMAO@INS?$AA@      005e75a8     NewMon.obj
 0003:0000c5ac       ??_C@_03PIHE@END?$AA@      005e75ac     NewMon.obj
 0003:0000c5b0       ??_C@_04CDJB@HOME?$AA@     005e75b0     NewMon.obj
 0003:0000c5b8       ??_C@_04MEGK@PGDN?$AA@     005e75b8     NewMon.obj
 0003:0000c5c0       ??_C@_04LKND@PGUP?$AA@     005e75c0     NewMon.obj
 0003:0000c5c8       ??_C@_03DLBM@F10?$AA@      005e75c8     NewMon.obj
 0003:0000c5cc       ??_C@_02NIOF@F9?$AA@       005e75cc     NewMon.obj
 0003:0000c5d0       ??_C@_02HCHC@F8?$AA@       005e75d0     NewMon.obj
 0003:0000c5d4       ??_C@_02HDCP@F7?$AA@       005e75d4     NewMon.obj
 0003:0000c5d8       ??_C@_02NJLI@F6?$AA@       005e75d8     NewMon.obj
 0003:0000c5dc       ??_C@_02CGAB@F5?$AA@       005e75dc     NewMon.obj
 0003:0000c5e0       ??_C@_02IMJG@F4?$AA@       005e75e0     NewMon.obj
 0003:0000c5e4       ??_C@_02NJHD@F3?$AA@       005e75e4     NewMon.obj
 0003:0000c5e8       ??_C@_02HDOE@F2?$AA@       005e75e8     NewMon.obj
 0003:0000c5ec       ??_C@_02IMFN@F1?$AA@       005e75ec     NewMon.obj
 0003:0000c5f0       ??_C@_04EJDL@NUM9?$AA@     005e75f0     NewMon.obj
 0003:0000c5f8       ??_C@_04ODKM@NUM8?$AA@     005e75f8     NewMon.obj
 0003:0000c600       ??_C@_04OCPB@NUM7?$AA@     005e7600     NewMon.obj
 0003:0000c608       ??_C@_04EIGG@NUM6?$AA@     005e7608     NewMon.obj
 0003:0000c610       ??_C@_04LHNP@NUM5?$AA@     005e7610     NewMon.obj
 0003:0000c618       ??_C@_04BNEI@NUM4?$AA@     005e7618     NewMon.obj
 0003:0000c620       ??_C@_04EIKN@NUM3?$AA@     005e7620     NewMon.obj
 0003:0000c628       ??_C@_04OCDK@NUM2?$AA@     005e7628     NewMon.obj
 0003:0000c630       ??_C@_04BNID@NUM1?$AA@     005e7630     NewMon.obj
 0003:0000c638       ??_C@_04LHBE@NUM0?$AA@     005e7638     NewMon.obj
 0003:0000c640       ??_C@_01NCG@Z?$AA@         005e7640     NewMon.obj
 0003:0000c644       ??_C@_01PCJP@Y?$AA@        005e7644     NewMon.obj
 0003:0000c648       ??_C@_01FIAI@X?$AA@        005e7648     NewMon.obj
 0003:0000c64c       ??_C@_01FJFF@W?$AA@        005e764c     NewMon.obj
 0003:0000c650       ??_C@_01PDMC@V?$AA@        005e7650     NewMon.obj
 0003:0000c654       ??_C@_01KGOM@T?$AA@        005e7654     NewMon.obj
 0003:0000c658       ??_C@_01PDAJ@S?$AA@        005e7658     NewMon.obj
 0003:0000c65c       ??_C@_01KGCH@Q?$AA@        005e765c     NewMon.obj
 0003:0000c660       ??_C@_01MLA@P?$AA@         005e7660     NewMon.obj
 0003:0000c664       ??_C@_01KEJN@O?$AA@        005e7664     NewMon.obj
 0003:0000c668       ??_C@_01OAK@N?$AA@         005e7668     NewMon.obj
 0003:0000c66c       ??_C@_01PBLD@M?$AA@        005e766c     NewMon.obj
 0003:0000c670       ??_C@_01OMB@K?$AA@         005e7670     NewMon.obj
 0003:0000c674       ??_C@_01KEFG@J?$AA@        005e7674     NewMon.obj
 0003:0000c678       ??_C@_01FLOP@I?$AA@        005e7678     NewMon.obj
 0003:0000c67c       ??_C@_01PBHI@H?$AA@        005e767c     NewMon.obj
 0003:0000c680       ??_C@_01PACF@G?$AA@        005e7680     NewMon.obj
 0003:0000c684       ??_C@_01FKLC@F?$AA@        005e7684     NewMon.obj
 0003:0000c688       ??_C@_01KFAL@E?$AA@        005e7688     NewMon.obj
 0003:0000c68c       ??_C@_01FKHJ@C?$AA@        005e768c     NewMon.obj
 0003:0000c690       ??_C@_01PAOO@B?$AA@        005e7690     NewMon.obj
 0003:0000c694       ??_C@_01PFH@A?$AA@         005e7694     NewMon.obj
 0003:0000c698       ??_C@_01FLP@9?$AA@         005e7698     NewMon.obj
 0003:0000c69c       ??_C@_01KPCI@8?$AA@        005e769c     NewMon.obj
 0003:0000c6a0       ??_C@_01KOHF@7?$AA@        005e76a0     NewMon.obj
 0003:0000c6a4       ??_C@_01EOC@6?$AA@         005e76a4     NewMon.obj
 0003:0000c6a8       ??_C@_01PLFL@5?$AA@        005e76a8     NewMon.obj
 0003:0000c6ac       ??_C@_01FBMM@4?$AA@        005e76ac     NewMon.obj
 0003:0000c6b0       ??_C@_01ECJ@3?$AA@         005e76b0     NewMon.obj
 0003:0000c6b4       ??_C@_01KOLO@2?$AA@        005e76b4     NewMon.obj
 0003:0000c6b8       ??_C@_01FBAH@1?$AA@        005e76b8     NewMon.obj
 0003:0000c6bc       ??_C@_05NAGO@false?$AA@    005e76bc     NewMon.obj
 0003:0000c6c8       ??_C@_0GC@OOGE@C?3?2OLD_PROJECTS_BACKUP?2BackToWar@ 005e76c8     NewMon.obj
 0003:0000c72c       ??_C@_0BC@CDEA@LOADING?5FAILED?4?4?4?$AA@ 005e772c     NewMon.obj
 0003:0000c740       ??_C@_0N@LMNE@0?2agew_1?4pal?$AA@ 005e7740     NewMon.obj
 0003:0000c750       ??_C@_0N@GHAB@2?2agew_1?4pal?$AA@ 005e7750     NewMon.obj
 0003:0000c760       ??_C@_0CN@LMJA@?$CFs?0?$CFd?5?3?5?$CFs?5?3?5Not?5enough?5paramete@ 005e7760     NewMon.obj
 0003:0000c790       ??_C@_0CD@NJOB@?$CFs?0?$CFd?5?3?5?$CFs?5?3?5Invalid?5parameter?3?5@ 005e7790     NewMon.obj
 0003:0000c7b4       ??_C@_0CC@GDLK@?$CFs?0?$CFd?5?3?5?$CFs?5?3?5Incorrect?5parameter@ 005e77b4     NewMon.obj
 0003:0000c7d8       ??_C@_0BB@EFML@Interface?2CursGo?$AA@ 005e77d8     NewMon.obj
 0003:0000c7ec       ??_C@_0BD@OAAH@Interface?2LongBox0?$AA@ 005e77ec     NewMon.obj
 0003:0000c800       ??_C@_09NNKG@Cursor_02?$AA@ 005e7800     NewMon.obj
 0003:0000c80c       ??_C@_09CCBP@Cursor_01?$AA@ 005e780c     NewMon.obj
 0003:0000c818       ??_C@_09IIII@Cursor_00?$AA@ 005e7818     NewMon.obj
 0003:0000c824       ??_C@_08CAJA@smicons1?$AA@ 005e7824     NewMon.obj
 0003:0000c830       ??_C@_0BC@LBKO@Interface?2GScroll?$AA@ 005e7830     NewMon.obj
 0003:0000c844       ??_C@_04PFCD@flag?$AA@     005e7844     NewMon.obj
 0003:0000c84c       ??_C@_07JHMK@smicons?$AA@  005e784c     NewMon.obj
 0003:0000c854       ??_C@_05MINO@icons?$AA@    005e7854     NewMon.obj
 0003:0000c85c       ??_C@_0BM@OBKK@Unable?5to?5open?5IconList?4txt?$AA@ 005e785c     NewMon.obj
 0003:0000c878       ??_C@_05FPHP@?$FLEND?$FN?$AA@ 005e7878     NewMon.obj
 0003:0000c880       ??_C@_0N@HNNF@IconList?4txt?$AA@ 005e7880     NewMon.obj
 0003:0000c890       ??_C@_0CB@LABM@Unable?5to?5open?5Data?2Keyboard?4dat@ 005e7890     NewMon.obj
 0003:0000c8b4       ??_C@_0BH@DFJA@Unknown?5key?5code?3?5?8?$CFs?8?$AA@ 005e78b4     NewMon.obj
 0003:0000c8cc       ??_C@_05KJME@SHIFT?$AA@    005e78cc     NewMon.obj
 0003:0000c8d4       ??_C@_03DEAL@ALT?$AA@      005e78d4     NewMon.obj
 0003:0000c8d8       ??_C@_04GBJE@CTRL?$AA@     005e78d8     NewMon.obj
 0003:0000c8e0       ??_C@_0BE@PLNK@Unknown?5icon?5ID?3?5?$CFs?$AA@ 005e78e0     NewMon.obj
 0003:0000c8f4       ??_C@_0BC@JICE@Data?2Keyboard?4dat?$AA@ 005e78f4     NewMon.obj
 0003:0000c908       ??_C@_0BK@NCNN@Could?5not?5open?5Weapon?4ads?$AA@ 005e7908     NewMon.obj
 0003:0000c924       ??_C@_0L@LFFH@?$CDSHARBUILD?$AA@ 005e7924     NewMon.obj
 0003:0000c930       ??_C@_05HKBJ@?$CDSHAR?$AA@ 005e7930     NewMon.obj
 0003:0000c938       ??_C@_0CK@GENE@Weapon?4ads?0line?5?$CFd?5?3?5Unknown?5com@ 005e7938     NewMon.obj
 0003:0000c964       ??_C@_0CF@ONKL@?$CFs?0line?5?$CFd?5?3?$CFs?3?5Unknown?5animatio@ 005e7964     NewMon.obj
 0003:0000c98c       ??_C@_0CB@EODD@?$CFs?0line?5?$CFd?5?3?$CFs?3?5Unknown?5sound?3?$CFs@ 005e798c     NewMon.obj
 0003:0000c9b0       ??_C@_0L@HAME@Weapon?4ads?$AA@ 005e79b0     NewMon.obj
 0003:0000c9bc       ??_C@_06MIIC@?$CFd?$CFs?$CFs?$AA@ 005e79bc     NewMon.obj
 0003:0000c9c4       ??_C@_05LGNL@SOUND?$AA@    005e79c4     NewMon.obj
 0003:0000c9cc       ??_C@_06BPED@SHADOW?$AA@   005e79cc     NewMon.obj
 0003:0000c9d4       ??_C@_0L@NDGB@?$CFd?$CFs?$CFs?$CFd?$CFd?$AA@ 005e79d4     NewMon.obj
 0003:0000c9e0       ??_C@_06OBBF@USERLC?$AA@   005e79e0     NewMon.obj
 0003:0000c9e8       ??_C@_0EL@JNG@Weapon?4ads?0line?5?$CFd?5?3?5Reference?5t@ 005e79e8     NewMon.obj
 0003:0000ca34       ??_C@_0DB@CFON@Weapon?4ads?0line?5?$CFd?5?3?5Incorrect?5R@ 005e7a34     NewMon.obj
 0003:0000ca68       ??_C@_0DA@HINF@Weapon?4ads?0line?5?$CFd?5?3?5Unknown?5ani@ 005e7a68     NewMon.obj
 0003:0000ca98       ??_C@_0N@KOFK@?$CFd?$CFd?$CFd?$CFd?$CFd?$CFd?$AA@ 005e7a98     NewMon.obj
 0003:0000caa8       ??_C@_0EM@HLEA@Weapon?4ads?0line?5?$CFd?5?3?5Reference?5t@ 005e7aa8     NewMon.obj
 0003:0000caf4       ??_C@_08LNA@?$CFd?$CFd?$CFd?$CFd?$AA@ 005e7af4     NewMon.obj
 0003:0000cb00       ??_C@_0L@IIIN@weapon?4ads?$AA@ 005e7b00     NewMon.obj
 0003:0000cb0c       ??_C@_08LEPB@?$CDTRANS3X?$AA@ 005e7b0c     NewMon.obj
 0003:0000cb18       ??_C@_08BJIM@?$CDTRANSX3?$AA@ 005e7b18     NewMon.obj
 0003:0000cb24       ??_C@_0N@KEJF@?$CDHIANIMATION?$AA@ 005e7b24     NewMon.obj
 0003:0000cb34       ??_C@_0L@FDGN@?$CDBUILDHI_3?$AA@ 005e7b34     NewMon.obj
 0003:0000cb40       ??_C@_0L@PJPK@?$CDBUILDHI_2?$AA@ 005e7b40     NewMon.obj
 0003:0000cb4c       ??_C@_0L@GED@?$CDBUILDHI_1?$AA@ 005e7b4c     NewMon.obj
 0003:0000cb58       ??_C@_0L@KMNE@?$CDBUILDHI_0?$AA@ 005e7b58     NewMon.obj
 0003:0000cb64       ??_C@_0L@CKFC@?$CDBUILDLO_3?$AA@ 005e7b64     NewMon.obj
 0003:0000cb70       ??_C@_0L@IAMF@?$CDBUILDLO_2?$AA@ 005e7b70     NewMon.obj
 0003:0000cb7c       ??_C@_0L@HPHM@?$CDBUILDLO_1?$AA@ 005e7b7c     NewMon.obj
 0003:0000cb88       ??_C@_0L@NFOL@?$CDBUILDLO_0?$AA@ 005e7b88     NewMon.obj
 0003:0000cb94       ??_C@_0L@OHK@?$CDWORKFIELD?$AA@ 005e7b94     NewMon.obj
 0003:0000cba0       ??_C@_0L@FAGO@?$CDWORKSTONE?$AA@ 005e7ba0     NewMon.obj
 0003:0000cbac       ??_C@_09EAIA@?$CDWORKTREE?$AA@ 005e7bac     NewMon.obj
 0003:0000cbb8       ??_C@_09IHDI@?$CDROTATE_L?$AA@ 005e7bb8     NewMon.obj
 0003:0000cbc4       ??_C@_09IFIC@?$CDROTATE_R?$AA@ 005e7bc4     NewMon.obj
 0003:0000cbd0       ??_C@_06DMGK@?$CDREST1?$AA@ 005e7bd0     NewMon.obj
 0003:0000cbd8       ??_C@_05GNDM@?$CDREST?$AA@ 005e7bd8     NewMon.obj
 0003:0000cbe0       ??_C@_0O@LFHP@?$CDMINISTEP_RB3?$AA@ 005e7be0     NewMon.obj
 0003:0000cbf0       ??_C@_0O@OINH@?$CDMINISTEP_LB3?$AA@ 005e7bf0     NewMon.obj
 0003:0000cc00       ??_C@_0N@KCDE@?$CDMINISTEP_R3?$AA@ 005e7c00     NewMon.obj
 0003:0000cc10       ??_C@_0N@KDG@?$CDMINISTEP_L3?$AA@ 005e7c10     NewMon.obj
 0003:0000cc20       ??_C@_0M@HOEA@?$CDMOTION_RB3?$AA@ 005e7c20     NewMon.obj
 0003:0000cc2c       ??_C@_0M@CDOI@?$CDMOTION_LB3?$AA@ 005e7c2c     NewMon.obj
 0003:0000cc38       ??_C@_0L@JNOA@?$CDMOTION_R3?$AA@ 005e7c38     NewMon.obj
 0003:0000cc44       ??_C@_0L@DFOC@?$CDMOTION_L3?$AA@ 005e7c44     NewMon.obj
 0003:0000cc50       ??_C@_08OKHF@?$CDPSTAND3?$AA@ 005e7c50     NewMon.obj
 0003:0000cc5c       ??_C@_08JLCC@?$CDATTACK3?$AA@ 005e7c5c     NewMon.obj
 0003:0000cc68       ??_C@_09KIIG@?$CDUATTACK3?$AA@ 005e7c68     NewMon.obj
 0003:0000cc74       ??_C@_09MABC@?$CDPATTACK3?$AA@ 005e7c74     NewMon.obj
 0003:0000cc80       ??_C@_0O@BPOI@?$CDMINISTEP_RB2?$AA@ 005e7c80     NewMon.obj
 0003:0000cc90       ??_C@_0O@ECEA@?$CDMINISTEP_LB2?$AA@ 005e7c90     NewMon.obj
 0003:0000cca0       ??_C@_0N@IKD@?$CDMINISTEP_R2?$AA@ 005e7ca0     NewMon.obj
 0003:0000ccb0       ??_C@_0N@KAKB@?$CDMINISTEP_L2?$AA@ 005e7cb0     NewMon.obj
 0003:0000ccc0       ??_C@_0M@NENH@?$CDMOTION_RB2?$AA@ 005e7cc0     NewMon.obj
 0003:0000cccc       ??_C@_0M@IJHP@?$CDMOTION_LB2?$AA@ 005e7ccc     NewMon.obj
 0003:0000ccd8       ??_C@_0L@DHHH@?$CDMOTION_R2?$AA@ 005e7cd8     NewMon.obj
 0003:0000cce4       ??_C@_0L@JPHF@?$CDMOTION_L2?$AA@ 005e7ce4     NewMon.obj
 0003:0000ccf0       ??_C@_08EAOC@?$CDPSTAND2?$AA@ 005e7cf0     NewMon.obj
 0003:0000ccfc       ??_C@_08DBLF@?$CDATTACK2?$AA@ 005e7cfc     NewMon.obj
 0003:0000cd08       ??_C@_09CBB@?$CDUATTACK2?$AA@ 005e7d08     NewMon.obj
 0003:0000cd14       ??_C@_09GKIF@?$CDPATTACK2?$AA@ 005e7d14     NewMon.obj
 0003:0000cd20       ??_C@_0O@OAFB@?$CDMINISTEP_RB1?$AA@ 005e7d20     NewMon.obj
 0003:0000cd30       ??_C@_0O@LNPJ@?$CDMINISTEP_LB1?$AA@ 005e7d30     NewMon.obj
 0003:0000cd40       ??_C@_0N@PHBK@?$CDMINISTEP_R1?$AA@ 005e7d40     NewMon.obj
 0003:0000cd50       ??_C@_0N@FPBI@?$CDMINISTEP_L1?$AA@ 005e7d50     NewMon.obj
 0003:0000cd60       ??_C@_0M@CLGO@?$CDMOTION_RB1?$AA@ 005e7d60     NewMon.obj
 0003:0000cd6c       ??_C@_0M@HGMG@?$CDMOTION_LB1?$AA@ 005e7d6c     NewMon.obj
 0003:0000cd78       ??_C@_0L@MIMO@?$CDMOTION_R1?$AA@ 005e7d78     NewMon.obj
 0003:0000cd84       ??_C@_0L@GAMM@?$CDMOTION_L1?$AA@ 005e7d84     NewMon.obj
 0003:0000cd90       ??_C@_09PNKI@?$CDUATTACK1?$AA@ 005e7d90     NewMon.obj
 0003:0000cd9c       ??_C@_09JFDM@?$CDPATTACK1?$AA@ 005e7d9c     NewMon.obj
 0003:0000cda8       ??_C@_0O@EKMG@?$CDMINISTEP_RB0?$AA@ 005e7da8     NewMon.obj
 0003:0000cdb8       ??_C@_0O@BHGO@?$CDMINISTEP_LB0?$AA@ 005e7db8     NewMon.obj
 0003:0000cdc8       ??_C@_0N@FNIN@?$CDMINISTEP_R0?$AA@ 005e7dc8     NewMon.obj
 0003:0000cdd8       ??_C@_0N@PFIP@?$CDMINISTEP_L0?$AA@ 005e7dd8     NewMon.obj
 0003:0000cde8       ??_C@_0M@IBPJ@?$CDMOTION_RB0?$AA@ 005e7de8     NewMon.obj
 0003:0000cdf4       ??_C@_0M@NMFB@?$CDMOTION_LB0?$AA@ 005e7df4     NewMon.obj
 0003:0000ce00       ??_C@_0L@GCFJ@?$CDMOTION_R0?$AA@ 005e7e00     NewMon.obj
 0003:0000ce0c       ??_C@_0L@MKFL@?$CDMOTION_L0?$AA@ 005e7e0c     NewMon.obj
 0003:0000ce18       ??_C@_08BFMM@?$CDPSTAND0?$AA@ 005e7e18     NewMon.obj
 0003:0000ce24       ??_C@_08GEJL@?$CDATTACK0?$AA@ 005e7e24     NewMon.obj
 0003:0000ce30       ??_C@_09FHDP@?$CDUATTACK0?$AA@ 005e7e30     NewMon.obj
 0003:0000ce3c       ??_C@_09DPKL@?$CDPATTACK0?$AA@ 005e7e3c     NewMon.obj
 0003:0000ce48       ??_C@_08LPFL@?$CDPSTAND1?$AA@ 005e7e48     NewMon.obj
 0003:0000ce54       ??_C@_08MOAM@?$CDATTACK1?$AA@ 005e7e54     NewMon.obj
 0003:0000ce60       ??_C@_08DKDM@?$CDTRANS10?$AA@ 005e7e60     NewMon.obj
 0003:0000ce6c       ??_C@_08IGAB@?$CDTRANS01?$AA@ 005e7e6c     NewMon.obj
 0003:0000ce78       ??_C@_07EBLK@?$CDDAMAGE?$AA@ 005e7e78     NewMon.obj
 0003:0000ce80       ??_C@_06PPIK@?$CDBUILD?$AA@ 005e7e80     NewMon.obj
 0003:0000ce88       ??_C@_08BOCB@?$CDBUILDHI?$AA@ 005e7e88     NewMon.obj
 0003:0000ce94       ??_C@_08KCBI@?$CDSTANDLO?$AA@ 005e7e94     NewMon.obj
 0003:0000cea0       ??_C@_08HMA@?$CDSTANDHI?$AA@ 005e7ea0     NewMon.obj
 0003:0000ceac       ??_C@_05HFLK@?$CDFIST?$AA@ 005e7eac     NewMon.obj
 0003:0000ceb4       ??_C@_05FHDJ@?$CDWORK?$AA@ 005e7eb4     NewMon.obj
 0003:0000cebc       ??_C@_07FMKN@?$CDPSTAND?$AA@ 005e7ebc     NewMon.obj
 0003:0000cec4       ??_C@_06MFEI@?$CDSTAND?$AA@ 005e7ec4     NewMon.obj
 0003:0000cecc       ??_C@_0L@DJMF@?$CDDEATHLIE3?$AA@ 005e7ecc     NewMon.obj
 0003:0000ced8       ??_C@_0L@JDFC@?$CDDEATHLIE2?$AA@ 005e7ed8     NewMon.obj
 0003:0000cee4       ??_C@_0L@GMOL@?$CDDEATHLIE1?$AA@ 005e7ee4     NewMon.obj
 0003:0000cef0       ??_C@_06NLNI@?$CDDEATH?$AA@ 005e7ef0     NewMon.obj
 0003:0000cef8       ??_C@_08KPKG@?$CDUATTACK?$AA@ 005e7ef8     NewMon.obj
 0003:0000cf04       ??_C@_08DLGF@?$CDPATTACK?$AA@ 005e7f04     NewMon.obj
 0003:0000cf10       ??_C@_07LPM@?$CDATTACK?$AA@ 005e7f10     NewMon.obj
 0003:0000cf18       ??_C@_0N@FGPD@?$CDMINISTEP_RB?$AA@ 005e7f18     NewMon.obj
 0003:0000cf28       ??_C@_0N@POPB@?$CDMINISTEP_LB?$AA@ 005e7f28     NewMon.obj
 0003:0000cf38       ??_C@_0M@BNPE@?$CDMINISTEP_R?$AA@ 005e7f38     NewMon.obj
 0003:0000cf44       ??_C@_0M@BPEO@?$CDMINISTEP_L?$AA@ 005e7f44     NewMon.obj
 0003:0000cf50       ??_C@_0L@GJCH@?$CDMOTION_RB?$AA@ 005e7f50     NewMon.obj
 0003:0000cf5c       ??_C@_0L@MBCF@?$CDMOTION_LB?$AA@ 005e7f5c     NewMon.obj
 0003:0000cf68       ??_C@_09MJDF@?$CDMOTION_R?$AA@ 005e7f68     NewMon.obj
 0003:0000cf74       ??_C@_09MLIP@?$CDMOTION_L?$AA@ 005e7f74     NewMon.obj
 0003:0000cf80       ??_C@_05IHDN@STENA?$AA@    005e7f80     NewMon.obj
 0003:0000cf88       ??_C@_0O@CMOI@WOOD_BUILDING?$AA@ 005e7f88     NewMon.obj
 0003:0000cf98       ??_C@_08IFKF@BUILDING?$AA@ 005e7f98     NewMon.obj
 0003:0000cfa4       ??_C@_03NOBJ@FLY?$AA@      005e7fa4     NewMon.obj
 0003:0000cfa8       ??_C@_04CLAE@IRON?$AA@     005e7fa8     NewMon.obj
 0003:0000cfb0       ??_C@_04CBFM@WOOD?$AA@     005e7fb0     NewMon.obj
 0003:0000cfb8       ??_C@_05BJPJ@STONE?$AA@    005e7fb8     NewMon.obj
 0003:0000cfc0       ??_C@_04LHMP@BODY?$AA@     005e7fc0     NewMon.obj
 0003:0000cfc8       ??_C@_0DC@PBFH@Could?5not?5open?5new?5monster?5discr@ 005e7fc8     NewMon.obj
 0003:0000cffc       ??_C@_0CC@NKF@?$CFs?0line?5?$CFd?5?3?5Unknown?5command?5?3?5?$CF@ 005e7ffc     NewMon.obj
 0003:0000d020       ??_C@_0BK@OMEL@first?5parameter?5must?5be?$DM4?$AA@ 005e8020     NewMon.obj
 0003:0000d03c       ??_C@_09JCIF@MAXINDEPO?$AA@ 005e803c     NewMon.obj
 0003:0000d048       ??_C@_0BA@HNLN@PEASANTABSORBER?$AA@ 005e8048     NewMon.obj
 0003:0000d058       ??_C@_09JPIM@TRANSPORT?$AA@ 005e8058     NewMon.obj
 0003:0000d064       ??_C@_0N@MCBF@UNITABSORBER?$AA@ 005e8064     NewMon.obj
 0003:0000d078       ??_C@_0FO@COB@?$CFs?0Line?5?$CFd?5?3?5?$CFs?5?3?5Unknown?5resour@ 005e8078     NewMon.obj
 0003:0000d0d8       ??_C@_04HHCG@COAL?$AA@     005e80d8     NewMon.obj
 0003:0000d0e0       ??_C@_08EBOI@PRODUCER?$AA@ 005e80e0     NewMon.obj
 0003:0000d0ec       ??_C@_0CC@KPHM@?$CFs?0?5?$CFd?5?3?$CFs?3?5Unknown?5wall?5type?3?5?$CF@ 005e80ec     NewMon.obj
 0003:0000d110       ??_C@_0L@KNF@WALLOBJECT?$AA@ 005e8110     NewMon.obj
 0003:0000d11c       ??_C@_0BN@LPKG@?$CFs?3?5Invalid?5FLAGS?5parameters?$AA@ 005e811c     NewMon.obj
 0003:0000d13c       ??_C@_05MNJD@FLAGS?$AA@    005e813c     NewMon.obj
 0003:0000d144       ??_C@_0N@CIMC@SPRITEOBJECT?$AA@ 005e8144     NewMon.obj
 0003:0000d154       ??_C@_09GDC@COST_FOOD?$AA@ 005e8154     NewMon.obj
 0003:0000d160       ??_C@_04IALP@NAME?$AA@     005e8160     NewMon.obj
 0003:0000d168       ??_C@_0P@PEAO@?$CFd?$CFd?$CFd?$CFs?$CFs?$CFd?$CFd?$AA@ 005e8168     NewMon.obj
 0003:0000d178       ??_C@_09PLPE@USERLCEXT?$AA@ 005e8178     NewMon.obj
 0003:0000d184       ??_C@_0CK@LPJP@?$CFs?0line?5?$CFd?5?3WEAPON?3?5Unknown?5weap@ 005e8184     NewMon.obj
 0003:0000d1b0       ??_C@_0CH@LALK@?$CFs?0line?5?$CFd?5?3WEAPON?3?5Index?5too?5bi@ 005e81b0     NewMon.obj
 0003:0000d1d8       ??_C@_06FGDG@WEAPON?$AA@   005e81d8     NewMon.obj
 0003:0000d1e0       ??_C@_0DJ@NLL@?$CFs?0line?5?$CFd?5?3?5ADDSECTION?5?3?5Not?5en@ 005e81e0     NewMon.obj
 0003:0000d21c       ??_C@_0DA@HBNG@?$CFs?0line?5?$CFd?5?3?5ADDSECTION?5?3?5Too?5la@ 005e821c     NewMon.obj
 0003:0000d24c       ??_C@_0BP@OEHL@?$CFd?$CFd?$CFd?$CFd?$CFd?$CFd?$CFd?$CFd?$CFd?$CFd?$CFd?$CFd?$CFd?$CFd?$CFd?$AA@ 005e824c     NewMon.obj
 0003:0000d26c       ??_C@_0L@BBLB@ADDSECTION?$AA@ 005e826c     NewMon.obj
 0003:0000d278       ??_C@_0BM@EDKE@?$CFs?0?$CFd?5?3?5Unknown?5Icon?5ID?3?5?$CFs?$AA@ 005e8278     NewMon.obj
 0003:0000d294       ??_C@_04FIHI@ICON?$AA@     005e8294     NewMon.obj
 0003:0000d29c       ??_C@_07PELL@ZPOINTS?$AA@  005e829c     NewMon.obj
 0003:0000d2a4       ??_C@_0DJ@NEHK@?$CFs?0line?5?$CFd?5?3?5Attack?5type?5index?5i@ 005e82a4     NewMon.obj
 0003:0000d2e0       ??_C@_0O@KDAJ@ATTACK_ANGLES?$AA@ 005e82e0     NewMon.obj
 0003:0000d2f0       ??_C@_0DL@PKNK@?$CFs?0line?5?$CFd?5?3?5Attack?5type?5index?5i@ 005e82f0     NewMon.obj
 0003:0000d32c       ??_C@_0N@EJOD@ATTACK_PAUSE?$AA@ 005e832c     NewMon.obj
 0003:0000d340       ??_C@_0EA@OBKE@?$CFs?0line?5?$CFd?5?3?5Attack?5type?5index?5i@ 005e8340     NewMon.obj
 0003:0000d380       ??_C@_0BC@OCDO@ADD_ATTACK_RADIUS?$AA@ 005e8380     NewMon.obj
 0003:0000d394       ??_C@_0O@DJCI@ATTACK_RADIUS?$AA@ 005e8394     NewMon.obj
 0003:0000d3a4       ??_C@_0DM@CPJA@?$CFs?0line?5?$CFd?5?3?5Attack?5type?5index?5i@ 005e83a4     NewMon.obj
 0003:0000d3e0       ??_C@_0L@IHIC@DET_RADIUS?$AA@ 005e83e0     NewMon.obj
 0003:0000d3ec       ??_C@_0DE@PHBJ@?$CFs?0line?5?$CFd?5?3?5Not?5enough?5active?5p@ 005e83ec     NewMon.obj
 0003:0000d420       ??_C@_0P@DPGF@SETACTIVEPOINT?$AA@ 005e8420     NewMon.obj
 0003:0000d430       ??_C@_0L@JLIK@PROTECTION?$AA@ 005e8430     NewMon.obj
 0003:0000d43c       ??_C@_0DF@HOCM@?$CFs?0Line?5?$CFd?5?3?$CFs?3?5Unknown?5weapon?5k@ 005e843c     NewMon.obj
 0003:0000d474       ??_C@_0CF@OCII@?$CFs?0Line?5?$CFd?5?3?$CFs?3?5Too?5big?5attack?5i@ 005e8474     NewMon.obj
 0003:0000d49c       ??_C@_0L@CBJC@WEAPONKIND?$AA@ 005e849c     NewMon.obj
 0003:0000d4a8       ??_C@_04PPMH@ZALP?$AA@     005e84a8     NewMon.obj
 0003:0000d4b0       ??_C@_0DG@PDFM@?$CFs?0line?5?$CFd?5?3?5Attack?5type?5index?5i@ 005e84b0     NewMon.obj
 0003:0000d4e8       ??_C@_04KDBB@RATE?$AA@     005e84e8     NewMon.obj
 0003:0000d4f0       ??_C@_0CM@JEFL@?$CFs?0?5Line?3?5?$CFd?5?3ATTMASK?3?5Unknown?5m@ 005e84f0     NewMon.obj
 0003:0000d51c       ??_C@_07IIGD@ATTMASK?$AA@  005e851c     NewMon.obj
 0003:0000d524       ??_C@_0CM@LBAI@?$CFs?0?5Line?3?5?$CFd?5?3CANKILL?3?5Unknown?5m@ 005e8524     NewMon.obj
 0003:0000d550       ??_C@_07KLEL@CANKILL?$AA@  005e8550     NewMon.obj
 0003:0000d558       ??_C@_0CO@CBEE@?$CFs?0?5Line?3?5?$CFd?5?3MATHERIAL?3?5Unknown@ 005e8558     NewMon.obj
 0003:0000d588       ??_C@_09PJAD@MATHERIAL?$AA@ 005e8588     NewMon.obj
 0003:0000d594       ??_C@_0BE@BICE@SEARCH_ENEMY_RADIUS?$AA@ 005e8594     NewMon.obj
 0003:0000d5a8       ??_C@_05KNAP@RANGE?$AA@    005e85a8     NewMon.obj
 0003:0000d5b0       ??_C@_06KPD@SHIELD?$AA@    005e85b0     NewMon.obj
 0003:0000d5b8       ??_C@_0CD@GGGG@?$CFs?0line?5?$CFd?3?$CFs?3?5Unknown?5resource?3@ 005e85b8     NewMon.obj
 0003:0000d5dc       ??_C@_05DDFJ@PRICE?$AA@    005e85dc     NewMon.obj
 0003:0000d5e4       ??_C@_04MNBC@COST?$AA@     005e85e4     NewMon.obj
 0003:0000d5ec       ??_C@_07NCFE@MESSAGE?$AA@  005e85ec     NewMon.obj
 0003:0000d5f8       ??_C@_0EC@LJDI@?$CFs?0?5Line?5?$CFd?5?3?$CFs?3?5Unknown?5kind?5of@ 005e85f8     NewMon.obj
 0003:0000d63c       ??_C@_08DNCE@UNITKIND?$AA@ 005e863c     NewMon.obj
 0003:0000d648       ??_C@_04JKHJ@KINO?$AA@     005e8648     NewMon.obj
 0003:0000d650       ??_C@_04DBHI@KIND?$AA@     005e8650     NewMon.obj
 0003:0000d658       ??_C@_04CFBP@TIME?$AA@     005e8658     NewMon.obj
 0003:0000d660       ??_C@_0O@NPOM@ADDSHOTRADIUS?$AA@ 005e8660     NewMon.obj
 0003:0000d670       ??_C@_06BGLP@PROMAX?$AA@   005e8670     NewMon.obj
 0003:0000d678       ??_C@_08CIPF@CANSTORM?$AA@ 005e8678     NewMon.obj
 0003:0000d684       ??_C@_08GKO@CANSHOOT?$AA@  005e8684     NewMon.obj
 0003:0000d690       ??_C@_0BG@GBF@CANBECAPTUREDWHENFREE?$AA@ 005e8690     NewMon.obj
 0003:0000d6a8       ??_C@_0BC@HCIF@CANBEKILLEDINSIDE?$AA@ 005e86a8     NewMon.obj
 0003:0000d6bc       ??_C@_07FIMA@OPPOSIT?$AA@  005e86bc     NewMon.obj
 0003:0000d6c4       ??_C@_0L@PPOM@STORMFORCE?$AA@ 005e86c4     NewMon.obj
 0003:0000d6d0       ??_C@_04NEAF@LIFE?$AA@     005e86d0     NewMon.obj
 0003:0000d6d8       ??_C@_08LLBO@EXDAMAGE?$AA@ 005e86d8     NewMon.obj
 0003:0000d6e4       ??_C@_0P@MGIC@NOPAUSEDATTACK?$AA@ 005e86e4     NewMon.obj
 0003:0000d6f4       ??_C@_0N@HONH@SLOWRECHARGE?$AA@ 005e86f4     NewMon.obj
 0003:0000d704       ??_C@_09BJPB@USETRANSX?$AA@ 005e8704     NewMon.obj
 0003:0000d710       ??_C@_0M@GHNH@DIRECTTRANS?$AA@ 005e8710     NewMon.obj
 0003:0000d71c       ??_C@_09JMBC@DAMAGEDEC?$AA@ 005e871c     NewMon.obj
 0003:0000d728       ??_C@_06OALA@DAMAGE?$AA@   005e8728     NewMon.obj
 0003:0000d730       ??_C@_09DAGG@RECTANGLE?$AA@ 005e8730     NewMon.obj
 0003:0000d73c       ??_C@_0M@IPPA@SETANMPARAM?$AA@ 005e873c     NewMon.obj
 0003:0000d748       ??_C@_0L@PMHO@FOUNDATION?$AA@ 005e8748     NewMon.obj
 0003:0000d754       ??_C@_0M@KFAK@BUILDSTAGES?$AA@ 005e8754     NewMon.obj
 0003:0000d760       ??_C@_0M@ONNH@STAGE_SMOKE?$AA@ 005e8760     NewMon.obj
 0003:0000d76c       ??_C@_05PBK@SMOKE?$AA@     005e876c     NewMon.obj
 0003:0000d774       ??_C@_0M@GFEA@STAGE_FIRES?$AA@ 005e8774     NewMon.obj
 0003:0000d780       ??_C@_05IHIN@FIRES?$AA@    005e8780     NewMon.obj
 0003:0000d788       ??_C@_09MKJ@DAMPOINTS?$AA@ 005e8788     NewMon.obj
 0003:0000d794       ??_C@_0N@BEFN@CONCENTRATOR?$AA@ 005e8794     NewMon.obj
 0003:0000d7a4       ??_C@_0M@GMMK@BUILDPOINTS?$AA@ 005e87a4     NewMon.obj
 0003:0000d7b0       ??_C@_0L@JOAC@BORNPOINTS?$AA@ 005e87b0     NewMon.obj
 0003:0000d7bc       ??_C@_0M@KLCB@CHECKPOINTS?$AA@ 005e87bc     NewMon.obj
 0003:0000d7c8       ??_C@_0L@JHEB@EXPLPOINTS?$AA@ 005e87c8     NewMon.obj
 0003:0000d7d4       ??_C@_0BA@KJHO@BUILDLOCKPOINTS?$AA@ 005e87d4     NewMon.obj
 0003:0000d7e4       ??_C@_0BA@FJAB@STAGELOCKPOINTS?$AA@ 005e87e4     NewMon.obj
 0003:0000d7f4       ??_C@_0L@JOJJ@LOCKPOINTS?$AA@ 005e87f4     NewMon.obj
 0003:0000d800       ??_C@_04IEDC@FIRE?$AA@     005e8800     NewMon.obj
 0003:0000d808       ??_C@_0CM@EILL@?$CFs?0line?5?$CFd?5?3DESTRUCT?3?5Unknown?5we@ 005e8808     NewMon.obj
 0003:0000d834       ??_C@_08NPPB@DESTRUCT?$AA@ 005e8834     NewMon.obj
 0003:0000d840       ??_C@_0CL@NKHM@?$CFs?0line?5?$CFd?5?3FOGGING?3?5Unknown?5wea@ 005e8840     NewMon.obj
 0003:0000d86c       ??_C@_07HHMK@FOGGING?$AA@  005e886c     NewMon.obj
 0003:0000d874       ??_C@_0P@LGBD@?$CFd?$CFd?$CFd?$CFd?$CFd?$CFd?$CFd?$AA@ 005e8874     NewMon.obj
 0003:0000d884       ??_C@_08HLGO@EX_SHOTS?$AA@ 005e8884     NewMon.obj
 0003:0000d890       ??_C@_05FHKK@SHOTS?$AA@    005e8890     NewMon.obj
 0003:0000d898       ??_C@_0CF@HAIL@?$CFs?5?0?5line?5?$CFd?5?3?5?$CFs?5?3Unknown?5media@ 005e8898     NewMon.obj
 0003:0000d8c0       ??_C@_09EJEM@EXPLMEDIA?$AA@ 005e88c0     NewMon.obj
 0003:0000d8cc       ??_C@_0CO@COEC@?$CFs?0?5line?5?$CFd?5?3?5?$CFs?5?3?5Unknown?5Sprit@ 005e88cc     NewMon.obj
 0003:0000d8fc       ??_C@_07OELN@SPRITES?$AA@  005e88fc     NewMon.obj
 0003:0000d904       ??_C@_0L@GEFC@WATERROUND?$AA@ 005e8904     NewMon.obj
 0003:0000d910       ??_C@_06MMOJ@SHEEPS?$AA@   005e8910     NewMon.obj
 0003:0000d918       ??_C@_0L@CPGK@SLOWROTATE?$AA@ 005e8918     NewMon.obj
 0003:0000d924       ??_C@_0BA@NDCD@FASTROTATE?$CGMOVE?$AA@ 005e8924     NewMon.obj
 0003:0000d934       ??_C@_0M@HCPD@MOTIONSTYLE?$AA@ 005e8934     NewMon.obj
 0003:0000d940       ??_C@_0CD@IADI@?$CFs?0?5Line?5?$CFd?5?3?$CFs?3?5Unknown?5media?3?5@ 005e8940     NewMon.obj
 0003:0000d964       ??_C@_05EJIN@WATER?$AA@    005e8964     NewMon.obj
 0003:0000d96c       ??_C@_04FLHD@LAND?$AA@     005e896c     NewMon.obj
 0003:0000d974       ??_C@_05HKN@MEDIA?$AA@     005e8974     NewMon.obj
 0003:0000d97c       ??_C@_07IJFK@PORTION?$AA@  005e897c     NewMon.obj
 0003:0000d984       ??_C@_04FBCP@FOOD?$AA@     005e8984     NewMon.obj
 0003:0000d98c       ??_C@_04EPIC@GOLD?$AA@     005e898c     NewMon.obj
 0003:0000d994       ??_C@_0N@FHHF@RESOURCEBASE?$AA@ 005e8994     NewMon.obj
 0003:0000d9a4       ??_C@_08KOJF@LOCATION?$AA@ 005e89a4     NewMon.obj
 0003:0000d9b0       ??_C@_0P@BHCB@?$CFd?5?$CFd?5?$CFd?5?$CFd?5?$CFd?$AA@ 005e89b0     NewMon.obj
 0003:0000d9c0       ??_C@_06OOK@3DBARS?$AA@    005e89c0     NewMon.obj
 0003:0000d9c8       ??_C@_04NLOI@INFO?$AA@     005e89c8     NewMon.obj
 0003:0000d9d0       ??_C@_0EG@LGDO@?$CFs?0line?5?$CFd?5?3?5Unknown?5sort?5type?$CIL@ 005e89d0     NewMon.obj
 0003:0000da18       ??_C@_03JOIO@TOP?$AA@      005e8a18     NewMon.obj
 0003:0000da1c       ??_C@_06JGJH@GROUND?$AA@   005e8a1c     NewMon.obj
 0003:0000da24       ??_C@_05GEB@POINT?$AA@     005e8a24     NewMon.obj
 0003:0000da2c       ??_C@_04GBFB@LINE?$AA@     005e8a2c     NewMon.obj
 0003:0000da34       ??_C@_08IKIO@LINESORT?$AA@ 005e8a34     NewMon.obj
 0003:0000da40       ??_C@_08NAKC@GEOMETRY?$AA@ 005e8a40     NewMon.obj
 0003:0000da4c       ??_C@_0L@GN@LINEARSORT?$AA@ 005e8a4c     NewMon.obj
 0003:0000da58       ??_C@_08JENL@?$CFd?$CFd?$CFs?$CFd?$AA@ 005e8a58     NewMon.obj
 0003:0000da64       ??_C@_05DHLG@VESLA?$AA@    005e8a64     NewMon.obj
 0003:0000da6c       ??_C@_07DALG@REFLECT?$AA@  005e8a6c     NewMon.obj
 0003:0000da74       ??_C@_08JOJB@BUILDBAR?$AA@ 005e8a74     NewMon.obj
 0003:0000da80       ??_C@_0CF@KOFK@?$CFs?0Line?5?$CFd?5?3?$CFs?3?5Unknown?5animatio@ 005e8a80     NewMon.obj
 0003:0000daa8       ??_C@_08BCNA@TWOPARTS?$AA@ 005e8aa8     NewMon.obj
 0003:0000dab4       ??_C@_0M@ICLJ@MULTIWEAPON?$AA@ 005e8ab4     NewMon.obj
 0003:0000dac0       ??_C@_0CD@CBBC@?$CFs?0line?5?$CFd?5?3?5Unknown?5animation?3?5@ 005e8ac0     NewMon.obj
 0003:0000dae4       ??_C@_06KLBM@?$CFd?$CFd?$CFd?$AA@ 005e8ae4     NewMon.obj
 0003:0000daec       ??_C@_0BF@ENGC@RASTRATA_NA_VISTREL2?$AA@ 005e8aec     NewMon.obj
 0003:0000db04       ??_C@_0CE@LHJL@?$CFs?0line?5?$CFd?5?3?$CFs?3?5Unknown?5resource@ 005e8b04     NewMon.obj
 0003:0000db28       ??_C@_0BE@NMBJ@RASTRATA_NA_VISTREL?$AA@ 005e8b28     NewMon.obj
 0003:0000db3c       ??_C@_07ECEM@CAPTURE?$AA@  005e8b3c     NewMon.obj
 0003:0000db44       ??_C@_0P@LFB@NOFULLDESTRUCT?$AA@ 005e8b44     NewMon.obj
 0003:0000db54       ??_C@_0O@BBNI@ARTPODGOTOVKA?$AA@ 005e8b54     NewMon.obj
 0003:0000db64       ??_C@_09GEN@SHOWDELAY?$AA@ 005e8b64     NewMon.obj
 0003:0000db70       ??_C@_07MBGL@TURNOFF?$AA@  005e8b70     NewMon.obj
 0003:0000db78       ??_C@_07NCAI@NAEMNIK?$AA@  005e8b78     NewMon.obj
